
429LinearImageSensor.elf:     file format elf32-littlearm

Sections:
Idx Name          Size      VMA       LMA       File off  Algn
  0 .isr_vector   000001ac  08000000  08000000  00010000  2**0
                  CONTENTS, ALLOC, LOAD, READONLY, DATA
  1 .text         00007428  080001b0  080001b0  000101b0  2**4
                  CONTENTS, ALLOC, LOAD, READONLY, CODE
  2 .rodata       000001a0  080075d8  080075d8  000175d8  2**2
                  CONTENTS, ALLOC, LOAD, READONLY, DATA
  3 .ARM          00000008  08007778  08007778  00017778  2**2
                  CONTENTS, ALLOC, LOAD, READONLY, DATA
  4 .init_array   00000004  08007780  08007780  00017780  2**2
                  CONTENTS, ALLOC, LOAD, DATA
  5 .fini_array   00000004  08007784  08007784  00017784  2**2
                  CONTENTS, ALLOC, LOAD, DATA
  6 .data         000001c8  20000000  08007788  00020000  2**2
                  CONTENTS, ALLOC, LOAD, DATA
  7 .ccmram       00004010  10000000  08007950  00030000  2**2
                  CONTENTS, ALLOC, LOAD, DATA
  8 .bss          00011dac  200001c8  200001c8  000401c8  2**2
                  ALLOC
  9 ._user_heap_stack 00000400  20011f74  20011f74  000401c8  2**0
                  ALLOC
 10 .ARM.attributes 00000030  00000000  00000000  00034010  2**0
                  CONTENTS, READONLY
 11 .debug_info   00033207  00000000  00000000  00034040  2**0
                  CONTENTS, READONLY, DEBUGGING
 12 .debug_abbrev 0000697c  00000000  00000000  00067247  2**0
                  CONTENTS, READONLY, DEBUGGING
 13 .debug_loc    0000d33c  00000000  00000000  0006dbc3  2**0
                  CONTENTS, READONLY, DEBUGGING
 14 .debug_aranges 00001600  00000000  00000000  0007af00  2**3
                  CONTENTS, READONLY, DEBUGGING
 15 .debug_ranges 00001948  00000000  00000000  0007c500  2**3
                  CONTENTS, READONLY, DEBUGGING
 16 .debug_line   0000d424  00000000  00000000  0007de48  2**0
                  CONTENTS, READONLY, DEBUGGING
 17 .debug_str    00007ccc  00000000  00000000  0008b26c  2**0
                  CONTENTS, READONLY, DEBUGGING
 18 .comment      0000007c  00000000  00000000  00092f38  2**0
                  CONTENTS, READONLY
 19 .debug_frame  00004428  00000000  00000000  00092fb4  2**2
                  CONTENTS, READONLY, DEBUGGING

Disassembly of section .text:

080001b0 <__do_global_dtors_aux>:
 80001b0:	b510      	push	{r4, lr}
 80001b2:	4c05      	ldr	r4, [pc, #20]	; (80001c8 <__do_global_dtors_aux+0x18>)
 80001b4:	7823      	ldrb	r3, [r4, #0]
 80001b6:	b933      	cbnz	r3, 80001c6 <__do_global_dtors_aux+0x16>
 80001b8:	4b04      	ldr	r3, [pc, #16]	; (80001cc <__do_global_dtors_aux+0x1c>)
 80001ba:	b113      	cbz	r3, 80001c2 <__do_global_dtors_aux+0x12>
 80001bc:	4804      	ldr	r0, [pc, #16]	; (80001d0 <__do_global_dtors_aux+0x20>)
 80001be:	f3af 8000 	nop.w
 80001c2:	2301      	movs	r3, #1
 80001c4:	7023      	strb	r3, [r4, #0]
 80001c6:	bd10      	pop	{r4, pc}
 80001c8:	200001c8 	.word	0x200001c8
 80001cc:	00000000 	.word	0x00000000
 80001d0:	080075c0 	.word	0x080075c0

080001d4 <frame_dummy>:
 80001d4:	b508      	push	{r3, lr}
 80001d6:	4b03      	ldr	r3, [pc, #12]	; (80001e4 <frame_dummy+0x10>)
 80001d8:	b11b      	cbz	r3, 80001e2 <frame_dummy+0xe>
 80001da:	4903      	ldr	r1, [pc, #12]	; (80001e8 <frame_dummy+0x14>)
 80001dc:	4803      	ldr	r0, [pc, #12]	; (80001ec <frame_dummy+0x18>)
 80001de:	f3af 8000 	nop.w
 80001e2:	bd08      	pop	{r3, pc}
 80001e4:	00000000 	.word	0x00000000
 80001e8:	200001cc 	.word	0x200001cc
 80001ec:	080075c0 	.word	0x080075c0

080001f0 <__aeabi_drsub>:
 80001f0:	f081 4100 	eor.w	r1, r1, #2147483648	; 0x80000000
 80001f4:	e002      	b.n	80001fc <__adddf3>
 80001f6:	bf00      	nop

080001f8 <__aeabi_dsub>:
 80001f8:	f083 4300 	eor.w	r3, r3, #2147483648	; 0x80000000

080001fc <__adddf3>:
 80001fc:	b530      	push	{r4, r5, lr}
 80001fe:	ea4f 0441 	mov.w	r4, r1, lsl #1
 8000202:	ea4f 0543 	mov.w	r5, r3, lsl #1
 8000206:	ea94 0f05 	teq	r4, r5
 800020a:	bf08      	it	eq
 800020c:	ea90 0f02 	teqeq	r0, r2
 8000210:	bf1f      	itttt	ne
 8000212:	ea54 0c00 	orrsne.w	ip, r4, r0
 8000216:	ea55 0c02 	orrsne.w	ip, r5, r2
 800021a:	ea7f 5c64 	mvnsne.w	ip, r4, asr #21
 800021e:	ea7f 5c65 	mvnsne.w	ip, r5, asr #21
 8000222:	f000 80e2 	beq.w	80003ea <__adddf3+0x1ee>
 8000226:	ea4f 5454 	mov.w	r4, r4, lsr #21
 800022a:	ebd4 5555 	rsbs	r5, r4, r5, lsr #21
 800022e:	bfb8      	it	lt
 8000230:	426d      	neglt	r5, r5
 8000232:	dd0c      	ble.n	800024e <__adddf3+0x52>
 8000234:	442c      	add	r4, r5
 8000236:	ea80 0202 	eor.w	r2, r0, r2
 800023a:	ea81 0303 	eor.w	r3, r1, r3
 800023e:	ea82 0000 	eor.w	r0, r2, r0
 8000242:	ea83 0101 	eor.w	r1, r3, r1
 8000246:	ea80 0202 	eor.w	r2, r0, r2
 800024a:	ea81 0303 	eor.w	r3, r1, r3
 800024e:	2d36      	cmp	r5, #54	; 0x36
 8000250:	bf88      	it	hi
 8000252:	bd30      	pophi	{r4, r5, pc}
 8000254:	f011 4f00 	tst.w	r1, #2147483648	; 0x80000000
 8000258:	ea4f 3101 	mov.w	r1, r1, lsl #12
 800025c:	f44f 1c80 	mov.w	ip, #1048576	; 0x100000
 8000260:	ea4c 3111 	orr.w	r1, ip, r1, lsr #12
 8000264:	d002      	beq.n	800026c <__adddf3+0x70>
 8000266:	4240      	negs	r0, r0
 8000268:	eb61 0141 	sbc.w	r1, r1, r1, lsl #1
 800026c:	f013 4f00 	tst.w	r3, #2147483648	; 0x80000000
 8000270:	ea4f 3303 	mov.w	r3, r3, lsl #12
 8000274:	ea4c 3313 	orr.w	r3, ip, r3, lsr #12
 8000278:	d002      	beq.n	8000280 <__adddf3+0x84>
 800027a:	4252      	negs	r2, r2
 800027c:	eb63 0343 	sbc.w	r3, r3, r3, lsl #1
 8000280:	ea94 0f05 	teq	r4, r5
 8000284:	f000 80a7 	beq.w	80003d6 <__adddf3+0x1da>
 8000288:	f1a4 0401 	sub.w	r4, r4, #1
 800028c:	f1d5 0e20 	rsbs	lr, r5, #32
 8000290:	db0d      	blt.n	80002ae <__adddf3+0xb2>
 8000292:	fa02 fc0e 	lsl.w	ip, r2, lr
 8000296:	fa22 f205 	lsr.w	r2, r2, r5
 800029a:	1880      	adds	r0, r0, r2
 800029c:	f141 0100 	adc.w	r1, r1, #0
 80002a0:	fa03 f20e 	lsl.w	r2, r3, lr
 80002a4:	1880      	adds	r0, r0, r2
 80002a6:	fa43 f305 	asr.w	r3, r3, r5
 80002aa:	4159      	adcs	r1, r3
 80002ac:	e00e      	b.n	80002cc <__adddf3+0xd0>
 80002ae:	f1a5 0520 	sub.w	r5, r5, #32
 80002b2:	f10e 0e20 	add.w	lr, lr, #32
 80002b6:	2a01      	cmp	r2, #1
 80002b8:	fa03 fc0e 	lsl.w	ip, r3, lr
 80002bc:	bf28      	it	cs
 80002be:	f04c 0c02 	orrcs.w	ip, ip, #2
 80002c2:	fa43 f305 	asr.w	r3, r3, r5
 80002c6:	18c0      	adds	r0, r0, r3
 80002c8:	eb51 71e3 	adcs.w	r1, r1, r3, asr #31
 80002cc:	f001 4500 	and.w	r5, r1, #2147483648	; 0x80000000
 80002d0:	d507      	bpl.n	80002e2 <__adddf3+0xe6>
 80002d2:	f04f 0e00 	mov.w	lr, #0
 80002d6:	f1dc 0c00 	rsbs	ip, ip, #0
 80002da:	eb7e 0000 	sbcs.w	r0, lr, r0
 80002de:	eb6e 0101 	sbc.w	r1, lr, r1
 80002e2:	f5b1 1f80 	cmp.w	r1, #1048576	; 0x100000
 80002e6:	d31b      	bcc.n	8000320 <__adddf3+0x124>
 80002e8:	f5b1 1f00 	cmp.w	r1, #2097152	; 0x200000
 80002ec:	d30c      	bcc.n	8000308 <__adddf3+0x10c>
 80002ee:	0849      	lsrs	r1, r1, #1
 80002f0:	ea5f 0030 	movs.w	r0, r0, rrx
 80002f4:	ea4f 0c3c 	mov.w	ip, ip, rrx
 80002f8:	f104 0401 	add.w	r4, r4, #1
 80002fc:	ea4f 5244 	mov.w	r2, r4, lsl #21
 8000300:	f512 0f80 	cmn.w	r2, #4194304	; 0x400000
 8000304:	f080 809a 	bcs.w	800043c <__adddf3+0x240>
 8000308:	f1bc 4f00 	cmp.w	ip, #2147483648	; 0x80000000
 800030c:	bf08      	it	eq
 800030e:	ea5f 0c50 	movseq.w	ip, r0, lsr #1
 8000312:	f150 0000 	adcs.w	r0, r0, #0
 8000316:	eb41 5104 	adc.w	r1, r1, r4, lsl #20
 800031a:	ea41 0105 	orr.w	r1, r1, r5
 800031e:	bd30      	pop	{r4, r5, pc}
 8000320:	ea5f 0c4c 	movs.w	ip, ip, lsl #1
 8000324:	4140      	adcs	r0, r0
 8000326:	eb41 0101 	adc.w	r1, r1, r1
 800032a:	f411 1f80 	tst.w	r1, #1048576	; 0x100000
 800032e:	f1a4 0401 	sub.w	r4, r4, #1
 8000332:	d1e9      	bne.n	8000308 <__adddf3+0x10c>
 8000334:	f091 0f00 	teq	r1, #0
 8000338:	bf04      	itt	eq
 800033a:	4601      	moveq	r1, r0
 800033c:	2000      	moveq	r0, #0
 800033e:	fab1 f381 	clz	r3, r1
 8000342:	bf08      	it	eq
 8000344:	3320      	addeq	r3, #32
 8000346:	f1a3 030b 	sub.w	r3, r3, #11
 800034a:	f1b3 0220 	subs.w	r2, r3, #32
 800034e:	da0c      	bge.n	800036a <__adddf3+0x16e>
 8000350:	320c      	adds	r2, #12
 8000352:	dd08      	ble.n	8000366 <__adddf3+0x16a>
 8000354:	f102 0c14 	add.w	ip, r2, #20
 8000358:	f1c2 020c 	rsb	r2, r2, #12
 800035c:	fa01 f00c 	lsl.w	r0, r1, ip
 8000360:	fa21 f102 	lsr.w	r1, r1, r2
 8000364:	e00c      	b.n	8000380 <__adddf3+0x184>
 8000366:	f102 0214 	add.w	r2, r2, #20
 800036a:	bfd8      	it	le
 800036c:	f1c2 0c20 	rsble	ip, r2, #32
 8000370:	fa01 f102 	lsl.w	r1, r1, r2
 8000374:	fa20 fc0c 	lsr.w	ip, r0, ip
 8000378:	bfdc      	itt	le
 800037a:	ea41 010c 	orrle.w	r1, r1, ip
 800037e:	4090      	lslle	r0, r2
 8000380:	1ae4      	subs	r4, r4, r3
 8000382:	bfa2      	ittt	ge
 8000384:	eb01 5104 	addge.w	r1, r1, r4, lsl #20
 8000388:	4329      	orrge	r1, r5
 800038a:	bd30      	popge	{r4, r5, pc}
 800038c:	ea6f 0404 	mvn.w	r4, r4
 8000390:	3c1f      	subs	r4, #31
 8000392:	da1c      	bge.n	80003ce <__adddf3+0x1d2>
 8000394:	340c      	adds	r4, #12
 8000396:	dc0e      	bgt.n	80003b6 <__adddf3+0x1ba>
 8000398:	f104 0414 	add.w	r4, r4, #20
 800039c:	f1c4 0220 	rsb	r2, r4, #32
 80003a0:	fa20 f004 	lsr.w	r0, r0, r4
 80003a4:	fa01 f302 	lsl.w	r3, r1, r2
 80003a8:	ea40 0003 	orr.w	r0, r0, r3
 80003ac:	fa21 f304 	lsr.w	r3, r1, r4
 80003b0:	ea45 0103 	orr.w	r1, r5, r3
 80003b4:	bd30      	pop	{r4, r5, pc}
 80003b6:	f1c4 040c 	rsb	r4, r4, #12
 80003ba:	f1c4 0220 	rsb	r2, r4, #32
 80003be:	fa20 f002 	lsr.w	r0, r0, r2
 80003c2:	fa01 f304 	lsl.w	r3, r1, r4
 80003c6:	ea40 0003 	orr.w	r0, r0, r3
 80003ca:	4629      	mov	r1, r5
 80003cc:	bd30      	pop	{r4, r5, pc}
 80003ce:	fa21 f004 	lsr.w	r0, r1, r4
 80003d2:	4629      	mov	r1, r5
 80003d4:	bd30      	pop	{r4, r5, pc}
 80003d6:	f094 0f00 	teq	r4, #0
 80003da:	f483 1380 	eor.w	r3, r3, #1048576	; 0x100000
 80003de:	bf06      	itte	eq
 80003e0:	f481 1180 	eoreq.w	r1, r1, #1048576	; 0x100000
 80003e4:	3401      	addeq	r4, #1
 80003e6:	3d01      	subne	r5, #1
 80003e8:	e74e      	b.n	8000288 <__adddf3+0x8c>
 80003ea:	ea7f 5c64 	mvns.w	ip, r4, asr #21
 80003ee:	bf18      	it	ne
 80003f0:	ea7f 5c65 	mvnsne.w	ip, r5, asr #21
 80003f4:	d029      	beq.n	800044a <__adddf3+0x24e>
 80003f6:	ea94 0f05 	teq	r4, r5
 80003fa:	bf08      	it	eq
 80003fc:	ea90 0f02 	teqeq	r0, r2
 8000400:	d005      	beq.n	800040e <__adddf3+0x212>
 8000402:	ea54 0c00 	orrs.w	ip, r4, r0
 8000406:	bf04      	itt	eq
 8000408:	4619      	moveq	r1, r3
 800040a:	4610      	moveq	r0, r2
 800040c:	bd30      	pop	{r4, r5, pc}
 800040e:	ea91 0f03 	teq	r1, r3
 8000412:	bf1e      	ittt	ne
 8000414:	2100      	movne	r1, #0
 8000416:	2000      	movne	r0, #0
 8000418:	bd30      	popne	{r4, r5, pc}
 800041a:	ea5f 5c54 	movs.w	ip, r4, lsr #21
 800041e:	d105      	bne.n	800042c <__adddf3+0x230>
 8000420:	0040      	lsls	r0, r0, #1
 8000422:	4149      	adcs	r1, r1
 8000424:	bf28      	it	cs
 8000426:	f041 4100 	orrcs.w	r1, r1, #2147483648	; 0x80000000
 800042a:	bd30      	pop	{r4, r5, pc}
 800042c:	f514 0480 	adds.w	r4, r4, #4194304	; 0x400000
 8000430:	bf3c      	itt	cc
 8000432:	f501 1180 	addcc.w	r1, r1, #1048576	; 0x100000
 8000436:	bd30      	popcc	{r4, r5, pc}
 8000438:	f001 4500 	and.w	r5, r1, #2147483648	; 0x80000000
 800043c:	f045 41fe 	orr.w	r1, r5, #2130706432	; 0x7f000000
 8000440:	f441 0170 	orr.w	r1, r1, #15728640	; 0xf00000
 8000444:	f04f 0000 	mov.w	r0, #0
 8000448:	bd30      	pop	{r4, r5, pc}
 800044a:	ea7f 5c64 	mvns.w	ip, r4, asr #21
 800044e:	bf1a      	itte	ne
 8000450:	4619      	movne	r1, r3
 8000452:	4610      	movne	r0, r2
 8000454:	ea7f 5c65 	mvnseq.w	ip, r5, asr #21
 8000458:	bf1c      	itt	ne
 800045a:	460b      	movne	r3, r1
 800045c:	4602      	movne	r2, r0
 800045e:	ea50 3401 	orrs.w	r4, r0, r1, lsl #12
 8000462:	bf06      	itte	eq
 8000464:	ea52 3503 	orrseq.w	r5, r2, r3, lsl #12
 8000468:	ea91 0f03 	teqeq	r1, r3
 800046c:	f441 2100 	orrne.w	r1, r1, #524288	; 0x80000
 8000470:	bd30      	pop	{r4, r5, pc}
 8000472:	bf00      	nop

08000474 <__aeabi_ui2d>:
 8000474:	f090 0f00 	teq	r0, #0
 8000478:	bf04      	itt	eq
 800047a:	2100      	moveq	r1, #0
 800047c:	4770      	bxeq	lr
 800047e:	b530      	push	{r4, r5, lr}
 8000480:	f44f 6480 	mov.w	r4, #1024	; 0x400
 8000484:	f104 0432 	add.w	r4, r4, #50	; 0x32
 8000488:	f04f 0500 	mov.w	r5, #0
 800048c:	f04f 0100 	mov.w	r1, #0
 8000490:	e750      	b.n	8000334 <__adddf3+0x138>
 8000492:	bf00      	nop

08000494 <__aeabi_i2d>:
 8000494:	f090 0f00 	teq	r0, #0
 8000498:	bf04      	itt	eq
 800049a:	2100      	moveq	r1, #0
 800049c:	4770      	bxeq	lr
 800049e:	b530      	push	{r4, r5, lr}
 80004a0:	f44f 6480 	mov.w	r4, #1024	; 0x400
 80004a4:	f104 0432 	add.w	r4, r4, #50	; 0x32
 80004a8:	f010 4500 	ands.w	r5, r0, #2147483648	; 0x80000000
 80004ac:	bf48      	it	mi
 80004ae:	4240      	negmi	r0, r0
 80004b0:	f04f 0100 	mov.w	r1, #0
 80004b4:	e73e      	b.n	8000334 <__adddf3+0x138>
 80004b6:	bf00      	nop

080004b8 <__aeabi_f2d>:
 80004b8:	0042      	lsls	r2, r0, #1
 80004ba:	ea4f 01e2 	mov.w	r1, r2, asr #3
 80004be:	ea4f 0131 	mov.w	r1, r1, rrx
 80004c2:	ea4f 7002 	mov.w	r0, r2, lsl #28
 80004c6:	bf1f      	itttt	ne
 80004c8:	f012 437f 	andsne.w	r3, r2, #4278190080	; 0xff000000
 80004cc:	f093 4f7f 	teqne	r3, #4278190080	; 0xff000000
 80004d0:	f081 5160 	eorne.w	r1, r1, #939524096	; 0x38000000
 80004d4:	4770      	bxne	lr
 80004d6:	f092 0f00 	teq	r2, #0
 80004da:	bf14      	ite	ne
 80004dc:	f093 4f7f 	teqne	r3, #4278190080	; 0xff000000
 80004e0:	4770      	bxeq	lr
 80004e2:	b530      	push	{r4, r5, lr}
 80004e4:	f44f 7460 	mov.w	r4, #896	; 0x380
 80004e8:	f001 4500 	and.w	r5, r1, #2147483648	; 0x80000000
 80004ec:	f021 4100 	bic.w	r1, r1, #2147483648	; 0x80000000
 80004f0:	e720      	b.n	8000334 <__adddf3+0x138>
 80004f2:	bf00      	nop

080004f4 <__aeabi_ul2d>:
 80004f4:	ea50 0201 	orrs.w	r2, r0, r1
 80004f8:	bf08      	it	eq
 80004fa:	4770      	bxeq	lr
 80004fc:	b530      	push	{r4, r5, lr}
 80004fe:	f04f 0500 	mov.w	r5, #0
 8000502:	e00a      	b.n	800051a <__aeabi_l2d+0x16>

08000504 <__aeabi_l2d>:
 8000504:	ea50 0201 	orrs.w	r2, r0, r1
 8000508:	bf08      	it	eq
 800050a:	4770      	bxeq	lr
 800050c:	b530      	push	{r4, r5, lr}
 800050e:	f011 4500 	ands.w	r5, r1, #2147483648	; 0x80000000
 8000512:	d502      	bpl.n	800051a <__aeabi_l2d+0x16>
 8000514:	4240      	negs	r0, r0
 8000516:	eb61 0141 	sbc.w	r1, r1, r1, lsl #1
 800051a:	f44f 6480 	mov.w	r4, #1024	; 0x400
 800051e:	f104 0432 	add.w	r4, r4, #50	; 0x32
 8000522:	ea5f 5c91 	movs.w	ip, r1, lsr #22
 8000526:	f43f aedc 	beq.w	80002e2 <__adddf3+0xe6>
 800052a:	f04f 0203 	mov.w	r2, #3
 800052e:	ea5f 0cdc 	movs.w	ip, ip, lsr #3
 8000532:	bf18      	it	ne
 8000534:	3203      	addne	r2, #3
 8000536:	ea5f 0cdc 	movs.w	ip, ip, lsr #3
 800053a:	bf18      	it	ne
 800053c:	3203      	addne	r2, #3
 800053e:	eb02 02dc 	add.w	r2, r2, ip, lsr #3
 8000542:	f1c2 0320 	rsb	r3, r2, #32
 8000546:	fa00 fc03 	lsl.w	ip, r0, r3
 800054a:	fa20 f002 	lsr.w	r0, r0, r2
 800054e:	fa01 fe03 	lsl.w	lr, r1, r3
 8000552:	ea40 000e 	orr.w	r0, r0, lr
 8000556:	fa21 f102 	lsr.w	r1, r1, r2
 800055a:	4414      	add	r4, r2
 800055c:	e6c1      	b.n	80002e2 <__adddf3+0xe6>
 800055e:	bf00      	nop

08000560 <__aeabi_dmul>:
 8000560:	b570      	push	{r4, r5, r6, lr}
 8000562:	f04f 0cff 	mov.w	ip, #255	; 0xff
 8000566:	f44c 6ce0 	orr.w	ip, ip, #1792	; 0x700
 800056a:	ea1c 5411 	ands.w	r4, ip, r1, lsr #20
 800056e:	bf1d      	ittte	ne
 8000570:	ea1c 5513 	andsne.w	r5, ip, r3, lsr #20
 8000574:	ea94 0f0c 	teqne	r4, ip
 8000578:	ea95 0f0c 	teqne	r5, ip
 800057c:	f000 f8de 	bleq	800073c <__aeabi_dmul+0x1dc>
 8000580:	442c      	add	r4, r5
 8000582:	ea81 0603 	eor.w	r6, r1, r3
 8000586:	ea21 514c 	bic.w	r1, r1, ip, lsl #21
 800058a:	ea23 534c 	bic.w	r3, r3, ip, lsl #21
 800058e:	ea50 3501 	orrs.w	r5, r0, r1, lsl #12
 8000592:	bf18      	it	ne
 8000594:	ea52 3503 	orrsne.w	r5, r2, r3, lsl #12
 8000598:	f441 1180 	orr.w	r1, r1, #1048576	; 0x100000
 800059c:	f443 1380 	orr.w	r3, r3, #1048576	; 0x100000
 80005a0:	d038      	beq.n	8000614 <__aeabi_dmul+0xb4>
 80005a2:	fba0 ce02 	umull	ip, lr, r0, r2
 80005a6:	f04f 0500 	mov.w	r5, #0
 80005aa:	fbe1 e502 	umlal	lr, r5, r1, r2
 80005ae:	f006 4200 	and.w	r2, r6, #2147483648	; 0x80000000
 80005b2:	fbe0 e503 	umlal	lr, r5, r0, r3
 80005b6:	f04f 0600 	mov.w	r6, #0
 80005ba:	fbe1 5603 	umlal	r5, r6, r1, r3
 80005be:	f09c 0f00 	teq	ip, #0
 80005c2:	bf18      	it	ne
 80005c4:	f04e 0e01 	orrne.w	lr, lr, #1
 80005c8:	f1a4 04ff 	sub.w	r4, r4, #255	; 0xff
 80005cc:	f5b6 7f00 	cmp.w	r6, #512	; 0x200
 80005d0:	f564 7440 	sbc.w	r4, r4, #768	; 0x300
 80005d4:	d204      	bcs.n	80005e0 <__aeabi_dmul+0x80>
 80005d6:	ea5f 0e4e 	movs.w	lr, lr, lsl #1
 80005da:	416d      	adcs	r5, r5
 80005dc:	eb46 0606 	adc.w	r6, r6, r6
 80005e0:	ea42 21c6 	orr.w	r1, r2, r6, lsl #11
 80005e4:	ea41 5155 	orr.w	r1, r1, r5, lsr #21
 80005e8:	ea4f 20c5 	mov.w	r0, r5, lsl #11
 80005ec:	ea40 505e 	orr.w	r0, r0, lr, lsr #21
 80005f0:	ea4f 2ece 	mov.w	lr, lr, lsl #11
 80005f4:	f1b4 0cfd 	subs.w	ip, r4, #253	; 0xfd
 80005f8:	bf88      	it	hi
 80005fa:	f5bc 6fe0 	cmphi.w	ip, #1792	; 0x700
 80005fe:	d81e      	bhi.n	800063e <__aeabi_dmul+0xde>
 8000600:	f1be 4f00 	cmp.w	lr, #2147483648	; 0x80000000
 8000604:	bf08      	it	eq
 8000606:	ea5f 0e50 	movseq.w	lr, r0, lsr #1
 800060a:	f150 0000 	adcs.w	r0, r0, #0
 800060e:	eb41 5104 	adc.w	r1, r1, r4, lsl #20
 8000612:	bd70      	pop	{r4, r5, r6, pc}
 8000614:	f006 4600 	and.w	r6, r6, #2147483648	; 0x80000000
 8000618:	ea46 0101 	orr.w	r1, r6, r1
 800061c:	ea40 0002 	orr.w	r0, r0, r2
 8000620:	ea81 0103 	eor.w	r1, r1, r3
 8000624:	ebb4 045c 	subs.w	r4, r4, ip, lsr #1
 8000628:	bfc2      	ittt	gt
 800062a:	ebd4 050c 	rsbsgt	r5, r4, ip
 800062e:	ea41 5104 	orrgt.w	r1, r1, r4, lsl #20
 8000632:	bd70      	popgt	{r4, r5, r6, pc}
 8000634:	f441 1180 	orr.w	r1, r1, #1048576	; 0x100000
 8000638:	f04f 0e00 	mov.w	lr, #0
 800063c:	3c01      	subs	r4, #1
 800063e:	f300 80ab 	bgt.w	8000798 <__aeabi_dmul+0x238>
 8000642:	f114 0f36 	cmn.w	r4, #54	; 0x36
 8000646:	bfde      	ittt	le
 8000648:	2000      	movle	r0, #0
 800064a:	f001 4100 	andle.w	r1, r1, #2147483648	; 0x80000000
 800064e:	bd70      	pople	{r4, r5, r6, pc}
 8000650:	f1c4 0400 	rsb	r4, r4, #0
 8000654:	3c20      	subs	r4, #32
 8000656:	da35      	bge.n	80006c4 <__aeabi_dmul+0x164>
 8000658:	340c      	adds	r4, #12
 800065a:	dc1b      	bgt.n	8000694 <__aeabi_dmul+0x134>
 800065c:	f104 0414 	add.w	r4, r4, #20
 8000660:	f1c4 0520 	rsb	r5, r4, #32
 8000664:	fa00 f305 	lsl.w	r3, r0, r5
 8000668:	fa20 f004 	lsr.w	r0, r0, r4
 800066c:	fa01 f205 	lsl.w	r2, r1, r5
 8000670:	ea40 0002 	orr.w	r0, r0, r2
 8000674:	f001 4200 	and.w	r2, r1, #2147483648	; 0x80000000
 8000678:	f021 4100 	bic.w	r1, r1, #2147483648	; 0x80000000
 800067c:	eb10 70d3 	adds.w	r0, r0, r3, lsr #31
 8000680:	fa21 f604 	lsr.w	r6, r1, r4
 8000684:	eb42 0106 	adc.w	r1, r2, r6
 8000688:	ea5e 0e43 	orrs.w	lr, lr, r3, lsl #1
 800068c:	bf08      	it	eq
 800068e:	ea20 70d3 	biceq.w	r0, r0, r3, lsr #31
 8000692:	bd70      	pop	{r4, r5, r6, pc}
 8000694:	f1c4 040c 	rsb	r4, r4, #12
 8000698:	f1c4 0520 	rsb	r5, r4, #32
 800069c:	fa00 f304 	lsl.w	r3, r0, r4
 80006a0:	fa20 f005 	lsr.w	r0, r0, r5
 80006a4:	fa01 f204 	lsl.w	r2, r1, r4
 80006a8:	ea40 0002 	orr.w	r0, r0, r2
 80006ac:	f001 4100 	and.w	r1, r1, #2147483648	; 0x80000000
 80006b0:	eb10 70d3 	adds.w	r0, r0, r3, lsr #31
 80006b4:	f141 0100 	adc.w	r1, r1, #0
 80006b8:	ea5e 0e43 	orrs.w	lr, lr, r3, lsl #1
 80006bc:	bf08      	it	eq
 80006be:	ea20 70d3 	biceq.w	r0, r0, r3, lsr #31
 80006c2:	bd70      	pop	{r4, r5, r6, pc}
 80006c4:	f1c4 0520 	rsb	r5, r4, #32
 80006c8:	fa00 f205 	lsl.w	r2, r0, r5
 80006cc:	ea4e 0e02 	orr.w	lr, lr, r2
 80006d0:	fa20 f304 	lsr.w	r3, r0, r4
 80006d4:	fa01 f205 	lsl.w	r2, r1, r5
 80006d8:	ea43 0302 	orr.w	r3, r3, r2
 80006dc:	fa21 f004 	lsr.w	r0, r1, r4
 80006e0:	f001 4100 	and.w	r1, r1, #2147483648	; 0x80000000
 80006e4:	fa21 f204 	lsr.w	r2, r1, r4
 80006e8:	ea20 0002 	bic.w	r0, r0, r2
 80006ec:	eb00 70d3 	add.w	r0, r0, r3, lsr #31
 80006f0:	ea5e 0e43 	orrs.w	lr, lr, r3, lsl #1
 80006f4:	bf08      	it	eq
 80006f6:	ea20 70d3 	biceq.w	r0, r0, r3, lsr #31
 80006fa:	bd70      	pop	{r4, r5, r6, pc}
 80006fc:	f094 0f00 	teq	r4, #0
 8000700:	d10f      	bne.n	8000722 <__aeabi_dmul+0x1c2>
 8000702:	f001 4600 	and.w	r6, r1, #2147483648	; 0x80000000
 8000706:	0040      	lsls	r0, r0, #1
 8000708:	eb41 0101 	adc.w	r1, r1, r1
 800070c:	f411 1f80 	tst.w	r1, #1048576	; 0x100000
 8000710:	bf08      	it	eq
 8000712:	3c01      	subeq	r4, #1
 8000714:	d0f7      	beq.n	8000706 <__aeabi_dmul+0x1a6>
 8000716:	ea41 0106 	orr.w	r1, r1, r6
 800071a:	f095 0f00 	teq	r5, #0
 800071e:	bf18      	it	ne
 8000720:	4770      	bxne	lr
 8000722:	f003 4600 	and.w	r6, r3, #2147483648	; 0x80000000
 8000726:	0052      	lsls	r2, r2, #1
 8000728:	eb43 0303 	adc.w	r3, r3, r3
 800072c:	f413 1f80 	tst.w	r3, #1048576	; 0x100000
 8000730:	bf08      	it	eq
 8000732:	3d01      	subeq	r5, #1
 8000734:	d0f7      	beq.n	8000726 <__aeabi_dmul+0x1c6>
 8000736:	ea43 0306 	orr.w	r3, r3, r6
 800073a:	4770      	bx	lr
 800073c:	ea94 0f0c 	teq	r4, ip
 8000740:	ea0c 5513 	and.w	r5, ip, r3, lsr #20
 8000744:	bf18      	it	ne
 8000746:	ea95 0f0c 	teqne	r5, ip
 800074a:	d00c      	beq.n	8000766 <__aeabi_dmul+0x206>
 800074c:	ea50 0641 	orrs.w	r6, r0, r1, lsl #1
 8000750:	bf18      	it	ne
 8000752:	ea52 0643 	orrsne.w	r6, r2, r3, lsl #1
 8000756:	d1d1      	bne.n	80006fc <__aeabi_dmul+0x19c>
 8000758:	ea81 0103 	eor.w	r1, r1, r3
 800075c:	f001 4100 	and.w	r1, r1, #2147483648	; 0x80000000
 8000760:	f04f 0000 	mov.w	r0, #0
 8000764:	bd70      	pop	{r4, r5, r6, pc}
 8000766:	ea50 0641 	orrs.w	r6, r0, r1, lsl #1
 800076a:	bf06      	itte	eq
 800076c:	4610      	moveq	r0, r2
 800076e:	4619      	moveq	r1, r3
 8000770:	ea52 0643 	orrsne.w	r6, r2, r3, lsl #1
 8000774:	d019      	beq.n	80007aa <__aeabi_dmul+0x24a>
 8000776:	ea94 0f0c 	teq	r4, ip
 800077a:	d102      	bne.n	8000782 <__aeabi_dmul+0x222>
 800077c:	ea50 3601 	orrs.w	r6, r0, r1, lsl #12
 8000780:	d113      	bne.n	80007aa <__aeabi_dmul+0x24a>
 8000782:	ea95 0f0c 	teq	r5, ip
 8000786:	d105      	bne.n	8000794 <__aeabi_dmul+0x234>
 8000788:	ea52 3603 	orrs.w	r6, r2, r3, lsl #12
 800078c:	bf1c      	itt	ne
 800078e:	4610      	movne	r0, r2
 8000790:	4619      	movne	r1, r3
 8000792:	d10a      	bne.n	80007aa <__aeabi_dmul+0x24a>
 8000794:	ea81 0103 	eor.w	r1, r1, r3
 8000798:	f001 4100 	and.w	r1, r1, #2147483648	; 0x80000000
 800079c:	f041 41fe 	orr.w	r1, r1, #2130706432	; 0x7f000000
 80007a0:	f441 0170 	orr.w	r1, r1, #15728640	; 0xf00000
 80007a4:	f04f 0000 	mov.w	r0, #0
 80007a8:	bd70      	pop	{r4, r5, r6, pc}
 80007aa:	f041 41fe 	orr.w	r1, r1, #2130706432	; 0x7f000000
 80007ae:	f441 0178 	orr.w	r1, r1, #16252928	; 0xf80000
 80007b2:	bd70      	pop	{r4, r5, r6, pc}

080007b4 <__aeabi_ddiv>:
 80007b4:	b570      	push	{r4, r5, r6, lr}
 80007b6:	f04f 0cff 	mov.w	ip, #255	; 0xff
 80007ba:	f44c 6ce0 	orr.w	ip, ip, #1792	; 0x700
 80007be:	ea1c 5411 	ands.w	r4, ip, r1, lsr #20
 80007c2:	bf1d      	ittte	ne
 80007c4:	ea1c 5513 	andsne.w	r5, ip, r3, lsr #20
 80007c8:	ea94 0f0c 	teqne	r4, ip
 80007cc:	ea95 0f0c 	teqne	r5, ip
 80007d0:	f000 f8a7 	bleq	8000922 <__aeabi_ddiv+0x16e>
 80007d4:	eba4 0405 	sub.w	r4, r4, r5
 80007d8:	ea81 0e03 	eor.w	lr, r1, r3
 80007dc:	ea52 3503 	orrs.w	r5, r2, r3, lsl #12
 80007e0:	ea4f 3101 	mov.w	r1, r1, lsl #12
 80007e4:	f000 8088 	beq.w	80008f8 <__aeabi_ddiv+0x144>
 80007e8:	ea4f 3303 	mov.w	r3, r3, lsl #12
 80007ec:	f04f 5580 	mov.w	r5, #268435456	; 0x10000000
 80007f0:	ea45 1313 	orr.w	r3, r5, r3, lsr #4
 80007f4:	ea43 6312 	orr.w	r3, r3, r2, lsr #24
 80007f8:	ea4f 2202 	mov.w	r2, r2, lsl #8
 80007fc:	ea45 1511 	orr.w	r5, r5, r1, lsr #4
 8000800:	ea45 6510 	orr.w	r5, r5, r0, lsr #24
 8000804:	ea4f 2600 	mov.w	r6, r0, lsl #8
 8000808:	f00e 4100 	and.w	r1, lr, #2147483648	; 0x80000000
 800080c:	429d      	cmp	r5, r3
 800080e:	bf08      	it	eq
 8000810:	4296      	cmpeq	r6, r2
 8000812:	f144 04fd 	adc.w	r4, r4, #253	; 0xfd
 8000816:	f504 7440 	add.w	r4, r4, #768	; 0x300
 800081a:	d202      	bcs.n	8000822 <__aeabi_ddiv+0x6e>
 800081c:	085b      	lsrs	r3, r3, #1
 800081e:	ea4f 0232 	mov.w	r2, r2, rrx
 8000822:	1ab6      	subs	r6, r6, r2
 8000824:	eb65 0503 	sbc.w	r5, r5, r3
 8000828:	085b      	lsrs	r3, r3, #1
 800082a:	ea4f 0232 	mov.w	r2, r2, rrx
 800082e:	f44f 1080 	mov.w	r0, #1048576	; 0x100000
 8000832:	f44f 2c00 	mov.w	ip, #524288	; 0x80000
 8000836:	ebb6 0e02 	subs.w	lr, r6, r2
 800083a:	eb75 0e03 	sbcs.w	lr, r5, r3
 800083e:	bf22      	ittt	cs
 8000840:	1ab6      	subcs	r6, r6, r2
 8000842:	4675      	movcs	r5, lr
 8000844:	ea40 000c 	orrcs.w	r0, r0, ip
 8000848:	085b      	lsrs	r3, r3, #1
 800084a:	ea4f 0232 	mov.w	r2, r2, rrx
 800084e:	ebb6 0e02 	subs.w	lr, r6, r2
 8000852:	eb75 0e03 	sbcs.w	lr, r5, r3
 8000856:	bf22      	ittt	cs
 8000858:	1ab6      	subcs	r6, r6, r2
 800085a:	4675      	movcs	r5, lr
 800085c:	ea40 005c 	orrcs.w	r0, r0, ip, lsr #1
 8000860:	085b      	lsrs	r3, r3, #1
 8000862:	ea4f 0232 	mov.w	r2, r2, rrx
 8000866:	ebb6 0e02 	subs.w	lr, r6, r2
 800086a:	eb75 0e03 	sbcs.w	lr, r5, r3
 800086e:	bf22      	ittt	cs
 8000870:	1ab6      	subcs	r6, r6, r2
 8000872:	4675      	movcs	r5, lr
 8000874:	ea40 009c 	orrcs.w	r0, r0, ip, lsr #2
 8000878:	085b      	lsrs	r3, r3, #1
 800087a:	ea4f 0232 	mov.w	r2, r2, rrx
 800087e:	ebb6 0e02 	subs.w	lr, r6, r2
 8000882:	eb75 0e03 	sbcs.w	lr, r5, r3
 8000886:	bf22      	ittt	cs
 8000888:	1ab6      	subcs	r6, r6, r2
 800088a:	4675      	movcs	r5, lr
 800088c:	ea40 00dc 	orrcs.w	r0, r0, ip, lsr #3
 8000890:	ea55 0e06 	orrs.w	lr, r5, r6
 8000894:	d018      	beq.n	80008c8 <__aeabi_ddiv+0x114>
 8000896:	ea4f 1505 	mov.w	r5, r5, lsl #4
 800089a:	ea45 7516 	orr.w	r5, r5, r6, lsr #28
 800089e:	ea4f 1606 	mov.w	r6, r6, lsl #4
 80008a2:	ea4f 03c3 	mov.w	r3, r3, lsl #3
 80008a6:	ea43 7352 	orr.w	r3, r3, r2, lsr #29
 80008aa:	ea4f 02c2 	mov.w	r2, r2, lsl #3
 80008ae:	ea5f 1c1c 	movs.w	ip, ip, lsr #4
 80008b2:	d1c0      	bne.n	8000836 <__aeabi_ddiv+0x82>
 80008b4:	f411 1f80 	tst.w	r1, #1048576	; 0x100000
 80008b8:	d10b      	bne.n	80008d2 <__aeabi_ddiv+0x11e>
 80008ba:	ea41 0100 	orr.w	r1, r1, r0
 80008be:	f04f 0000 	mov.w	r0, #0
 80008c2:	f04f 4c00 	mov.w	ip, #2147483648	; 0x80000000
 80008c6:	e7b6      	b.n	8000836 <__aeabi_ddiv+0x82>
 80008c8:	f411 1f80 	tst.w	r1, #1048576	; 0x100000
 80008cc:	bf04      	itt	eq
 80008ce:	4301      	orreq	r1, r0
 80008d0:	2000      	moveq	r0, #0
 80008d2:	f1b4 0cfd 	subs.w	ip, r4, #253	; 0xfd
 80008d6:	bf88      	it	hi
 80008d8:	f5bc 6fe0 	cmphi.w	ip, #1792	; 0x700
 80008dc:	f63f aeaf 	bhi.w	800063e <__aeabi_dmul+0xde>
 80008e0:	ebb5 0c03 	subs.w	ip, r5, r3
 80008e4:	bf04      	itt	eq
 80008e6:	ebb6 0c02 	subseq.w	ip, r6, r2
 80008ea:	ea5f 0c50 	movseq.w	ip, r0, lsr #1
 80008ee:	f150 0000 	adcs.w	r0, r0, #0
 80008f2:	eb41 5104 	adc.w	r1, r1, r4, lsl #20
 80008f6:	bd70      	pop	{r4, r5, r6, pc}
 80008f8:	f00e 4e00 	and.w	lr, lr, #2147483648	; 0x80000000
 80008fc:	ea4e 3111 	orr.w	r1, lr, r1, lsr #12
 8000900:	eb14 045c 	adds.w	r4, r4, ip, lsr #1
 8000904:	bfc2      	ittt	gt
 8000906:	ebd4 050c 	rsbsgt	r5, r4, ip
 800090a:	ea41 5104 	orrgt.w	r1, r1, r4, lsl #20
 800090e:	bd70      	popgt	{r4, r5, r6, pc}
 8000910:	f441 1180 	orr.w	r1, r1, #1048576	; 0x100000
 8000914:	f04f 0e00 	mov.w	lr, #0
 8000918:	3c01      	subs	r4, #1
 800091a:	e690      	b.n	800063e <__aeabi_dmul+0xde>
 800091c:	ea45 0e06 	orr.w	lr, r5, r6
 8000920:	e68d      	b.n	800063e <__aeabi_dmul+0xde>
 8000922:	ea0c 5513 	and.w	r5, ip, r3, lsr #20
 8000926:	ea94 0f0c 	teq	r4, ip
 800092a:	bf08      	it	eq
 800092c:	ea95 0f0c 	teqeq	r5, ip
 8000930:	f43f af3b 	beq.w	80007aa <__aeabi_dmul+0x24a>
 8000934:	ea94 0f0c 	teq	r4, ip
 8000938:	d10a      	bne.n	8000950 <__aeabi_ddiv+0x19c>
 800093a:	ea50 3401 	orrs.w	r4, r0, r1, lsl #12
 800093e:	f47f af34 	bne.w	80007aa <__aeabi_dmul+0x24a>
 8000942:	ea95 0f0c 	teq	r5, ip
 8000946:	f47f af25 	bne.w	8000794 <__aeabi_dmul+0x234>
 800094a:	4610      	mov	r0, r2
 800094c:	4619      	mov	r1, r3
 800094e:	e72c      	b.n	80007aa <__aeabi_dmul+0x24a>
 8000950:	ea95 0f0c 	teq	r5, ip
 8000954:	d106      	bne.n	8000964 <__aeabi_ddiv+0x1b0>
 8000956:	ea52 3503 	orrs.w	r5, r2, r3, lsl #12
 800095a:	f43f aefd 	beq.w	8000758 <__aeabi_dmul+0x1f8>
 800095e:	4610      	mov	r0, r2
 8000960:	4619      	mov	r1, r3
 8000962:	e722      	b.n	80007aa <__aeabi_dmul+0x24a>
 8000964:	ea50 0641 	orrs.w	r6, r0, r1, lsl #1
 8000968:	bf18      	it	ne
 800096a:	ea52 0643 	orrsne.w	r6, r2, r3, lsl #1
 800096e:	f47f aec5 	bne.w	80006fc <__aeabi_dmul+0x19c>
 8000972:	ea50 0441 	orrs.w	r4, r0, r1, lsl #1
 8000976:	f47f af0d 	bne.w	8000794 <__aeabi_dmul+0x234>
 800097a:	ea52 0543 	orrs.w	r5, r2, r3, lsl #1
 800097e:	f47f aeeb 	bne.w	8000758 <__aeabi_dmul+0x1f8>
 8000982:	e712      	b.n	80007aa <__aeabi_dmul+0x24a>

08000984 <__gedf2>:
 8000984:	f04f 3cff 	mov.w	ip, #4294967295
 8000988:	e006      	b.n	8000998 <__cmpdf2+0x4>
 800098a:	bf00      	nop

0800098c <__ledf2>:
 800098c:	f04f 0c01 	mov.w	ip, #1
 8000990:	e002      	b.n	8000998 <__cmpdf2+0x4>
 8000992:	bf00      	nop

08000994 <__cmpdf2>:
 8000994:	f04f 0c01 	mov.w	ip, #1
 8000998:	f84d cd04 	str.w	ip, [sp, #-4]!
 800099c:	ea4f 0c41 	mov.w	ip, r1, lsl #1
 80009a0:	ea7f 5c6c 	mvns.w	ip, ip, asr #21
 80009a4:	ea4f 0c43 	mov.w	ip, r3, lsl #1
 80009a8:	bf18      	it	ne
 80009aa:	ea7f 5c6c 	mvnsne.w	ip, ip, asr #21
 80009ae:	d01b      	beq.n	80009e8 <__cmpdf2+0x54>
 80009b0:	b001      	add	sp, #4
 80009b2:	ea50 0c41 	orrs.w	ip, r0, r1, lsl #1
 80009b6:	bf0c      	ite	eq
 80009b8:	ea52 0c43 	orrseq.w	ip, r2, r3, lsl #1
 80009bc:	ea91 0f03 	teqne	r1, r3
 80009c0:	bf02      	ittt	eq
 80009c2:	ea90 0f02 	teqeq	r0, r2
 80009c6:	2000      	moveq	r0, #0
 80009c8:	4770      	bxeq	lr
 80009ca:	f110 0f00 	cmn.w	r0, #0
 80009ce:	ea91 0f03 	teq	r1, r3
 80009d2:	bf58      	it	pl
 80009d4:	4299      	cmppl	r1, r3
 80009d6:	bf08      	it	eq
 80009d8:	4290      	cmpeq	r0, r2
 80009da:	bf2c      	ite	cs
 80009dc:	17d8      	asrcs	r0, r3, #31
 80009de:	ea6f 70e3 	mvncc.w	r0, r3, asr #31
 80009e2:	f040 0001 	orr.w	r0, r0, #1
 80009e6:	4770      	bx	lr
 80009e8:	ea4f 0c41 	mov.w	ip, r1, lsl #1
 80009ec:	ea7f 5c6c 	mvns.w	ip, ip, asr #21
 80009f0:	d102      	bne.n	80009f8 <__cmpdf2+0x64>
 80009f2:	ea50 3c01 	orrs.w	ip, r0, r1, lsl #12
 80009f6:	d107      	bne.n	8000a08 <__cmpdf2+0x74>
 80009f8:	ea4f 0c43 	mov.w	ip, r3, lsl #1
 80009fc:	ea7f 5c6c 	mvns.w	ip, ip, asr #21
 8000a00:	d1d6      	bne.n	80009b0 <__cmpdf2+0x1c>
 8000a02:	ea52 3c03 	orrs.w	ip, r2, r3, lsl #12
 8000a06:	d0d3      	beq.n	80009b0 <__cmpdf2+0x1c>
 8000a08:	f85d 0b04 	ldr.w	r0, [sp], #4
 8000a0c:	4770      	bx	lr
 8000a0e:	bf00      	nop

08000a10 <__aeabi_cdrcmple>:
 8000a10:	4684      	mov	ip, r0
 8000a12:	4610      	mov	r0, r2
 8000a14:	4662      	mov	r2, ip
 8000a16:	468c      	mov	ip, r1
 8000a18:	4619      	mov	r1, r3
 8000a1a:	4663      	mov	r3, ip
 8000a1c:	e000      	b.n	8000a20 <__aeabi_cdcmpeq>
 8000a1e:	bf00      	nop

08000a20 <__aeabi_cdcmpeq>:
 8000a20:	b501      	push	{r0, lr}
 8000a22:	f7ff ffb7 	bl	8000994 <__cmpdf2>
 8000a26:	2800      	cmp	r0, #0
 8000a28:	bf48      	it	mi
 8000a2a:	f110 0f00 	cmnmi.w	r0, #0
 8000a2e:	bd01      	pop	{r0, pc}

08000a30 <__aeabi_dcmpeq>:
 8000a30:	f84d ed08 	str.w	lr, [sp, #-8]!
 8000a34:	f7ff fff4 	bl	8000a20 <__aeabi_cdcmpeq>
 8000a38:	bf0c      	ite	eq
 8000a3a:	2001      	moveq	r0, #1
 8000a3c:	2000      	movne	r0, #0
 8000a3e:	f85d fb08 	ldr.w	pc, [sp], #8
 8000a42:	bf00      	nop

08000a44 <__aeabi_dcmplt>:
 8000a44:	f84d ed08 	str.w	lr, [sp, #-8]!
 8000a48:	f7ff ffea 	bl	8000a20 <__aeabi_cdcmpeq>
 8000a4c:	bf34      	ite	cc
 8000a4e:	2001      	movcc	r0, #1
 8000a50:	2000      	movcs	r0, #0
 8000a52:	f85d fb08 	ldr.w	pc, [sp], #8
 8000a56:	bf00      	nop

08000a58 <__aeabi_dcmple>:
 8000a58:	f84d ed08 	str.w	lr, [sp, #-8]!
 8000a5c:	f7ff ffe0 	bl	8000a20 <__aeabi_cdcmpeq>
 8000a60:	bf94      	ite	ls
 8000a62:	2001      	movls	r0, #1
 8000a64:	2000      	movhi	r0, #0
 8000a66:	f85d fb08 	ldr.w	pc, [sp], #8
 8000a6a:	bf00      	nop

08000a6c <__aeabi_dcmpge>:
 8000a6c:	f84d ed08 	str.w	lr, [sp, #-8]!
 8000a70:	f7ff ffce 	bl	8000a10 <__aeabi_cdrcmple>
 8000a74:	bf94      	ite	ls
 8000a76:	2001      	movls	r0, #1
 8000a78:	2000      	movhi	r0, #0
 8000a7a:	f85d fb08 	ldr.w	pc, [sp], #8
 8000a7e:	bf00      	nop

08000a80 <__aeabi_dcmpgt>:
 8000a80:	f84d ed08 	str.w	lr, [sp, #-8]!
 8000a84:	f7ff ffc4 	bl	8000a10 <__aeabi_cdrcmple>
 8000a88:	bf34      	ite	cc
 8000a8a:	2001      	movcc	r0, #1
 8000a8c:	2000      	movcs	r0, #0
 8000a8e:	f85d fb08 	ldr.w	pc, [sp], #8
 8000a92:	bf00      	nop

08000a94 <__aeabi_dcmpun>:
 8000a94:	ea4f 0c41 	mov.w	ip, r1, lsl #1
 8000a98:	ea7f 5c6c 	mvns.w	ip, ip, asr #21
 8000a9c:	d102      	bne.n	8000aa4 <__aeabi_dcmpun+0x10>
 8000a9e:	ea50 3c01 	orrs.w	ip, r0, r1, lsl #12
 8000aa2:	d10a      	bne.n	8000aba <__aeabi_dcmpun+0x26>
 8000aa4:	ea4f 0c43 	mov.w	ip, r3, lsl #1
 8000aa8:	ea7f 5c6c 	mvns.w	ip, ip, asr #21
 8000aac:	d102      	bne.n	8000ab4 <__aeabi_dcmpun+0x20>
 8000aae:	ea52 3c03 	orrs.w	ip, r2, r3, lsl #12
 8000ab2:	d102      	bne.n	8000aba <__aeabi_dcmpun+0x26>
 8000ab4:	f04f 0000 	mov.w	r0, #0
 8000ab8:	4770      	bx	lr
 8000aba:	f04f 0001 	mov.w	r0, #1
 8000abe:	4770      	bx	lr

08000ac0 <__aeabi_d2f>:
 8000ac0:	ea4f 0241 	mov.w	r2, r1, lsl #1
 8000ac4:	f1b2 43e0 	subs.w	r3, r2, #1879048192	; 0x70000000
 8000ac8:	bf24      	itt	cs
 8000aca:	f5b3 1c00 	subscs.w	ip, r3, #2097152	; 0x200000
 8000ace:	f1dc 5cfe 	rsbscs	ip, ip, #532676608	; 0x1fc00000
 8000ad2:	d90d      	bls.n	8000af0 <__aeabi_d2f+0x30>
 8000ad4:	f001 4c00 	and.w	ip, r1, #2147483648	; 0x80000000
 8000ad8:	ea4f 02c0 	mov.w	r2, r0, lsl #3
 8000adc:	ea4c 7050 	orr.w	r0, ip, r0, lsr #29
 8000ae0:	f1b2 4f00 	cmp.w	r2, #2147483648	; 0x80000000
 8000ae4:	eb40 0083 	adc.w	r0, r0, r3, lsl #2
 8000ae8:	bf08      	it	eq
 8000aea:	f020 0001 	biceq.w	r0, r0, #1
 8000aee:	4770      	bx	lr
 8000af0:	f011 4f80 	tst.w	r1, #1073741824	; 0x40000000
 8000af4:	d121      	bne.n	8000b3a <__aeabi_d2f+0x7a>
 8000af6:	f113 7238 	adds.w	r2, r3, #48234496	; 0x2e00000
 8000afa:	bfbc      	itt	lt
 8000afc:	f001 4000 	andlt.w	r0, r1, #2147483648	; 0x80000000
 8000b00:	4770      	bxlt	lr
 8000b02:	f441 1180 	orr.w	r1, r1, #1048576	; 0x100000
 8000b06:	ea4f 5252 	mov.w	r2, r2, lsr #21
 8000b0a:	f1c2 0218 	rsb	r2, r2, #24
 8000b0e:	f1c2 0c20 	rsb	ip, r2, #32
 8000b12:	fa10 f30c 	lsls.w	r3, r0, ip
 8000b16:	fa20 f002 	lsr.w	r0, r0, r2
 8000b1a:	bf18      	it	ne
 8000b1c:	f040 0001 	orrne.w	r0, r0, #1
 8000b20:	ea4f 23c1 	mov.w	r3, r1, lsl #11
 8000b24:	ea4f 23d3 	mov.w	r3, r3, lsr #11
 8000b28:	fa03 fc0c 	lsl.w	ip, r3, ip
 8000b2c:	ea40 000c 	orr.w	r0, r0, ip
 8000b30:	fa23 f302 	lsr.w	r3, r3, r2
 8000b34:	ea4f 0343 	mov.w	r3, r3, lsl #1
 8000b38:	e7cc      	b.n	8000ad4 <__aeabi_d2f+0x14>
 8000b3a:	ea7f 5362 	mvns.w	r3, r2, asr #21
 8000b3e:	d107      	bne.n	8000b50 <__aeabi_d2f+0x90>
 8000b40:	ea50 3301 	orrs.w	r3, r0, r1, lsl #12
 8000b44:	bf1e      	ittt	ne
 8000b46:	f04f 40fe 	movne.w	r0, #2130706432	; 0x7f000000
 8000b4a:	f440 0040 	orrne.w	r0, r0, #12582912	; 0xc00000
 8000b4e:	4770      	bxne	lr
 8000b50:	f001 4000 	and.w	r0, r1, #2147483648	; 0x80000000
 8000b54:	f040 40fe 	orr.w	r0, r0, #2130706432	; 0x7f000000
 8000b58:	f440 0000 	orr.w	r0, r0, #8388608	; 0x800000
 8000b5c:	4770      	bx	lr
 8000b5e:	bf00      	nop

08000b60 <__aeabi_uldivmod>:
 8000b60:	b953      	cbnz	r3, 8000b78 <__aeabi_uldivmod+0x18>
 8000b62:	b94a      	cbnz	r2, 8000b78 <__aeabi_uldivmod+0x18>
 8000b64:	2900      	cmp	r1, #0
 8000b66:	bf08      	it	eq
 8000b68:	2800      	cmpeq	r0, #0
 8000b6a:	bf1c      	itt	ne
 8000b6c:	f04f 31ff 	movne.w	r1, #4294967295
 8000b70:	f04f 30ff 	movne.w	r0, #4294967295
 8000b74:	f000 b97a 	b.w	8000e6c <__aeabi_idiv0>
 8000b78:	f1ad 0c08 	sub.w	ip, sp, #8
 8000b7c:	e96d ce04 	strd	ip, lr, [sp, #-16]!
 8000b80:	f000 f806 	bl	8000b90 <__udivmoddi4>
 8000b84:	f8dd e004 	ldr.w	lr, [sp, #4]
 8000b88:	e9dd 2302 	ldrd	r2, r3, [sp, #8]
 8000b8c:	b004      	add	sp, #16
 8000b8e:	4770      	bx	lr

08000b90 <__udivmoddi4>:
 8000b90:	e92d 47f0 	stmdb	sp!, {r4, r5, r6, r7, r8, r9, sl, lr}
 8000b94:	468c      	mov	ip, r1
 8000b96:	460d      	mov	r5, r1
 8000b98:	4604      	mov	r4, r0
 8000b9a:	9e08      	ldr	r6, [sp, #32]
 8000b9c:	2b00      	cmp	r3, #0
 8000b9e:	d151      	bne.n	8000c44 <__udivmoddi4+0xb4>
 8000ba0:	428a      	cmp	r2, r1
 8000ba2:	4617      	mov	r7, r2
 8000ba4:	d96d      	bls.n	8000c82 <__udivmoddi4+0xf2>
 8000ba6:	fab2 fe82 	clz	lr, r2
 8000baa:	f1be 0f00 	cmp.w	lr, #0
 8000bae:	d00b      	beq.n	8000bc8 <__udivmoddi4+0x38>
 8000bb0:	f1ce 0c20 	rsb	ip, lr, #32
 8000bb4:	fa01 f50e 	lsl.w	r5, r1, lr
 8000bb8:	fa20 fc0c 	lsr.w	ip, r0, ip
 8000bbc:	fa02 f70e 	lsl.w	r7, r2, lr
 8000bc0:	ea4c 0c05 	orr.w	ip, ip, r5
 8000bc4:	fa00 f40e 	lsl.w	r4, r0, lr
 8000bc8:	ea4f 4a17 	mov.w	sl, r7, lsr #16
 8000bcc:	0c25      	lsrs	r5, r4, #16
 8000bce:	fbbc f8fa 	udiv	r8, ip, sl
 8000bd2:	fa1f f987 	uxth.w	r9, r7
 8000bd6:	fb0a cc18 	mls	ip, sl, r8, ip
 8000bda:	ea45 450c 	orr.w	r5, r5, ip, lsl #16
 8000bde:	fb08 f309 	mul.w	r3, r8, r9
 8000be2:	42ab      	cmp	r3, r5
 8000be4:	d90a      	bls.n	8000bfc <__udivmoddi4+0x6c>
 8000be6:	19ed      	adds	r5, r5, r7
 8000be8:	f108 32ff 	add.w	r2, r8, #4294967295
 8000bec:	f080 8123 	bcs.w	8000e36 <__udivmoddi4+0x2a6>
 8000bf0:	42ab      	cmp	r3, r5
 8000bf2:	f240 8120 	bls.w	8000e36 <__udivmoddi4+0x2a6>
 8000bf6:	f1a8 0802 	sub.w	r8, r8, #2
 8000bfa:	443d      	add	r5, r7
 8000bfc:	1aed      	subs	r5, r5, r3
 8000bfe:	b2a4      	uxth	r4, r4
 8000c00:	fbb5 f0fa 	udiv	r0, r5, sl
 8000c04:	fb0a 5510 	mls	r5, sl, r0, r5
 8000c08:	ea44 4405 	orr.w	r4, r4, r5, lsl #16
 8000c0c:	fb00 f909 	mul.w	r9, r0, r9
 8000c10:	45a1      	cmp	r9, r4
 8000c12:	d909      	bls.n	8000c28 <__udivmoddi4+0x98>
 8000c14:	19e4      	adds	r4, r4, r7
 8000c16:	f100 33ff 	add.w	r3, r0, #4294967295
 8000c1a:	f080 810a 	bcs.w	8000e32 <__udivmoddi4+0x2a2>
 8000c1e:	45a1      	cmp	r9, r4
 8000c20:	f240 8107 	bls.w	8000e32 <__udivmoddi4+0x2a2>
 8000c24:	3802      	subs	r0, #2
 8000c26:	443c      	add	r4, r7
 8000c28:	eba4 0409 	sub.w	r4, r4, r9
 8000c2c:	ea40 4008 	orr.w	r0, r0, r8, lsl #16
 8000c30:	2100      	movs	r1, #0
 8000c32:	2e00      	cmp	r6, #0
 8000c34:	d061      	beq.n	8000cfa <__udivmoddi4+0x16a>
 8000c36:	fa24 f40e 	lsr.w	r4, r4, lr
 8000c3a:	2300      	movs	r3, #0
 8000c3c:	6034      	str	r4, [r6, #0]
 8000c3e:	6073      	str	r3, [r6, #4]
 8000c40:	e8bd 87f0 	ldmia.w	sp!, {r4, r5, r6, r7, r8, r9, sl, pc}
 8000c44:	428b      	cmp	r3, r1
 8000c46:	d907      	bls.n	8000c58 <__udivmoddi4+0xc8>
 8000c48:	2e00      	cmp	r6, #0
 8000c4a:	d054      	beq.n	8000cf6 <__udivmoddi4+0x166>
 8000c4c:	2100      	movs	r1, #0
 8000c4e:	e886 0021 	stmia.w	r6, {r0, r5}
 8000c52:	4608      	mov	r0, r1
 8000c54:	e8bd 87f0 	ldmia.w	sp!, {r4, r5, r6, r7, r8, r9, sl, pc}
 8000c58:	fab3 f183 	clz	r1, r3
 8000c5c:	2900      	cmp	r1, #0
 8000c5e:	f040 808e 	bne.w	8000d7e <__udivmoddi4+0x1ee>
 8000c62:	42ab      	cmp	r3, r5
 8000c64:	d302      	bcc.n	8000c6c <__udivmoddi4+0xdc>
 8000c66:	4282      	cmp	r2, r0
 8000c68:	f200 80fa 	bhi.w	8000e60 <__udivmoddi4+0x2d0>
 8000c6c:	1a84      	subs	r4, r0, r2
 8000c6e:	eb65 0503 	sbc.w	r5, r5, r3
 8000c72:	2001      	movs	r0, #1
 8000c74:	46ac      	mov	ip, r5
 8000c76:	2e00      	cmp	r6, #0
 8000c78:	d03f      	beq.n	8000cfa <__udivmoddi4+0x16a>
 8000c7a:	e886 1010 	stmia.w	r6, {r4, ip}
 8000c7e:	e8bd 87f0 	ldmia.w	sp!, {r4, r5, r6, r7, r8, r9, sl, pc}
 8000c82:	b912      	cbnz	r2, 8000c8a <__udivmoddi4+0xfa>
 8000c84:	2701      	movs	r7, #1
 8000c86:	fbb7 f7f2 	udiv	r7, r7, r2
 8000c8a:	fab7 fe87 	clz	lr, r7
 8000c8e:	f1be 0f00 	cmp.w	lr, #0
 8000c92:	d134      	bne.n	8000cfe <__udivmoddi4+0x16e>
 8000c94:	1beb      	subs	r3, r5, r7
 8000c96:	0c3a      	lsrs	r2, r7, #16
 8000c98:	fa1f fc87 	uxth.w	ip, r7
 8000c9c:	2101      	movs	r1, #1
 8000c9e:	fbb3 f8f2 	udiv	r8, r3, r2
 8000ca2:	0c25      	lsrs	r5, r4, #16
 8000ca4:	fb02 3318 	mls	r3, r2, r8, r3
 8000ca8:	ea45 4503 	orr.w	r5, r5, r3, lsl #16
 8000cac:	fb0c f308 	mul.w	r3, ip, r8
 8000cb0:	42ab      	cmp	r3, r5
 8000cb2:	d907      	bls.n	8000cc4 <__udivmoddi4+0x134>
 8000cb4:	19ed      	adds	r5, r5, r7
 8000cb6:	f108 30ff 	add.w	r0, r8, #4294967295
 8000cba:	d202      	bcs.n	8000cc2 <__udivmoddi4+0x132>
 8000cbc:	42ab      	cmp	r3, r5
 8000cbe:	f200 80d1 	bhi.w	8000e64 <__udivmoddi4+0x2d4>
 8000cc2:	4680      	mov	r8, r0
 8000cc4:	1aed      	subs	r5, r5, r3
 8000cc6:	b2a3      	uxth	r3, r4
 8000cc8:	fbb5 f0f2 	udiv	r0, r5, r2
 8000ccc:	fb02 5510 	mls	r5, r2, r0, r5
 8000cd0:	ea43 4405 	orr.w	r4, r3, r5, lsl #16
 8000cd4:	fb0c fc00 	mul.w	ip, ip, r0
 8000cd8:	45a4      	cmp	ip, r4
 8000cda:	d907      	bls.n	8000cec <__udivmoddi4+0x15c>
 8000cdc:	19e4      	adds	r4, r4, r7
 8000cde:	f100 33ff 	add.w	r3, r0, #4294967295
 8000ce2:	d202      	bcs.n	8000cea <__udivmoddi4+0x15a>
 8000ce4:	45a4      	cmp	ip, r4
 8000ce6:	f200 80b8 	bhi.w	8000e5a <__udivmoddi4+0x2ca>
 8000cea:	4618      	mov	r0, r3
 8000cec:	eba4 040c 	sub.w	r4, r4, ip
 8000cf0:	ea40 4008 	orr.w	r0, r0, r8, lsl #16
 8000cf4:	e79d      	b.n	8000c32 <__udivmoddi4+0xa2>
 8000cf6:	4631      	mov	r1, r6
 8000cf8:	4630      	mov	r0, r6
 8000cfa:	e8bd 87f0 	ldmia.w	sp!, {r4, r5, r6, r7, r8, r9, sl, pc}
 8000cfe:	f1ce 0420 	rsb	r4, lr, #32
 8000d02:	fa05 f30e 	lsl.w	r3, r5, lr
 8000d06:	fa07 f70e 	lsl.w	r7, r7, lr
 8000d0a:	fa20 f804 	lsr.w	r8, r0, r4
 8000d0e:	0c3a      	lsrs	r2, r7, #16
 8000d10:	fa25 f404 	lsr.w	r4, r5, r4
 8000d14:	ea48 0803 	orr.w	r8, r8, r3
 8000d18:	fbb4 f1f2 	udiv	r1, r4, r2
 8000d1c:	ea4f 4518 	mov.w	r5, r8, lsr #16
 8000d20:	fb02 4411 	mls	r4, r2, r1, r4
 8000d24:	fa1f fc87 	uxth.w	ip, r7
 8000d28:	ea45 4504 	orr.w	r5, r5, r4, lsl #16
 8000d2c:	fb01 f30c 	mul.w	r3, r1, ip
 8000d30:	42ab      	cmp	r3, r5
 8000d32:	fa00 f40e 	lsl.w	r4, r0, lr
 8000d36:	d909      	bls.n	8000d4c <__udivmoddi4+0x1bc>
 8000d38:	19ed      	adds	r5, r5, r7
 8000d3a:	f101 30ff 	add.w	r0, r1, #4294967295
 8000d3e:	f080 808a 	bcs.w	8000e56 <__udivmoddi4+0x2c6>
 8000d42:	42ab      	cmp	r3, r5
 8000d44:	f240 8087 	bls.w	8000e56 <__udivmoddi4+0x2c6>
 8000d48:	3902      	subs	r1, #2
 8000d4a:	443d      	add	r5, r7
 8000d4c:	1aeb      	subs	r3, r5, r3
 8000d4e:	fa1f f588 	uxth.w	r5, r8
 8000d52:	fbb3 f0f2 	udiv	r0, r3, r2
 8000d56:	fb02 3310 	mls	r3, r2, r0, r3
 8000d5a:	ea45 4503 	orr.w	r5, r5, r3, lsl #16
 8000d5e:	fb00 f30c 	mul.w	r3, r0, ip
 8000d62:	42ab      	cmp	r3, r5
 8000d64:	d907      	bls.n	8000d76 <__udivmoddi4+0x1e6>
 8000d66:	19ed      	adds	r5, r5, r7
 8000d68:	f100 38ff 	add.w	r8, r0, #4294967295
 8000d6c:	d26f      	bcs.n	8000e4e <__udivmoddi4+0x2be>
 8000d6e:	42ab      	cmp	r3, r5
 8000d70:	d96d      	bls.n	8000e4e <__udivmoddi4+0x2be>
 8000d72:	3802      	subs	r0, #2
 8000d74:	443d      	add	r5, r7
 8000d76:	1aeb      	subs	r3, r5, r3
 8000d78:	ea40 4101 	orr.w	r1, r0, r1, lsl #16
 8000d7c:	e78f      	b.n	8000c9e <__udivmoddi4+0x10e>
 8000d7e:	f1c1 0720 	rsb	r7, r1, #32
 8000d82:	fa22 f807 	lsr.w	r8, r2, r7
 8000d86:	408b      	lsls	r3, r1
 8000d88:	fa05 f401 	lsl.w	r4, r5, r1
 8000d8c:	ea48 0303 	orr.w	r3, r8, r3
 8000d90:	fa20 fe07 	lsr.w	lr, r0, r7
 8000d94:	ea4f 4c13 	mov.w	ip, r3, lsr #16
 8000d98:	40fd      	lsrs	r5, r7
 8000d9a:	ea4e 0e04 	orr.w	lr, lr, r4
 8000d9e:	fbb5 f9fc 	udiv	r9, r5, ip
 8000da2:	ea4f 441e 	mov.w	r4, lr, lsr #16
 8000da6:	fb0c 5519 	mls	r5, ip, r9, r5
 8000daa:	fa1f f883 	uxth.w	r8, r3
 8000dae:	ea44 4505 	orr.w	r5, r4, r5, lsl #16
 8000db2:	fb09 f408 	mul.w	r4, r9, r8
 8000db6:	42ac      	cmp	r4, r5
 8000db8:	fa02 f201 	lsl.w	r2, r2, r1
 8000dbc:	fa00 fa01 	lsl.w	sl, r0, r1
 8000dc0:	d908      	bls.n	8000dd4 <__udivmoddi4+0x244>
 8000dc2:	18ed      	adds	r5, r5, r3
 8000dc4:	f109 30ff 	add.w	r0, r9, #4294967295
 8000dc8:	d243      	bcs.n	8000e52 <__udivmoddi4+0x2c2>
 8000dca:	42ac      	cmp	r4, r5
 8000dcc:	d941      	bls.n	8000e52 <__udivmoddi4+0x2c2>
 8000dce:	f1a9 0902 	sub.w	r9, r9, #2
 8000dd2:	441d      	add	r5, r3
 8000dd4:	1b2d      	subs	r5, r5, r4
 8000dd6:	fa1f fe8e 	uxth.w	lr, lr
 8000dda:	fbb5 f0fc 	udiv	r0, r5, ip
 8000dde:	fb0c 5510 	mls	r5, ip, r0, r5
 8000de2:	ea4e 4405 	orr.w	r4, lr, r5, lsl #16
 8000de6:	fb00 f808 	mul.w	r8, r0, r8
 8000dea:	45a0      	cmp	r8, r4
 8000dec:	d907      	bls.n	8000dfe <__udivmoddi4+0x26e>
 8000dee:	18e4      	adds	r4, r4, r3
 8000df0:	f100 35ff 	add.w	r5, r0, #4294967295
 8000df4:	d229      	bcs.n	8000e4a <__udivmoddi4+0x2ba>
 8000df6:	45a0      	cmp	r8, r4
 8000df8:	d927      	bls.n	8000e4a <__udivmoddi4+0x2ba>
 8000dfa:	3802      	subs	r0, #2
 8000dfc:	441c      	add	r4, r3
 8000dfe:	ea40 4009 	orr.w	r0, r0, r9, lsl #16
 8000e02:	eba4 0408 	sub.w	r4, r4, r8
 8000e06:	fba0 8902 	umull	r8, r9, r0, r2
 8000e0a:	454c      	cmp	r4, r9
 8000e0c:	46c6      	mov	lr, r8
 8000e0e:	464d      	mov	r5, r9
 8000e10:	d315      	bcc.n	8000e3e <__udivmoddi4+0x2ae>
 8000e12:	d012      	beq.n	8000e3a <__udivmoddi4+0x2aa>
 8000e14:	b156      	cbz	r6, 8000e2c <__udivmoddi4+0x29c>
 8000e16:	ebba 030e 	subs.w	r3, sl, lr
 8000e1a:	eb64 0405 	sbc.w	r4, r4, r5
 8000e1e:	fa04 f707 	lsl.w	r7, r4, r7
 8000e22:	40cb      	lsrs	r3, r1
 8000e24:	431f      	orrs	r7, r3
 8000e26:	40cc      	lsrs	r4, r1
 8000e28:	6037      	str	r7, [r6, #0]
 8000e2a:	6074      	str	r4, [r6, #4]
 8000e2c:	2100      	movs	r1, #0
 8000e2e:	e8bd 87f0 	ldmia.w	sp!, {r4, r5, r6, r7, r8, r9, sl, pc}
 8000e32:	4618      	mov	r0, r3
 8000e34:	e6f8      	b.n	8000c28 <__udivmoddi4+0x98>
 8000e36:	4690      	mov	r8, r2
 8000e38:	e6e0      	b.n	8000bfc <__udivmoddi4+0x6c>
 8000e3a:	45c2      	cmp	sl, r8
 8000e3c:	d2ea      	bcs.n	8000e14 <__udivmoddi4+0x284>
 8000e3e:	ebb8 0e02 	subs.w	lr, r8, r2
 8000e42:	eb69 0503 	sbc.w	r5, r9, r3
 8000e46:	3801      	subs	r0, #1
 8000e48:	e7e4      	b.n	8000e14 <__udivmoddi4+0x284>
 8000e4a:	4628      	mov	r0, r5
 8000e4c:	e7d7      	b.n	8000dfe <__udivmoddi4+0x26e>
 8000e4e:	4640      	mov	r0, r8
 8000e50:	e791      	b.n	8000d76 <__udivmoddi4+0x1e6>
 8000e52:	4681      	mov	r9, r0
 8000e54:	e7be      	b.n	8000dd4 <__udivmoddi4+0x244>
 8000e56:	4601      	mov	r1, r0
 8000e58:	e778      	b.n	8000d4c <__udivmoddi4+0x1bc>
 8000e5a:	3802      	subs	r0, #2
 8000e5c:	443c      	add	r4, r7
 8000e5e:	e745      	b.n	8000cec <__udivmoddi4+0x15c>
 8000e60:	4608      	mov	r0, r1
 8000e62:	e708      	b.n	8000c76 <__udivmoddi4+0xe6>
 8000e64:	f1a8 0802 	sub.w	r8, r8, #2
 8000e68:	443d      	add	r5, r7
 8000e6a:	e72b      	b.n	8000cc4 <__udivmoddi4+0x134>

08000e6c <__aeabi_idiv0>:
 8000e6c:	4770      	bx	lr
 8000e6e:	bf00      	nop

08000e70 <mainTask>:
uint8_t		 uBackgroundReady = 0;
uint32_t 	 uBackgroundArray[ARRAY_SIZE];
*/

void mainTask(void const * argument)
{
 8000e70:	b508      	push	{r3, lr}
	//Инициализация CDC_USB стека
	BSP_Usb_Init();
 8000e72:	f001 f835 	bl	8001ee0 <BSP_Usb_Init>

	BSP_TIM4ADC_Init();
 8000e76:	f000 ffab 	bl	8001dd0 <BSP_TIM4ADC_Init>
	//Иницализация двух АЦП модулей
	BSP_ADC_Init(ADC_INIT_DMA_CONTCONV,1);
 8000e7a:	2101      	movs	r1, #1
 8000e7c:	4608      	mov	r0, r1
 8000e7e:	f000 fe8d 	bl	8001b9c <BSP_ADC_Init>
	BSP_ADC_Init(ADC_INIT_DMA_CONTCONV,2);
 8000e82:	2102      	movs	r1, #2
 8000e84:	2001      	movs	r0, #1
 8000e86:	f000 fe89 	bl	8001b9c <BSP_ADC_Init>
	//запуск ADC DMA для непрерываного преобразования
	BSP_ADC_Start();
 8000e8a:	f000 ff2d 	bl	8001ce8 <BSP_ADC_Start>
	//Настройка ШИМ таймера для тактирования CCD линеек
	BSP_TIM2PWM_Init();
 8000e8e:	f000 ff57 	bl	8001d40 <BSP_TIM2PWM_Init>
	//настройка и запуск драйвера CCD
	TCD1304_Init();
 8000e92:	f000 fda1 	bl	80019d8 <TCD1304_Init>
	TCD1304_Start();
 8000e96:	f000 fdeb 	bl	8001a70 <TCD1304_Start>
	//инициализация модуля для рассчета данных
	Process_Init();
 8000e9a:	f000 f925 	bl	80010e8 <Process_Init>
	//Main loop
	for(;;)
	{
		//TO-DO данные будут передаваться по запросу, в данный момент реализована отладочная версия с непрерывной передачей с частотой 10Hz
		Protocol_SendLinearSensorData(0x01,0,(uint8_t*)Process_GetSourcelData(TCD_CHANNEL_1));
 8000e9e:	2000      	movs	r0, #0
 8000ea0:	f000 f9fe 	bl	80012a0 <Process_GetSourcelData>
 8000ea4:	2100      	movs	r1, #0
 8000ea6:	4602      	mov	r2, r0
 8000ea8:	2001      	movs	r0, #1
 8000eaa:	f000 fad1 	bl	8001450 <Protocol_SendLinearSensorData>
		Protocol_SendLinearSensorData(0x01,1,(uint8_t*)Process_GetOpticalData(TCD_CHANNEL_1));
 8000eae:	2000      	movs	r0, #0
 8000eb0:	f000 fa04 	bl	80012bc <Process_GetOpticalData>
 8000eb4:	2101      	movs	r1, #1
 8000eb6:	4602      	mov	r2, r0
 8000eb8:	4608      	mov	r0, r1
 8000eba:	f000 fac9 	bl	8001450 <Protocol_SendLinearSensorData>

		/*Protocol_SendLinearSensorData(0x02,0,(uint8_t*)Process_GetSourcelData(TCD_CHANNEL_2));
		Protocol_SendLinearSensorData(0x03,0,(uint8_t*)Process_GetSourcelData(TCD_CHANNEL_3));
		Protocol_SendLinearSensorData(0x04,0,(uint8_t*)Process_GetSourcelData(TCD_CHANNEL_4));
*/
		osDelay(100);
 8000ebe:	2064      	movs	r0, #100	; 0x64
 8000ec0:	f004 faa5 	bl	800540e <osDelay>
 8000ec4:	e7eb      	b.n	8000e9e <mainTask+0x2e>
	...

08000ec8 <systemClock_Config>:
{
 8000ec8:	b570      	push	{r4, r5, r6, lr}
 8000eca:	b094      	sub	sp, #80	; 0x50
  __HAL_RCC_PWR_CLK_ENABLE();
 8000ecc:	4b2a      	ldr	r3, [pc, #168]	; (8000f78 <systemClock_Config+0xb0>)
 8000ece:	2100      	movs	r1, #0
 8000ed0:	9101      	str	r1, [sp, #4]
 8000ed2:	6c1a      	ldr	r2, [r3, #64]	; 0x40
 8000ed4:	f042 5280 	orr.w	r2, r2, #268435456	; 0x10000000
 8000ed8:	641a      	str	r2, [r3, #64]	; 0x40
 8000eda:	6c1b      	ldr	r3, [r3, #64]	; 0x40
 8000edc:	f003 5380 	and.w	r3, r3, #268435456	; 0x10000000
 8000ee0:	9301      	str	r3, [sp, #4]
 8000ee2:	9b01      	ldr	r3, [sp, #4]
  __HAL_PWR_VOLTAGESCALING_CONFIG(PWR_REGULATOR_VOLTAGE_SCALE1);
 8000ee4:	4b25      	ldr	r3, [pc, #148]	; (8000f7c <systemClock_Config+0xb4>)
 8000ee6:	9102      	str	r1, [sp, #8]
 8000ee8:	681a      	ldr	r2, [r3, #0]
 8000eea:	f442 4240 	orr.w	r2, r2, #49152	; 0xc000
 8000eee:	601a      	str	r2, [r3, #0]
 8000ef0:	681b      	ldr	r3, [r3, #0]
 8000ef2:	f403 4340 	and.w	r3, r3, #49152	; 0xc000
 8000ef6:	9302      	str	r3, [sp, #8]
 8000ef8:	9b02      	ldr	r3, [sp, #8]
  RCC_OscInitStruct.OscillatorType = RCC_OSCILLATORTYPE_HSE;
 8000efa:	2301      	movs	r3, #1
 8000efc:	9308      	str	r3, [sp, #32]
  RCC_OscInitStruct.HSEState = RCC_HSE_ON;
 8000efe:	f44f 3380 	mov.w	r3, #65536	; 0x10000
 8000f02:	9309      	str	r3, [sp, #36]	; 0x24
  RCC_OscInitStruct.PLL.PLLM = 8;
 8000f04:	2308      	movs	r3, #8
 8000f06:	9310      	str	r3, [sp, #64]	; 0x40
  RCC_OscInitStruct.PLL.PLLN = 336;
 8000f08:	f44f 73a8 	mov.w	r3, #336	; 0x150
  RCC_OscInitStruct.PLL.PLLState = RCC_PLL_ON;
 8000f0c:	2402      	movs	r4, #2
  RCC_OscInitStruct.PLL.PLLSource = RCC_PLLSOURCE_HSE;
 8000f0e:	f44f 0680 	mov.w	r6, #4194304	; 0x400000
  RCC_OscInitStruct.PLL.PLLN = 336;
 8000f12:	9311      	str	r3, [sp, #68]	; 0x44
  if (HAL_RCC_OscConfig(&RCC_OscInitStruct) != HAL_OK)
 8000f14:	a808      	add	r0, sp, #32
  RCC_OscInitStruct.PLL.PLLQ = 7;
 8000f16:	2307      	movs	r3, #7
  RCC_OscInitStruct.PLL.PLLState = RCC_PLL_ON;
 8000f18:	940e      	str	r4, [sp, #56]	; 0x38
  RCC_OscInitStruct.PLL.PLLSource = RCC_PLLSOURCE_HSE;
 8000f1a:	960f      	str	r6, [sp, #60]	; 0x3c
  RCC_OscInitStruct.PLL.PLLP = RCC_PLLP_DIV2;
 8000f1c:	9412      	str	r4, [sp, #72]	; 0x48
  RCC_OscInitStruct.PLL.PLLQ = 7;
 8000f1e:	9313      	str	r3, [sp, #76]	; 0x4c
  if (HAL_RCC_OscConfig(&RCC_OscInitStruct) != HAL_OK)
 8000f20:	f002 fa7c 	bl	800341c <HAL_RCC_OscConfig>
 8000f24:	b100      	cbz	r0, 8000f28 <systemClock_Config+0x60>
 8000f26:	e7fe      	b.n	8000f26 <systemClock_Config+0x5e>
  RCC_ClkInitStruct.APB1CLKDivider = RCC_HCLK_DIV4;
 8000f28:	f44f 53a0 	mov.w	r3, #5120	; 0x1400
  RCC_ClkInitStruct.AHBCLKDivider = RCC_SYSCLK_DIV1;
 8000f2c:	9005      	str	r0, [sp, #20]
  RCC_ClkInitStruct.ClockType = RCC_CLOCKTYPE_HCLK|RCC_CLOCKTYPE_SYSCLK
 8000f2e:	250f      	movs	r5, #15
  if (HAL_RCC_ClockConfig(&RCC_ClkInitStruct, FLASH_LATENCY_5) != HAL_OK)
 8000f30:	2105      	movs	r1, #5
 8000f32:	a803      	add	r0, sp, #12
  RCC_ClkInitStruct.SYSCLKSource = RCC_SYSCLKSOURCE_PLLCLK;
 8000f34:	9404      	str	r4, [sp, #16]
  RCC_ClkInitStruct.ClockType = RCC_CLOCKTYPE_HCLK|RCC_CLOCKTYPE_SYSCLK
 8000f36:	9503      	str	r5, [sp, #12]
  RCC_ClkInitStruct.APB1CLKDivider = RCC_HCLK_DIV4;
 8000f38:	9306      	str	r3, [sp, #24]
  RCC_ClkInitStruct.APB2CLKDivider = RCC_HCLK_DIV4;
 8000f3a:	9307      	str	r3, [sp, #28]
  if (HAL_RCC_ClockConfig(&RCC_ClkInitStruct, FLASH_LATENCY_5) != HAL_OK)
 8000f3c:	f002 fc6a 	bl	8003814 <HAL_RCC_ClockConfig>
 8000f40:	4604      	mov	r4, r0
 8000f42:	b100      	cbz	r0, 8000f46 <systemClock_Config+0x7e>
 8000f44:	e7fe      	b.n	8000f44 <systemClock_Config+0x7c>
  HAL_RCC_MCOConfig(RCC_MCO1, RCC_MCO1SOURCE_HSE, RCC_MCODIV_5);
 8000f46:	4631      	mov	r1, r6
 8000f48:	f04f 62e0 	mov.w	r2, #117440512	; 0x7000000
 8000f4c:	f002 fbe8 	bl	8003720 <HAL_RCC_MCOConfig>
  HAL_SYSTICK_Config(HAL_RCC_GetHCLKFreq()/1000);
 8000f50:	f002 fcfa 	bl	8003948 <HAL_RCC_GetHCLKFreq>
 8000f54:	f44f 737a 	mov.w	r3, #1000	; 0x3e8
 8000f58:	fbb0 f0f3 	udiv	r0, r0, r3
 8000f5c:	f001 fb6c 	bl	8002638 <HAL_SYSTICK_Config>
  HAL_SYSTICK_CLKSourceConfig(SYSTICK_CLKSOURCE_HCLK);
 8000f60:	2004      	movs	r0, #4
 8000f62:	f001 fb7f 	bl	8002664 <HAL_SYSTICK_CLKSourceConfig>
  HAL_NVIC_SetPriority(SysTick_IRQn, 15, 0);
 8000f66:	4622      	mov	r2, r4
 8000f68:	4629      	mov	r1, r5
 8000f6a:	f04f 30ff 	mov.w	r0, #4294967295
 8000f6e:	f001 fb23 	bl	80025b8 <HAL_NVIC_SetPriority>
}
 8000f72:	b014      	add	sp, #80	; 0x50
 8000f74:	bd70      	pop	{r4, r5, r6, pc}
 8000f76:	bf00      	nop
 8000f78:	40023800 	.word	0x40023800
 8000f7c:	40007000 	.word	0x40007000

08000f80 <portClkInit>:
{
 8000f80:	b084      	sub	sp, #16
  __HAL_RCC_GPIOH_CLK_ENABLE();
 8000f82:	4b16      	ldr	r3, [pc, #88]	; (8000fdc <portClkInit+0x5c>)
 8000f84:	2200      	movs	r2, #0
 8000f86:	9200      	str	r2, [sp, #0]
 8000f88:	6b19      	ldr	r1, [r3, #48]	; 0x30
 8000f8a:	f041 0180 	orr.w	r1, r1, #128	; 0x80
 8000f8e:	6319      	str	r1, [r3, #48]	; 0x30
 8000f90:	6b19      	ldr	r1, [r3, #48]	; 0x30
 8000f92:	f001 0180 	and.w	r1, r1, #128	; 0x80
 8000f96:	9100      	str	r1, [sp, #0]
 8000f98:	9900      	ldr	r1, [sp, #0]
  __HAL_RCC_GPIOC_CLK_ENABLE();
 8000f9a:	9201      	str	r2, [sp, #4]
 8000f9c:	6b19      	ldr	r1, [r3, #48]	; 0x30
 8000f9e:	f041 0104 	orr.w	r1, r1, #4
 8000fa2:	6319      	str	r1, [r3, #48]	; 0x30
 8000fa4:	6b19      	ldr	r1, [r3, #48]	; 0x30
 8000fa6:	f001 0104 	and.w	r1, r1, #4
 8000faa:	9101      	str	r1, [sp, #4]
 8000fac:	9901      	ldr	r1, [sp, #4]
  __HAL_RCC_GPIOA_CLK_ENABLE();
 8000fae:	9202      	str	r2, [sp, #8]
 8000fb0:	6b19      	ldr	r1, [r3, #48]	; 0x30
 8000fb2:	f041 0101 	orr.w	r1, r1, #1
 8000fb6:	6319      	str	r1, [r3, #48]	; 0x30
 8000fb8:	6b19      	ldr	r1, [r3, #48]	; 0x30
 8000fba:	f001 0101 	and.w	r1, r1, #1
 8000fbe:	9102      	str	r1, [sp, #8]
 8000fc0:	9902      	ldr	r1, [sp, #8]
  __HAL_RCC_GPIOD_CLK_ENABLE();
 8000fc2:	9203      	str	r2, [sp, #12]
 8000fc4:	6b1a      	ldr	r2, [r3, #48]	; 0x30
 8000fc6:	f042 0208 	orr.w	r2, r2, #8
 8000fca:	631a      	str	r2, [r3, #48]	; 0x30
 8000fcc:	6b1b      	ldr	r3, [r3, #48]	; 0x30
 8000fce:	f003 0308 	and.w	r3, r3, #8
 8000fd2:	9303      	str	r3, [sp, #12]
 8000fd4:	9b03      	ldr	r3, [sp, #12]
}
 8000fd6:	b004      	add	sp, #16
 8000fd8:	4770      	bx	lr
 8000fda:	bf00      	nop
 8000fdc:	40023800 	.word	0x40023800

08000fe0 <main>:
{
 8000fe0:	b530      	push	{r4, r5, lr}
  osThreadDef(defaultTask, mainTask, osPriorityNormal, 0, configMINIMAL_STACK_SIZE + 0x100);
 8000fe2:	4d0c      	ldr	r5, [pc, #48]	; (8001014 <main+0x34>)
{
 8000fe4:	b087      	sub	sp, #28
  HAL_Init();
 8000fe6:	f000 ffff 	bl	8001fe8 <HAL_Init>
  systemClock_Config();
 8000fea:	f7ff ff6d 	bl	8000ec8 <systemClock_Config>
  portClkInit();
 8000fee:	f7ff ffc7 	bl	8000f80 <portClkInit>
  osThreadDef(defaultTask, mainTask, osPriorityNormal, 0, configMINIMAL_STACK_SIZE + 0x100);
 8000ff2:	cd0f      	ldmia	r5!, {r0, r1, r2, r3}
 8000ff4:	ac01      	add	r4, sp, #4
 8000ff6:	c40f      	stmia	r4!, {r0, r1, r2, r3}
 8000ff8:	682b      	ldr	r3, [r5, #0]
 8000ffa:	6023      	str	r3, [r4, #0]
  defaultTaskHandle = osThreadCreate(osThread(defaultTask), NULL);
 8000ffc:	2100      	movs	r1, #0
 8000ffe:	a801      	add	r0, sp, #4
 8001000:	f004 f9ed 	bl	80053de <osThreadCreate>
 8001004:	4b04      	ldr	r3, [pc, #16]	; (8001018 <main+0x38>)
 8001006:	6018      	str	r0, [r3, #0]
  osKernelStart();	
 8001008:	f004 f9e4 	bl	80053d4 <osKernelStart>
}
 800100c:	2000      	movs	r0, #0
 800100e:	b007      	add	sp, #28
 8001010:	bd30      	pop	{r4, r5, pc}
 8001012:	bf00      	nop
 8001014:	080075d8 	.word	0x080075d8
 8001018:	20011074 	.word	0x20011074

0800101c <HAL_TIM_PeriodElapsedCallback>:
  */
volatile uint32_t ulHighFrequencyTimerTicks = 0;

void HAL_TIM_PeriodElapsedCallback(TIM_HandleTypeDef *htim)
{
  if (htim->Instance == TIM1) {
 800101c:	6802      	ldr	r2, [r0, #0]
 800101e:	4b0c      	ldr	r3, [pc, #48]	; (8001050 <HAL_TIM_PeriodElapsedCallback+0x34>)
 8001020:	429a      	cmp	r2, r3
{
 8001022:	b510      	push	{r4, lr}
 8001024:	4604      	mov	r4, r0
  if (htim->Instance == TIM1) {
 8001026:	d101      	bne.n	800102c <HAL_TIM_PeriodElapsedCallback+0x10>
    HAL_IncTick();
 8001028:	f000 fff8 	bl	800201c <HAL_IncTick>
  }
  if(htim->Instance == TIM7){
 800102c:	6823      	ldr	r3, [r4, #0]
 800102e:	4a09      	ldr	r2, [pc, #36]	; (8001054 <HAL_TIM_PeriodElapsedCallback+0x38>)
 8001030:	4293      	cmp	r3, r2
 8001032:	d104      	bne.n	800103e <HAL_TIM_PeriodElapsedCallback+0x22>
	  ulHighFrequencyTimerTicks++;
 8001034:	4a08      	ldr	r2, [pc, #32]	; (8001058 <HAL_TIM_PeriodElapsedCallback+0x3c>)
 8001036:	6813      	ldr	r3, [r2, #0]
 8001038:	3301      	adds	r3, #1
 800103a:	6013      	str	r3, [r2, #0]
 800103c:	bd10      	pop	{r4, pc}
  }
	if(htim->Instance == TIM4)
 800103e:	4a07      	ldr	r2, [pc, #28]	; (800105c <HAL_TIM_PeriodElapsedCallback+0x40>)
 8001040:	4293      	cmp	r3, r2
 8001042:	d103      	bne.n	800104c <HAL_TIM_PeriodElapsedCallback+0x30>
	{
		TCD1304_SampleTimerCallback();
	}
}
 8001044:	e8bd 4010 	ldmia.w	sp!, {r4, lr}
		TCD1304_SampleTimerCallback();
 8001048:	f000 bd6e 	b.w	8001b28 <TCD1304_SampleTimerCallback>
 800104c:	bd10      	pop	{r4, pc}
 800104e:	bf00      	nop
 8001050:	40010000 	.word	0x40010000
 8001054:	40001400 	.word	0x40001400
 8001058:	200001e4 	.word	0x200001e4
 800105c:	40000800 	.word	0x40000800

08001060 <GetRunTimeStatsValue>:
/*
 *
 */
uint32_t	GetRunTimeStatsValue()
{
	return ulHighFrequencyTimerTicks;
 8001060:	4b01      	ldr	r3, [pc, #4]	; (8001068 <GetRunTimeStatsValue+0x8>)
 8001062:	6818      	ldr	r0, [r3, #0]
}
 8001064:	4770      	bx	lr
 8001066:	bf00      	nop
 8001068:	200001e4 	.word	0x200001e4

0800106c <SetupRunTimeStatsTimer>:
/*
 *
 */
void SetupRunTimeStatsTimer()
{
 800106c:	b530      	push	{r4, r5, lr}
	  uint32_t              uwTimclock = 0;
	  uint32_t              uwPrescalerValue = 0;
	  uint32_t              pFLatency;

	  /*Configure the TIM1 IRQ priority */
	  HAL_NVIC_SetPriority(TIM7_IRQn, 1 ,0);
 800106e:	2200      	movs	r2, #0
{
 8001070:	b089      	sub	sp, #36	; 0x24
	  HAL_NVIC_SetPriority(TIM7_IRQn, 1 ,0);
 8001072:	2101      	movs	r1, #1
 8001074:	2037      	movs	r0, #55	; 0x37
 8001076:	f001 fa9f 	bl	80025b8 <HAL_NVIC_SetPriority>
	  HAL_NVIC_EnableIRQ(TIM7_IRQn);
 800107a:	2037      	movs	r0, #55	; 0x37
 800107c:	f001 fad0 	bl	8002620 <HAL_NVIC_EnableIRQ>

	  /* Enable TIM1 clock */
	  __HAL_RCC_TIM7_CLK_ENABLE();
 8001080:	2500      	movs	r5, #0
 8001082:	4b14      	ldr	r3, [pc, #80]	; (80010d4 <SetupRunTimeStatsTimer+0x68>)
 8001084:	9502      	str	r5, [sp, #8]
 8001086:	6c1a      	ldr	r2, [r3, #64]	; 0x40

	  /* Compute the prescaler value to have TIM1 counter clock equal to 10MHz */
	  uwPrescalerValue = (uint32_t) ((uwTimclock / 10000000) - 1);

	  /* Initialize TIM1 */
	  htim7.Instance = TIM7;
 8001088:	4c13      	ldr	r4, [pc, #76]	; (80010d8 <SetupRunTimeStatsTimer+0x6c>)
	  __HAL_RCC_TIM7_CLK_ENABLE();
 800108a:	f042 0220 	orr.w	r2, r2, #32
 800108e:	641a      	str	r2, [r3, #64]	; 0x40
 8001090:	6c1b      	ldr	r3, [r3, #64]	; 0x40
 8001092:	f003 0320 	and.w	r3, r3, #32
 8001096:	9302      	str	r3, [sp, #8]
	  HAL_RCC_GetClockConfig(&clkconfig, &pFLatency);
 8001098:	a901      	add	r1, sp, #4
 800109a:	a803      	add	r0, sp, #12
	  __HAL_RCC_TIM7_CLK_ENABLE();
 800109c:	9b02      	ldr	r3, [sp, #8]
	  HAL_RCC_GetClockConfig(&clkconfig, &pFLatency);
 800109e:	f002 fc69 	bl	8003974 <HAL_RCC_GetClockConfig>
	  uwTimclock = 2*HAL_RCC_GetPCLK2Freq();
 80010a2:	f002 fc57 	bl	8003954 <HAL_RCC_GetPCLK2Freq>
	  htim7.Instance = TIM7;
 80010a6:	4b0d      	ldr	r3, [pc, #52]	; (80010dc <SetupRunTimeStatsTimer+0x70>)
 80010a8:	6023      	str	r3, [r4, #0]
	  + Period = [(TIM1CLK/1000) - 1]. to have a (1/1000) s time base.
	  + Prescaler = (uwTimclock/1000000 - 1) to have a 1MHz counter clock.
	  + ClockDivision = 0
	  + Counter direction = Up
	  */
	  htim7.Init.Period = (10000000 / 1000) - 1;
 80010aa:	f242 730f 	movw	r3, #9999	; 0x270f
 80010ae:	60e3      	str	r3, [r4, #12]
	  uwTimclock = 2*HAL_RCC_GetPCLK2Freq();
 80010b0:	0040      	lsls	r0, r0, #1
	  uwPrescalerValue = (uint32_t) ((uwTimclock / 10000000) - 1);
 80010b2:	4b0b      	ldr	r3, [pc, #44]	; (80010e0 <SetupRunTimeStatsTimer+0x74>)
 80010b4:	fbb0 f0f3 	udiv	r0, r0, r3
 80010b8:	3801      	subs	r0, #1
	  htim7.Init.Prescaler = uwPrescalerValue;
 80010ba:	6060      	str	r0, [r4, #4]
	  htim7.Init.ClockDivision = 0;
	  htim7.Init.CounterMode = TIM_COUNTERMODE_UP;
	  if(HAL_TIM_Base_Init(&htim7) == HAL_OK)
 80010bc:	4620      	mov	r0, r4
	  htim7.Init.ClockDivision = 0;
 80010be:	6125      	str	r5, [r4, #16]
	  htim7.Init.CounterMode = TIM_COUNTERMODE_UP;
 80010c0:	60a5      	str	r5, [r4, #8]
	  if(HAL_TIM_Base_Init(&htim7) == HAL_OK)
 80010c2:	f002 fe23 	bl	8003d0c <HAL_TIM_Base_Init>
 80010c6:	b910      	cbnz	r0, 80010ce <SetupRunTimeStatsTimer+0x62>
	  {
	    /* Start the TIM time Base generation in interrupt mode */
	    HAL_TIM_Base_Start_IT(&htim7);
 80010c8:	4620      	mov	r0, r4
 80010ca:	f002 fcf5 	bl	8003ab8 <HAL_TIM_Base_Start_IT>
	  }
}
 80010ce:	b009      	add	sp, #36	; 0x24
 80010d0:	bd30      	pop	{r4, r5, pc}
 80010d2:	bf00      	nop
 80010d4:	40023800 	.word	0x40023800
 80010d8:	2001107c 	.word	0x2001107c
 80010dc:	40001400 	.word	0x40001400
 80010e0:	00989680 	.word	0x00989680

080010e4 <_Error_Handler>:
  * @param  file: The file name as string.
  * @param  line: The line in file as a number.
  * @retval None
  */
void _Error_Handler(char *file, int line)
{
 80010e4:	e7fe      	b.n	80010e4 <_Error_Handler>
	...

080010e8 <Process_Init>:
/*
 *
 */
void	Process_Init()
{
	memset(Devices,0,sizeof(tDeviceStruct) * 4);
 80010e8:	f244 0210 	movw	r2, #16400	; 0x4010
 80010ec:	2100      	movs	r1, #0
 80010ee:	4801      	ldr	r0, [pc, #4]	; (80010f4 <Process_Init+0xc>)
 80010f0:	f005 be99 	b.w	8006e26 <memset>
 80010f4:	10000000 	.word	0x10000000

080010f8 <Process_BackgroundUpdate>:
/*----------------------------------------------------------------------------------------------------*/
/*
 *
 */
void	Process_BackgroundUpdate(tDeviceStruct	*pDevice,uint16_t *pBackgroundData)
{
 80010f8:	b5f0      	push	{r4, r5, r6, r7, lr}
	if(!pDevice || !pBackgroundData)
 80010fa:	b300      	cbz	r0, 800113e <Process_BackgroundUpdate+0x46>
 80010fc:	b1f9      	cbz	r1, 800113e <Process_BackgroundUpdate+0x46>
		return;

	if(pDevice->ulBackgroundIndex < BACKGROUND_SIZE)
 80010fe:	f241 0301 	movw	r3, #4097	; 0x1001
 8001102:	5cc3      	ldrb	r3, [r0, r3]
 8001104:	2b1d      	cmp	r3, #29
 8001106:	d81a      	bhi.n	800113e <Process_BackgroundUpdate+0x46>
 8001108:	1f04      	subs	r4, r0, #4
 800110a:	3902      	subs	r1, #2
 800110c:	f500 767f 	add.w	r6, r0, #1020	; 0x3fc
 8001110:	4622      	mov	r2, r4
	{
		for(int i = 0;i<ARRAY_SIZE;i++)
			pDevice->ulBackgroundArray[i] += pBackgroundData[i];
 8001112:	f831 5f02 	ldrh.w	r5, [r1, #2]!
 8001116:	6857      	ldr	r7, [r2, #4]
 8001118:	443d      	add	r5, r7
 800111a:	f842 5f04 	str.w	r5, [r2, #4]!
		for(int i = 0;i<ARRAY_SIZE;i++)
 800111e:	42b2      	cmp	r2, r6
 8001120:	d1f7      	bne.n	8001112 <Process_BackgroundUpdate+0x1a>

		pDevice->ulBackgroundIndex++;
 8001122:	3301      	adds	r3, #1
 8001124:	b2db      	uxtb	r3, r3
 8001126:	f241 0101 	movw	r1, #4097	; 0x1001
		if(pDevice->ulBackgroundIndex == BACKGROUND_SIZE){
 800112a:	2b1e      	cmp	r3, #30
		pDevice->ulBackgroundIndex++;
 800112c:	5443      	strb	r3, [r0, r1]
		if(pDevice->ulBackgroundIndex == BACKGROUND_SIZE){
 800112e:	d106      	bne.n	800113e <Process_BackgroundUpdate+0x46>
			for(int i = 0;i<ARRAY_SIZE;i++){
				pDevice->ulBackgroundArray[i] /= BACKGROUND_SIZE;
 8001130:	6861      	ldr	r1, [r4, #4]
 8001132:	fbb1 f1f3 	udiv	r1, r1, r3
 8001136:	f844 1f04 	str.w	r1, [r4, #4]!
			for(int i = 0;i<ARRAY_SIZE;i++){
 800113a:	4294      	cmp	r4, r2
 800113c:	d1f8      	bne.n	8001130 <Process_BackgroundUpdate+0x38>
 800113e:	bdf0      	pop	{r4, r5, r6, r7, pc}

08001140 <Process_OpticalDensityCalculate>:
/*----------------------------------------------------------------------------------------------------*/
/*
 *
 */
void	Process_OpticalDensityCalculate(tDeviceStruct	*pDevice)
{
 8001140:	b5f8      	push	{r3, r4, r5, r6, r7, lr}
 8001142:	ed2d 8b02 	vpush	{d8}
 8001146:	1f05      	subs	r5, r0, #4
 8001148:	f500 6680 	add.w	r6, r0, #1024	; 0x400
 800114c:	f500 747f 	add.w	r4, r0, #1020	; 0x3fc
	for(int i = 0;i<ARRAY_SIZE;i++)
	{
		float fLogValue = log10((float)pDevice->ulBackgroundArray[i] * (float)TIM2->CCR1 / (float)pDevice->ulData[i]);
 8001150:	f04f 4780 	mov.w	r7, #1073741824	; 0x40000000
 8001154:	6b7a      	ldr	r2, [r7, #52]	; 0x34
 8001156:	f855 1f04 	ldr.w	r1, [r5, #4]!
 800115a:	f836 3b02 	ldrh.w	r3, [r6], #2
 800115e:	ee07 2a90 	vmov	s15, r2
 8001162:	ee07 1a10 	vmov	s14, r1
 8001166:	eef8 7a67 	vcvt.f32.u32	s15, s15
 800116a:	eeb8 7a47 	vcvt.f32.u32	s14, s14
 800116e:	ee67 7a27 	vmul.f32	s15, s14, s15
 8001172:	ee07 3a10 	vmov	s14, r3
 8001176:	eeb8 7a47 	vcvt.f32.u32	s14, s14
 800117a:	eec7 6a87 	vdiv.f32	s13, s15, s14
 800117e:	ee16 0a90 	vmov	r0, s13
 8001182:	f7ff f999 	bl	80004b8 <__aeabi_f2d>
 8001186:	ec41 0b10 	vmov	d0, r0, r1
 800118a:	f005 ff13 	bl	8006fb4 <log10>
 800118e:	ec51 0b10 	vmov	r0, r1, d0
 8001192:	f7ff fc95 	bl	8000ac0 <__aeabi_d2f>
		pDevice->ulOpticalData[i] = (uint16_t)(fLogValue * TIM2->CCR2);
 8001196:	ed97 8a0e 	vldr	s16, [r7, #56]	; 0x38
 800119a:	ee07 0a90 	vmov	s15, r0
 800119e:	eeb8 8a48 	vcvt.f32.u32	s16, s16
	for(int i = 0;i<ARRAY_SIZE;i++)
 80011a2:	42a5      	cmp	r5, r4
		pDevice->ulOpticalData[i] = (uint16_t)(fLogValue * TIM2->CCR2);
 80011a4:	ee28 8a27 	vmul.f32	s16, s16, s15
 80011a8:	eefc 7ac8 	vcvt.u32.f32	s15, s16
 80011ac:	ee17 3a90 	vmov	r3, s15
 80011b0:	f8a6 31fe 	strh.w	r3, [r6, #510]	; 0x1fe
	for(int i = 0;i<ARRAY_SIZE;i++)
 80011b4:	d1ce      	bne.n	8001154 <Process_OpticalDensityCalculate+0x14>
	}
}
 80011b6:	ecbd 8b02 	vpop	{d8}
 80011ba:	bdf8      	pop	{r3, r4, r5, r6, r7, pc}

080011bc <Process_Update>:
	if(ulIndex > TCD_SENSORS)
 80011bc:	2904      	cmp	r1, #4
{
 80011be:	e92d 47f0 	stmdb	sp!, {r4, r5, r6, r7, r8, r9, sl, lr}
 80011c2:	4607      	mov	r7, r0
 80011c4:	460e      	mov	r6, r1
	if(ulIndex > TCD_SENSORS)
 80011c6:	d866      	bhi.n	8001296 <Process_Update+0xda>
	if(!pData)
 80011c8:	2800      	cmp	r0, #0
 80011ca:	d064      	beq.n	8001296 <Process_Update+0xda>
	tDeviceStruct	*pDevice = &Devices[ulIndex];
 80011cc:	f8df a0cc 	ldr.w	sl, [pc, #204]	; 800129c <Process_Update+0xe0>
 80011d0:	f241 0404 	movw	r4, #4100	; 0x1004
 80011d4:	434c      	muls	r4, r1
 80011d6:	eb0a 0804 	add.w	r8, sl, r4
	if(pDevice->ulQueryIndex < QUERY_SIZE)
 80011da:	f508 5980 	add.w	r9, r8, #4096	; 0x1000
	Process_BackgroundUpdate(pDevice,pData);
 80011de:	4601      	mov	r1, r0
 80011e0:	4640      	mov	r0, r8
 80011e2:	f7ff ff89 	bl	80010f8 <Process_BackgroundUpdate>
	if(pDevice->ulQueryIndex < QUERY_SIZE)
 80011e6:	f899 0000 	ldrb.w	r0, [r9]
 80011ea:	2803      	cmp	r0, #3
 80011ec:	4655      	mov	r5, sl
 80011ee:	d80f      	bhi.n	8001210 <Process_Update+0x54>
		memcpy(pDevice->ulQueryData[pDevice->ulQueryIndex],pData,sizeof(uint16_t) * ARRAY_SIZE);
 80011f0:	3004      	adds	r0, #4
 80011f2:	eb04 2040 	add.w	r0, r4, r0, lsl #9
 80011f6:	f44f 7200 	mov.w	r2, #512	; 0x200
 80011fa:	4639      	mov	r1, r7
 80011fc:	4450      	add	r0, sl
 80011fe:	f005 fe07 	bl	8006e10 <memcpy>
		pDevice->ulQueryIndex++;
 8001202:	f899 3000 	ldrb.w	r3, [r9]
 8001206:	3301      	adds	r3, #1
 8001208:	f889 3000 	strb.w	r3, [r9]
 800120c:	e8bd 87f0 	ldmia.w	sp!, {r4, r5, r6, r7, r8, r9, sl, pc}
		memcpy(&pDevice->ulQueryData[0],&pDevice->ulQueryData[1],sizeof(uint16_t) * ARRAY_SIZE * (QUERY_SIZE - 1));
 8001210:	f504 6000 	add.w	r0, r4, #2048	; 0x800
 8001214:	f504 6120 	add.w	r1, r4, #2560	; 0xa00
 8001218:	f44f 62c0 	mov.w	r2, #1536	; 0x600
 800121c:	4451      	add	r1, sl
 800121e:	4450      	add	r0, sl
 8001220:	f005 fdf6 	bl	8006e10 <memcpy>
		memcpy(&pDevice->ulQueryData[(QUERY_SIZE - 1)],pData,sizeof(uint16_t) * ARRAY_SIZE);
 8001224:	f504 6060 	add.w	r0, r4, #3584	; 0xe00
 8001228:	4639      	mov	r1, r7
 800122a:	f44f 7200 	mov.w	r2, #512	; 0x200
 800122e:	4450      	add	r0, sl
 8001230:	f005 fdee 	bl	8006e10 <memcpy>
		memset(pDevice->ulData,0,sizeof(uint16_t) * ARRAY_SIZE);
 8001234:	f504 6080 	add.w	r0, r4, #1024	; 0x400
 8001238:	182f      	adds	r7, r5, r0
 800123a:	f44f 7200 	mov.w	r2, #512	; 0x200
 800123e:	2100      	movs	r1, #0
 8001240:	4638      	mov	r0, r7
 8001242:	f204 54fe 	addw	r4, r4, #1534	; 0x5fe
 8001246:	f005 fdee 	bl	8006e26 <memset>
 800124a:	4454      	add	r4, sl
 800124c:	1eb8      	subs	r0, r7, #2
 800124e:	2200      	movs	r2, #0
{
 8001250:	4603      	mov	r3, r0
				pDevice->ulData[j]+=pDevice->ulQueryData[i][j];
 8001252:	1899      	adds	r1, r3, r2
 8001254:	885f      	ldrh	r7, [r3, #2]
 8001256:	f8b1 1402 	ldrh.w	r1, [r1, #1026]	; 0x402
 800125a:	4439      	add	r1, r7
 800125c:	f823 1f02 	strh.w	r1, [r3, #2]!
			for(int j = 0;j<ARRAY_SIZE;j++){
 8001260:	42a3      	cmp	r3, r4
 8001262:	d1f6      	bne.n	8001252 <Process_Update+0x96>
 8001264:	f502 7200 	add.w	r2, r2, #512	; 0x200
		for(int i = 0;i<QUERY_SIZE;i++){
 8001268:	f5b2 6f00 	cmp.w	r2, #2048	; 0x800
 800126c:	d1f0      	bne.n	8001250 <Process_Update+0x94>
			pDevice->ulData[i] = pDevice->ulData[i] / QUERY_SIZE;
 800126e:	8842      	ldrh	r2, [r0, #2]
 8001270:	0892      	lsrs	r2, r2, #2
 8001272:	f820 2f02 	strh.w	r2, [r0, #2]!
		for(int i = 0;i<ARRAY_SIZE;i++)
 8001276:	4298      	cmp	r0, r3
 8001278:	d1f9      	bne.n	800126e <Process_Update+0xb2>
		if(pDevice->ulBackgroundIndex==BACKGROUND_SIZE)
 800127a:	f241 0304 	movw	r3, #4100	; 0x1004
 800127e:	fb03 5506 	mla	r5, r3, r6, r5
 8001282:	f241 0301 	movw	r3, #4097	; 0x1001
 8001286:	5ceb      	ldrb	r3, [r5, r3]
 8001288:	2b1e      	cmp	r3, #30
 800128a:	d104      	bne.n	8001296 <Process_Update+0xda>
			Process_OpticalDensityCalculate(pDevice);
 800128c:	4640      	mov	r0, r8
}
 800128e:	e8bd 47f0 	ldmia.w	sp!, {r4, r5, r6, r7, r8, r9, sl, lr}
			Process_OpticalDensityCalculate(pDevice);
 8001292:	f7ff bf55 	b.w	8001140 <Process_OpticalDensityCalculate>
 8001296:	e8bd 87f0 	ldmia.w	sp!, {r4, r5, r6, r7, r8, r9, sl, pc}
 800129a:	bf00      	nop
 800129c:	10000000 	.word	0x10000000

080012a0 <Process_GetSourcelData>:
/*
 *
 */
uint16_t	*Process_GetSourcelData(uint8_t	channel)
{
	if(channel < TCD_SENSORS)
 80012a0:	2803      	cmp	r0, #3
		return Devices[channel].ulData;
 80012a2:	bf9f      	itttt	ls
 80012a4:	4b04      	ldrls	r3, [pc, #16]	; (80012b8 <Process_GetSourcelData+0x18>)
 80012a6:	f241 0204 	movwls	r2, #4100	; 0x1004
 80012aa:	fb02 3000 	mlals	r0, r2, r0, r3
 80012ae:	f500 6080 	addls.w	r0, r0, #1024	; 0x400
	else
		return 0;
 80012b2:	bf88      	it	hi
 80012b4:	2000      	movhi	r0, #0
}
 80012b6:	4770      	bx	lr
 80012b8:	10000000 	.word	0x10000000

080012bc <Process_GetOpticalData>:
/*----------------------------------------------------------------------------------------------------*/
uint16_t	*Process_GetOpticalData(uint8_t	channel)
{
	if(channel < TCD_SENSORS)
 80012bc:	2803      	cmp	r0, #3
		return Devices[channel].ulOpticalData;
 80012be:	bf9f      	itttt	ls
 80012c0:	4b04      	ldrls	r3, [pc, #16]	; (80012d4 <Process_GetOpticalData+0x18>)
 80012c2:	f241 0204 	movwls	r2, #4100	; 0x1004
 80012c6:	fb02 3000 	mlals	r0, r2, r0, r3
 80012ca:	f500 60c0 	addls.w	r0, r0, #1536	; 0x600
	else
		return 0;
 80012ce:	bf88      	it	hi
 80012d0:	2000      	movhi	r0, #0
}
 80012d2:	4770      	bx	lr
 80012d4:	10000000 	.word	0x10000000

080012d8 <Protocol_CreatePacket>:
  * @param  Len: Длина блока данных
  * @param  *pPackSize: Указатель на размер созданного пакета данных
  * @reval	указатель на созданный пакет данных
  */
uint8_t *Protocol_CreatePacket(uint8_t	Cmd,uint8_t *pData,uint8_t Len,uint8_t *pPackSize)
{
 80012d8:	e92d 43f8 	stmdb	sp!, {r3, r4, r5, r6, r7, r8, r9, lr}
	uint8_t	bufferSize = (uint8_t)(5 + Len);
 80012dc:	1d55      	adds	r5, r2, #5
 80012de:	b2ed      	uxtb	r5, r5
{
 80012e0:	4681      	mov	r9, r0
	uint8_t	*pBuf = (uint8_t*)pvPortMalloc(sizeof(uint8_t) * bufferSize);
 80012e2:	4628      	mov	r0, r5
{
 80012e4:	4688      	mov	r8, r1
 80012e6:	4616      	mov	r6, r2
 80012e8:	461f      	mov	r7, r3
	uint8_t	*pBuf = (uint8_t*)pvPortMalloc(sizeof(uint8_t) * bufferSize);
 80012ea:	f004 f907 	bl	80054fc <pvPortMalloc>

	uint16_t	ks = 0,i = 0;

	if(pBuf)
 80012ee:	4604      	mov	r4, r0
 80012f0:	b1a0      	cbz	r0, 800131c <Protocol_CreatePacket+0x44>
	{
		pBuf[0] = 0xAA;
 80012f2:	23aa      	movs	r3, #170	; 0xaa
 80012f4:	7003      	strb	r3, [r0, #0]
		pBuf[1] = bufferSize;
 80012f6:	7045      	strb	r5, [r0, #1]
		pBuf[2] = Cmd;
 80012f8:	f880 9002 	strb.w	r9, [r0, #2]
		memcpy((pBuf + 3),pData,Len);
 80012fc:	4632      	mov	r2, r6
 80012fe:	4641      	mov	r1, r8
 8001300:	3003      	adds	r0, #3
 8001302:	f005 fd85 	bl	8006e10 <memcpy>

			for(i = 0;i<bufferSize - 2;i++)
 8001306:	2300      	movs	r3, #0
	uint16_t	ks = 0,i = 0;
 8001308:	461a      	mov	r2, r3
			for(i = 0;i<bufferSize - 2;i++)
 800130a:	1ea9      	subs	r1, r5, #2
 800130c:	1c58      	adds	r0, r3, #1
 800130e:	b29b      	uxth	r3, r3
 8001310:	428b      	cmp	r3, r1
 8001312:	db06      	blt.n	8001322 <Protocol_CreatePacket+0x4a>
				ks+=pBuf[i];

		memcpy((pBuf + (bufferSize - 2)),&ks,2);
 8001314:	1963      	adds	r3, r4, r5
 8001316:	f823 2c02 	strh.w	r2, [r3, #-2]

		*pPackSize = bufferSize;
 800131a:	703d      	strb	r5, [r7, #0]
	}
	return pBuf;
}
 800131c:	4620      	mov	r0, r4
 800131e:	e8bd 83f8 	ldmia.w	sp!, {r3, r4, r5, r6, r7, r8, r9, pc}
				ks+=pBuf[i];
 8001322:	5ce3      	ldrb	r3, [r4, r3]
 8001324:	441a      	add	r2, r3
 8001326:	b292      	uxth	r2, r2
 8001328:	4603      	mov	r3, r0
 800132a:	e7ef      	b.n	800130c <Protocol_CreatePacket+0x34>

0800132c <Protocol_GetPacketFromStream>:
  * @param  *pDataBufIndex: Указатель на текущий индекс приемного буфера
  * @param  *packSize: Размер полученного пакета данных
  * @reval	указатель на полученный пакет данных
  */
uint8_t	*Protocol_GetPacketFromStream(uint8_t *pDataBuf,int sDataBuf, int	*pDataBufIndex, uint8_t	InputByte, int *packSize)
{
 800132c:	e92d 43f8 	stmdb	sp!, {r3, r4, r5, r6, r7, r8, r9, lr}
	uint16_t len;

	uint8_t *pD;
	int iD = 0;

	if (sDataBuf<=0)  return 0;
 8001330:	f1b1 0800 	subs.w	r8, r1, #0
{
 8001334:	4605      	mov	r5, r0
 8001336:	4617      	mov	r7, r2
 8001338:	4699      	mov	r9, r3
 800133a:	9e08      	ldr	r6, [sp, #32]
	if (sDataBuf<=0)  return 0;
 800133c:	dd58      	ble.n	80013f0 <Protocol_GetPacketFromStream+0xc4>
		index = *pDataBufIndex;
 800133e:	6814      	ldr	r4, [r2, #0]

	 // удаляем все до байта синхронизации
  if ((index>0) && (pDataBuf[0]!=0xAA)) {
 8001340:	2c00      	cmp	r4, #0
 8001342:	dd0f      	ble.n	8001364 <Protocol_GetPacketFromStream+0x38>
 8001344:	7803      	ldrb	r3, [r0, #0]
 8001346:	2baa      	cmp	r3, #170	; 0xaa
 8001348:	d12f      	bne.n	80013aa <Protocol_GetPacketFromStream+0x7e>
    while ((ii<index) && (pDataBuf[ii]!=0xAA))  ii++;
    memcpy(&pDataBuf[0],&pDataBuf[ii],index-ii);
    index=index-ii;
  }
	//проверяем переполнение
	if(index >= sDataBuf)
 800134a:	4544      	cmp	r4, r8
 800134c:	db0a      	blt.n	8001364 <Protocol_GetPacketFromStream+0x38>
	{
		 memcpy(&pDataBuf[0],&pDataBuf[1],sDataBuf-1);
 800134e:	f108 34ff 	add.w	r4, r8, #4294967295
 8001352:	4622      	mov	r2, r4
 8001354:	1c69      	adds	r1, r5, #1
 8001356:	4628      	mov	r0, r5
 8001358:	f005 fd5a 	bl	8006e10 <memcpy>
			index=sDataBuf-1;

		 if ((index>0) && (pDataBuf[0]!=0xAA)) {
 800135c:	b114      	cbz	r4, 8001364 <Protocol_GetPacketFromStream+0x38>
 800135e:	782b      	ldrb	r3, [r5, #0]
 8001360:	2baa      	cmp	r3, #170	; 0xaa
 8001362:	d130      	bne.n	80013c6 <Protocol_GetPacketFromStream+0x9a>
	}




	pDataBuf[index]=InputByte;
 8001364:	f805 9004 	strb.w	r9, [r5, r4]
		index++;
 8001368:	3401      	adds	r4, #1
			*pDataBufIndex=index;
 800136a:	603c      	str	r4, [r7, #0]
	int ks = 0,pKS = 0;
 800136c:	2200      	movs	r2, #0

	pD=(uint8_t* )pDataBuf;
	iD=index;

	while (1) {
		 if (iD<5)  break;
 800136e:	2c04      	cmp	r4, #4
 8001370:	dd3e      	ble.n	80013f0 <Protocol_GetPacketFromStream+0xc4>

			if(pD[0] == (uint8_t)0xAA){
 8001372:	782b      	ldrb	r3, [r5, #0]
 8001374:	2baa      	cmp	r3, #170	; 0xaa
 8001376:	d138      	bne.n	80013ea <Protocol_GetPacketFromStream+0xbe>
				len = 	(uint8_t)pD[1];
 8001378:	786b      	ldrb	r3, [r5, #1]

				if(iD>=len)
 800137a:	429c      	cmp	r4, r3
 800137c:	db35      	blt.n	80013ea <Protocol_GetPacketFromStream+0xbe>
				{
					if(len>0){
 800137e:	b3a3      	cbz	r3, 80013ea <Protocol_GetPacketFromStream+0xbe>
					//pKS = (pD[len-2] << 8) | pD[len-1];
					pKS = (pD[len-1] << 8) | pD[len-2];
 8001380:	18e8      	adds	r0, r5, r3
 8001382:	f810 7c01 	ldrb.w	r7, [r0, #-1]
 8001386:	f810 1c02 	ldrb.w	r1, [r0, #-2]

					for(i = 0;i<len-2;i++){
 800138a:	4628      	mov	r0, r5
					pKS = (pD[len-1] << 8) | pD[len-2];
 800138c:	ea41 2107 	orr.w	r1, r1, r7, lsl #8
					for(i = 0;i<len-2;i++){
 8001390:	1e9f      	subs	r7, r3, #2
 8001392:	eba0 0e05 	sub.w	lr, r0, r5
 8001396:	45be      	cmp	lr, r7
 8001398:	db23      	blt.n	80013e2 <Protocol_GetPacketFromStream+0xb6>
						ks+=pD[i];	//посчитали КС
						}

						if(pKS == ks)
 800139a:	428a      	cmp	r2, r1
 800139c:	d125      	bne.n	80013ea <Protocol_GetPacketFromStream+0xbe>
						{
							if(packSize)	*packSize = (len - 5);
 800139e:	b10e      	cbz	r6, 80013a4 <Protocol_GetPacketFromStream+0x78>
 80013a0:	3b05      	subs	r3, #5
 80013a2:	6033      	str	r3, [r6, #0]
			pD++;
			iD--;
	}
	return 0;

}
 80013a4:	4628      	mov	r0, r5
 80013a6:	e8bd 83f8 	ldmia.w	sp!, {r3, r4, r5, r6, r7, r8, r9, pc}
 80013aa:	2100      	movs	r1, #0
    while ((ii<index) && (pDataBuf[ii]!=0xAA))  ii++;
 80013ac:	5c6b      	ldrb	r3, [r5, r1]
 80013ae:	2baa      	cmp	r3, #170	; 0xaa
 80013b0:	d002      	beq.n	80013b8 <Protocol_GetPacketFromStream+0x8c>
 80013b2:	3101      	adds	r1, #1
 80013b4:	428c      	cmp	r4, r1
 80013b6:	d1f9      	bne.n	80013ac <Protocol_GetPacketFromStream+0x80>
    memcpy(&pDataBuf[0],&pDataBuf[ii],index-ii);
 80013b8:	1a64      	subs	r4, r4, r1
 80013ba:	4622      	mov	r2, r4
 80013bc:	4429      	add	r1, r5
 80013be:	4628      	mov	r0, r5
 80013c0:	f005 fd26 	bl	8006e10 <memcpy>
 80013c4:	e7c1      	b.n	800134a <Protocol_GetPacketFromStream+0x1e>
 80013c6:	2100      	movs	r1, #0
      while ((ii<index) && (pDataBuf[ii]!=0xAA))  ii++;
 80013c8:	5c6b      	ldrb	r3, [r5, r1]
 80013ca:	2baa      	cmp	r3, #170	; 0xaa
 80013cc:	d002      	beq.n	80013d4 <Protocol_GetPacketFromStream+0xa8>
 80013ce:	3101      	adds	r1, #1
 80013d0:	428c      	cmp	r4, r1
 80013d2:	dcf9      	bgt.n	80013c8 <Protocol_GetPacketFromStream+0x9c>
      memcpy(&pDataBuf[0],&pDataBuf[ii],index-ii);
 80013d4:	1a64      	subs	r4, r4, r1
 80013d6:	4622      	mov	r2, r4
 80013d8:	4429      	add	r1, r5
 80013da:	4628      	mov	r0, r5
 80013dc:	f005 fd18 	bl	8006e10 <memcpy>
 80013e0:	e7c0      	b.n	8001364 <Protocol_GetPacketFromStream+0x38>
						ks+=pD[i];	//посчитали КС
 80013e2:	f810 eb01 	ldrb.w	lr, [r0], #1
 80013e6:	4472      	add	r2, lr
 80013e8:	e7d3      	b.n	8001392 <Protocol_GetPacketFromStream+0x66>
			pD++;
 80013ea:	3501      	adds	r5, #1
			iD--;
 80013ec:	3c01      	subs	r4, #1
		 if (iD<5)  break;
 80013ee:	e7be      	b.n	800136e <Protocol_GetPacketFromStream+0x42>
	if (sDataBuf<=0)  return 0;
 80013f0:	2500      	movs	r5, #0
 80013f2:	e7d7      	b.n	80013a4 <Protocol_GetPacketFromStream+0x78>

080013f4 <Protocol_SendLinearSensorDataPack>:
  * @param  *pData: Указатель на данные линейки
  * @param  Len: Размер пакета данных линейки
  * @reval	None
  */
void Protocol_SendLinearSensorDataPack(uint8_t	linearNumber,uint8_t dataType,uint8_t packId,uint8_t	*pData,uint8_t	Len)
{
 80013f4:	e92d 47f3 	stmdb	sp!, {r0, r1, r4, r5, r6, r7, r8, r9, sl, lr}
 80013f8:	f89d 6028 	ldrb.w	r6, [sp, #40]	; 0x28
	uint8_t		packSize = 0;
	uint8_t		*pModPackage = pvPortMalloc(Len + 2);
 80013fc:	1cb5      	adds	r5, r6, #2
{
 80013fe:	4607      	mov	r7, r0
 8001400:	4698      	mov	r8, r3
	uint8_t		*pModPackage = pvPortMalloc(Len + 2);
 8001402:	4628      	mov	r0, r5
	uint8_t		packSize = 0;
 8001404:	2300      	movs	r3, #0
{
 8001406:	468a      	mov	sl, r1
 8001408:	4691      	mov	r9, r2
	uint8_t		packSize = 0;
 800140a:	f88d 3007 	strb.w	r3, [sp, #7]
	uint8_t		*pModPackage = pvPortMalloc(Len + 2);
 800140e:	f004 f875 	bl	80054fc <pvPortMalloc>

	if(pModPackage)
 8001412:	4604      	mov	r4, r0
 8001414:	b1c8      	cbz	r0, 800144a <Protocol_SendLinearSensorDataPack+0x56>
	{
		pModPackage[0] = dataType;
 8001416:	f880 a000 	strb.w	sl, [r0]
		pModPackage[1] = packId;
 800141a:	f880 9001 	strb.w	r9, [r0, #1]
		memcpy(pModPackage + 2,pData,sizeof(uint8_t)*Len);
 800141e:	4632      	mov	r2, r6
 8001420:	4641      	mov	r1, r8
 8001422:	3002      	adds	r0, #2
 8001424:	f005 fcf4 	bl	8006e10 <memcpy>

		uint8_t		*pPackage = Protocol_CreatePacket(linearNumber,pModPackage,Len + 2,&packSize);
 8001428:	b2ea      	uxtb	r2, r5
 800142a:	f10d 0307 	add.w	r3, sp, #7
 800142e:	4621      	mov	r1, r4
 8001430:	4638      	mov	r0, r7
 8001432:	f7ff ff51 	bl	80012d8 <Protocol_CreatePacket>
		if(pPackage){
 8001436:	4605      	mov	r5, r0
 8001438:	b138      	cbz	r0, 800144a <Protocol_SendLinearSensorDataPack+0x56>
			vPortFree(pModPackage);
 800143a:	4620      	mov	r0, r4
 800143c:	f004 f8ec 	bl	8005618 <vPortFree>
			BSP_Usb_SendPackage(pPackage,packSize);
 8001440:	f89d 1007 	ldrb.w	r1, [sp, #7]
 8001444:	4628      	mov	r0, r5
 8001446:	f000 fdbd 	bl	8001fc4 <BSP_Usb_SendPackage>
			}
	}
}
 800144a:	b002      	add	sp, #8
 800144c:	e8bd 87f0 	ldmia.w	sp!, {r4, r5, r6, r7, r8, r9, sl, pc}

08001450 <Protocol_SendLinearSensorData>:
  * @param  linearNumber: Номер линейки
  * @param  *pData: Указатель на данные линейки
  * @reval	None
  */
void Protocol_SendLinearSensorData(uint8_t	linearNumber,uint8_t	dataType,uint8_t	*pData)
{
 8001450:	b5f7      	push	{r0, r1, r2, r4, r5, r6, r7, lr}
	Protocol_SendLinearSensorDataPack(linearNumber,dataType,0x01,(uint8_t*)pData,128);
 8001452:	2580      	movs	r5, #128	; 0x80
{
 8001454:	4606      	mov	r6, r0
 8001456:	460f      	mov	r7, r1
 8001458:	4614      	mov	r4, r2
	Protocol_SendLinearSensorDataPack(linearNumber,dataType,0x01,(uint8_t*)pData,128);
 800145a:	4613      	mov	r3, r2
 800145c:	9500      	str	r5, [sp, #0]
 800145e:	2201      	movs	r2, #1
 8001460:	f7ff ffc8 	bl	80013f4 <Protocol_SendLinearSensorDataPack>
	Protocol_SendLinearSensorDataPack(linearNumber,dataType,0x02,(uint8_t*)pData+128,128);
 8001464:	1963      	adds	r3, r4, r5
 8001466:	4639      	mov	r1, r7
 8001468:	4630      	mov	r0, r6
 800146a:	9500      	str	r5, [sp, #0]
 800146c:	2202      	movs	r2, #2
 800146e:	f7ff ffc1 	bl	80013f4 <Protocol_SendLinearSensorDataPack>
	Protocol_SendLinearSensorDataPack(linearNumber,dataType,0x03,(uint8_t*)pData+256,128);
 8001472:	f504 7380 	add.w	r3, r4, #256	; 0x100
 8001476:	4639      	mov	r1, r7
 8001478:	4630      	mov	r0, r6
 800147a:	9500      	str	r5, [sp, #0]
 800147c:	2203      	movs	r2, #3
 800147e:	f7ff ffb9 	bl	80013f4 <Protocol_SendLinearSensorDataPack>
	Protocol_SendLinearSensorDataPack(linearNumber,dataType,0x04,(uint8_t*)pData+384,128);
 8001482:	9500      	str	r5, [sp, #0]
 8001484:	f504 73c0 	add.w	r3, r4, #384	; 0x180
 8001488:	2204      	movs	r2, #4
 800148a:	4639      	mov	r1, r7
 800148c:	4630      	mov	r0, r6
 800148e:	f7ff ffb1 	bl	80013f4 <Protocol_SendLinearSensorDataPack>
}
 8001492:	b003      	add	sp, #12
 8001494:	bdf0      	pop	{r4, r5, r6, r7, pc}

08001496 <Protocol_SendPingResponse>:

void Protocol_SendPingResponse()
{
 8001496:	b507      	push	{r0, r1, r2, lr}
	uint8_t		packSize = 0;
 8001498:	ab02      	add	r3, sp, #8
 800149a:	2200      	movs	r2, #0
 800149c:	f803 2d01 	strb.w	r2, [r3, #-1]!
	uint8_t		*pPackage = Protocol_CreatePacket(LIN_DATA_PING_RESPONSE,0,0,&packSize);
 80014a0:	4611      	mov	r1, r2
 80014a2:	2006      	movs	r0, #6
 80014a4:	f7ff ff18 	bl	80012d8 <Protocol_CreatePacket>

	if(pPackage){
 80014a8:	b118      	cbz	r0, 80014b2 <Protocol_SendPingResponse+0x1c>
				BSP_Usb_SendPackage(pPackage,packSize);
 80014aa:	f89d 1007 	ldrb.w	r1, [sp, #7]
 80014ae:	f000 fd89 	bl	8001fc4 <BSP_Usb_SendPackage>
	}
}
 80014b2:	b003      	add	sp, #12
 80014b4:	f85d fb04 	ldr.w	pc, [sp], #4

080014b8 <Protocol_RxPackageAnalysis>:
	uint16_t	*pLinear1 = sendCopyBuf1;
	uint16_t	*pLinear2 = sendCopyBuf2;
	uint16_t	*pLinear3 = sendCopyBuf3;
	uint16_t	*pLinear4 = sendCopyBuf4;

	switch(Code)
 80014b8:	7883      	ldrb	r3, [r0, #2]
 80014ba:	2b80      	cmp	r3, #128	; 0x80
 80014bc:	d002      	beq.n	80014c4 <Protocol_RxPackageAnalysis+0xc>
 80014be:	2b86      	cmp	r3, #134	; 0x86
 80014c0:	d01c      	beq.n	80014fc <Protocol_RxPackageAnalysis+0x44>
 80014c2:	4770      	bx	lr
	{
		case PWM_DATA_VALUE_CMD:
		{
			uint8_t		PWMIndex = pPackage[3];
			uint16_t	PWMValue = (uint16_t)(pPackage[5] << 8 | pPackage[4]);
 80014c4:	7942      	ldrb	r2, [r0, #5]
 80014c6:	7903      	ldrb	r3, [r0, #4]
 80014c8:	ea43 2302 	orr.w	r3, r3, r2, lsl #8

 			switch(PWMIndex)
 80014cc:	78c2      	ldrb	r2, [r0, #3]
 80014ce:	3a01      	subs	r2, #1
 80014d0:	2a03      	cmp	r2, #3
 80014d2:	d815      	bhi.n	8001500 <Protocol_RxPackageAnalysis+0x48>
 80014d4:	e8df f002 	tbb	[pc, r2]
 80014d8:	0e0a0602 	.word	0x0e0a0602
			{
				case 0x01:	TIM2->CCR1 = PWMValue; 	break;
 80014dc:	f04f 4280 	mov.w	r2, #1073741824	; 0x40000000
 80014e0:	6353      	str	r3, [r2, #52]	; 0x34
 80014e2:	4770      	bx	lr
				case 0x02:	TIM2->CCR2 = PWMValue; 	break;
 80014e4:	f04f 4280 	mov.w	r2, #1073741824	; 0x40000000
 80014e8:	6393      	str	r3, [r2, #56]	; 0x38
 80014ea:	4770      	bx	lr
				case 0x03:	TIM2->CCR3 = PWMValue;	break;
 80014ec:	f04f 4280 	mov.w	r2, #1073741824	; 0x40000000
 80014f0:	63d3      	str	r3, [r2, #60]	; 0x3c
 80014f2:	4770      	bx	lr
				case 0x04:	TIM2->CCR4 = PWMValue;	break;
 80014f4:	f04f 4280 	mov.w	r2, #1073741824	; 0x40000000
 80014f8:	6413      	str	r3, [r2, #64]	; 0x40
 80014fa:	4770      	bx	lr

		}break;

		case LIN_DATA_PING_REQUEST:
		{
			Protocol_SendPingResponse();
 80014fc:	f7ff bfcb 	b.w	8001496 <Protocol_SendPingResponse>
 8001500:	4770      	bx	lr

08001502 <HAL_MspInit>:
/**
  * Initializes the Global MSP.
  */

void HAL_MspInit(void)
{
 8001502:	b508      	push	{r3, lr}
  /* USER CODE BEGIN MspInit 0 */

  /* USER CODE END MspInit 0 */

  HAL_NVIC_SetPriorityGrouping(NVIC_PRIORITYGROUP_4);
 8001504:	2003      	movs	r0, #3
 8001506:	f001 f845 	bl	8002594 <HAL_NVIC_SetPriorityGrouping>

  /* System interrupt init*/
  /* MemoryManagement_IRQn interrupt configuration */
  HAL_NVIC_SetPriority(MemoryManagement_IRQn, 0, 0);
 800150a:	2200      	movs	r2, #0
 800150c:	4611      	mov	r1, r2
 800150e:	f06f 000b 	mvn.w	r0, #11
 8001512:	f001 f851 	bl	80025b8 <HAL_NVIC_SetPriority>
  /* BusFault_IRQn interrupt configuration */
  HAL_NVIC_SetPriority(BusFault_IRQn, 0, 0);
 8001516:	2200      	movs	r2, #0
 8001518:	4611      	mov	r1, r2
 800151a:	f06f 000a 	mvn.w	r0, #10
 800151e:	f001 f84b 	bl	80025b8 <HAL_NVIC_SetPriority>
  /* UsageFault_IRQn interrupt configuration */
  HAL_NVIC_SetPriority(UsageFault_IRQn, 0, 0);
 8001522:	2200      	movs	r2, #0
 8001524:	4611      	mov	r1, r2
 8001526:	f06f 0009 	mvn.w	r0, #9
 800152a:	f001 f845 	bl	80025b8 <HAL_NVIC_SetPriority>
  /* SVCall_IRQn interrupt configuration */
  HAL_NVIC_SetPriority(SVCall_IRQn, 0, 0);
 800152e:	2200      	movs	r2, #0
 8001530:	4611      	mov	r1, r2
 8001532:	f06f 0004 	mvn.w	r0, #4
 8001536:	f001 f83f 	bl	80025b8 <HAL_NVIC_SetPriority>
  /* DebugMonitor_IRQn interrupt configuration */
  HAL_NVIC_SetPriority(DebugMonitor_IRQn, 0, 0);
 800153a:	2200      	movs	r2, #0
 800153c:	4611      	mov	r1, r2
 800153e:	f06f 0003 	mvn.w	r0, #3
 8001542:	f001 f839 	bl	80025b8 <HAL_NVIC_SetPriority>
  /* PendSV_IRQn interrupt configuration */
  HAL_NVIC_SetPriority(PendSV_IRQn, 15, 0);
 8001546:	2200      	movs	r2, #0
 8001548:	210f      	movs	r1, #15
 800154a:	f06f 0001 	mvn.w	r0, #1
 800154e:	f001 f833 	bl	80025b8 <HAL_NVIC_SetPriority>
  /* SysTick_IRQn interrupt configuration */
  HAL_NVIC_SetPriority(SysTick_IRQn, 15, 0);
 8001552:	2200      	movs	r2, #0
 8001554:	210f      	movs	r1, #15
 8001556:	f04f 30ff 	mov.w	r0, #4294967295

  /* USER CODE BEGIN MspInit 1 */

  /* USER CODE END MspInit 1 */
}
 800155a:	e8bd 4008 	ldmia.w	sp!, {r3, lr}
  HAL_NVIC_SetPriority(SysTick_IRQn, 15, 0);
 800155e:	f001 b82b 	b.w	80025b8 <HAL_NVIC_SetPriority>
	...

08001564 <HAL_TIM_PWM_MspInit>:
  *           - Peripheral's GPIO Configuration
  * @param htim: TIM handle pointer
  * @retval None
  */
void HAL_TIM_PWM_MspInit(TIM_HandleTypeDef *htim)
{
 8001564:	b5f0      	push	{r4, r5, r6, r7, lr}
  GPIO_InitTypeDef   GPIO_InitStruct;

  if(htim->Instance == TIM2)
 8001566:	6803      	ldr	r3, [r0, #0]
 8001568:	f1b3 4f80 	cmp.w	r3, #1073741824	; 0x40000000
{
 800156c:	b089      	sub	sp, #36	; 0x24
  if(htim->Instance == TIM2)
 800156e:	d10d      	bne.n	800158c <HAL_TIM_PWM_MspInit+0x28>
  {
	  __HAL_RCC_TIM2_CLK_ENABLE();
 8001570:	2300      	movs	r3, #0
 8001572:	9303      	str	r3, [sp, #12]
 8001574:	4b2a      	ldr	r3, [pc, #168]	; (8001620 <HAL_TIM_PWM_MspInit+0xbc>)
 8001576:	6c1a      	ldr	r2, [r3, #64]	; 0x40
 8001578:	f042 0201 	orr.w	r2, r2, #1
 800157c:	641a      	str	r2, [r3, #64]	; 0x40
 800157e:	6c1b      	ldr	r3, [r3, #64]	; 0x40
 8001580:	f003 0301 	and.w	r3, r3, #1
 8001584:	9303      	str	r3, [sp, #12]
 8001586:	9b03      	ldr	r3, [sp, #12]

	  HAL_NVIC_SetPriority(TIM3_IRQn, 6, 0);
	  HAL_NVIC_EnableIRQ(TIM3_IRQn);
  }

}
 8001588:	b009      	add	sp, #36	; 0x24
 800158a:	bdf0      	pop	{r4, r5, r6, r7, pc}
  if(htim->Instance == TIM3)
 800158c:	4a25      	ldr	r2, [pc, #148]	; (8001624 <HAL_TIM_PWM_MspInit+0xc0>)
 800158e:	4293      	cmp	r3, r2
 8001590:	d1fa      	bne.n	8001588 <HAL_TIM_PWM_MspInit+0x24>
	  __HAL_RCC_GPIOA_CLK_ENABLE();
 8001592:	4b23      	ldr	r3, [pc, #140]	; (8001620 <HAL_TIM_PWM_MspInit+0xbc>)
	  HAL_GPIO_Init(GPIOC, &GPIO_InitStruct);
 8001594:	4824      	ldr	r0, [pc, #144]	; (8001628 <HAL_TIM_PWM_MspInit+0xc4>)
	  __HAL_RCC_GPIOA_CLK_ENABLE();
 8001596:	2400      	movs	r4, #0
 8001598:	9400      	str	r4, [sp, #0]
 800159a:	6b1a      	ldr	r2, [r3, #48]	; 0x30
 800159c:	f042 0201 	orr.w	r2, r2, #1
 80015a0:	631a      	str	r2, [r3, #48]	; 0x30
 80015a2:	6b1a      	ldr	r2, [r3, #48]	; 0x30
 80015a4:	f002 0201 	and.w	r2, r2, #1
 80015a8:	9200      	str	r2, [sp, #0]
 80015aa:	9a00      	ldr	r2, [sp, #0]
	  __HAL_RCC_GPIOC_CLK_ENABLE();
 80015ac:	9401      	str	r4, [sp, #4]
 80015ae:	6b1a      	ldr	r2, [r3, #48]	; 0x30
 80015b0:	f042 0204 	orr.w	r2, r2, #4
 80015b4:	631a      	str	r2, [r3, #48]	; 0x30
 80015b6:	6b1a      	ldr	r2, [r3, #48]	; 0x30
 80015b8:	f002 0204 	and.w	r2, r2, #4
 80015bc:	9201      	str	r2, [sp, #4]
 80015be:	9a01      	ldr	r2, [sp, #4]
	  __HAL_RCC_TIM3_CLK_ENABLE();
 80015c0:	9402      	str	r4, [sp, #8]
 80015c2:	6c1a      	ldr	r2, [r3, #64]	; 0x40
 80015c4:	f042 0202 	orr.w	r2, r2, #2
 80015c8:	641a      	str	r2, [r3, #64]	; 0x40
 80015ca:	6c1b      	ldr	r3, [r3, #64]	; 0x40
 80015cc:	f003 0302 	and.w	r3, r3, #2
 80015d0:	9302      	str	r3, [sp, #8]
	  GPIO_InitStruct.Pin = GPIO_PIN_6;
 80015d2:	ae08      	add	r6, sp, #32
	  __HAL_RCC_TIM3_CLK_ENABLE();
 80015d4:	9b02      	ldr	r3, [sp, #8]
	  GPIO_InitStruct.Mode = GPIO_MODE_AF_PP;
 80015d6:	2302      	movs	r3, #2
 80015d8:	9304      	str	r3, [sp, #16]
	  GPIO_InitStruct.Alternate = GPIO_AF2_TIM3;
 80015da:	9307      	str	r3, [sp, #28]
	  GPIO_InitStruct.Pin = GPIO_PIN_6;
 80015dc:	2340      	movs	r3, #64	; 0x40
 80015de:	f846 3d14 	str.w	r3, [r6, #-20]!
	  GPIO_InitStruct.Pull = GPIO_PULLUP;
 80015e2:	2501      	movs	r5, #1
	  GPIO_InitStruct.Speed = GPIO_SPEED_HIGH;
 80015e4:	2703      	movs	r7, #3
	  HAL_GPIO_Init(GPIOC, &GPIO_InitStruct);
 80015e6:	4631      	mov	r1, r6
	  GPIO_InitStruct.Speed = GPIO_SPEED_HIGH;
 80015e8:	9706      	str	r7, [sp, #24]
	  GPIO_InitStruct.Pull = GPIO_PULLUP;
 80015ea:	9505      	str	r5, [sp, #20]
	  HAL_GPIO_Init(GPIOC, &GPIO_InitStruct);
 80015ec:	f001 f9d2 	bl	8002994 <HAL_GPIO_Init>
	  GPIO_InitStruct.Speed = GPIO_SPEED_HIGH;
 80015f0:	9706      	str	r7, [sp, #24]
	  HAL_GPIO_Init(GPIOC, &GPIO_InitStruct);
 80015f2:	4631      	mov	r1, r6
	  GPIO_InitStruct.Pin = GPIO_PIN_2;
 80015f4:	2704      	movs	r7, #4
	  HAL_GPIO_Init(GPIOC, &GPIO_InitStruct);
 80015f6:	480c      	ldr	r0, [pc, #48]	; (8001628 <HAL_TIM_PWM_MspInit+0xc4>)
	  GPIO_InitStruct.Mode = GPIO_MODE_OUTPUT_PP;
 80015f8:	9504      	str	r5, [sp, #16]
	  GPIO_InitStruct.Pull = GPIO_PULLUP;
 80015fa:	9505      	str	r5, [sp, #20]
	  GPIO_InitStruct.Pin = GPIO_PIN_2;
 80015fc:	9703      	str	r7, [sp, #12]
	  HAL_GPIO_Init(GPIOC, &GPIO_InitStruct);
 80015fe:	f001 f9c9 	bl	8002994 <HAL_GPIO_Init>
	  HAL_GPIO_WritePin(GPIOC,GPIO_PIN_2,GPIO_PIN_SET);
 8001602:	462a      	mov	r2, r5
 8001604:	4639      	mov	r1, r7
 8001606:	4808      	ldr	r0, [pc, #32]	; (8001628 <HAL_TIM_PWM_MspInit+0xc4>)
 8001608:	f001 fab0 	bl	8002b6c <HAL_GPIO_WritePin>
	  HAL_NVIC_SetPriority(TIM3_IRQn, 6, 0);
 800160c:	4622      	mov	r2, r4
 800160e:	2106      	movs	r1, #6
 8001610:	201d      	movs	r0, #29
 8001612:	f000 ffd1 	bl	80025b8 <HAL_NVIC_SetPriority>
	  HAL_NVIC_EnableIRQ(TIM3_IRQn);
 8001616:	201d      	movs	r0, #29
 8001618:	f001 f802 	bl	8002620 <HAL_NVIC_EnableIRQ>
}
 800161c:	e7b4      	b.n	8001588 <HAL_TIM_PWM_MspInit+0x24>
 800161e:	bf00      	nop
 8001620:	40023800 	.word	0x40023800
 8001624:	40000400 	.word	0x40000400
 8001628:	40020800 	.word	0x40020800

0800162c <HAL_TIM_Base_MspInit>:

void HAL_TIM_Base_MspInit(TIM_HandleTypeDef *htim)
{
 800162c:	b510      	push	{r4, lr}
	GPIO_InitTypeDef   GPIO_InitStruct;

	  if(htim->Instance == TIM4)
 800162e:	6802      	ldr	r2, [r0, #0]
 8001630:	4b18      	ldr	r3, [pc, #96]	; (8001694 <HAL_TIM_Base_MspInit+0x68>)
 8001632:	429a      	cmp	r2, r3
{
 8001634:	b088      	sub	sp, #32
	  if(htim->Instance == TIM4)
 8001636:	d12a      	bne.n	800168e <HAL_TIM_Base_MspInit+0x62>
	  {
		  __HAL_RCC_TIM4_CLK_ENABLE();
 8001638:	f503 330c 	add.w	r3, r3, #143360	; 0x23000
 800163c:	2400      	movs	r4, #0
 800163e:	9401      	str	r4, [sp, #4]
 8001640:	6c1a      	ldr	r2, [r3, #64]	; 0x40
		  GPIO_InitStruct.Mode = GPIO_MODE_OUTPUT_PP;
		  GPIO_InitStruct.Pull = GPIO_PULLUP;
		  GPIO_InitStruct.Speed = GPIO_SPEED_HIGH;

		  GPIO_InitStruct.Pin = GPIO_PIN_1;
		  HAL_GPIO_Init(GPIOB, &GPIO_InitStruct);
 8001642:	4815      	ldr	r0, [pc, #84]	; (8001698 <HAL_TIM_Base_MspInit+0x6c>)
		  __HAL_RCC_TIM4_CLK_ENABLE();
 8001644:	f042 0204 	orr.w	r2, r2, #4
 8001648:	641a      	str	r2, [r3, #64]	; 0x40
 800164a:	6c1a      	ldr	r2, [r3, #64]	; 0x40
 800164c:	f002 0204 	and.w	r2, r2, #4
 8001650:	9201      	str	r2, [sp, #4]
 8001652:	9a01      	ldr	r2, [sp, #4]
		  __HAL_RCC_GPIOB_CLK_ENABLE();
 8001654:	9402      	str	r4, [sp, #8]
 8001656:	6b1a      	ldr	r2, [r3, #48]	; 0x30
 8001658:	f042 0202 	orr.w	r2, r2, #2
 800165c:	631a      	str	r2, [r3, #48]	; 0x30
 800165e:	6b1b      	ldr	r3, [r3, #48]	; 0x30
 8001660:	f003 0302 	and.w	r3, r3, #2
 8001664:	9302      	str	r3, [sp, #8]
 8001666:	9b02      	ldr	r3, [sp, #8]
		  GPIO_InitStruct.Mode = GPIO_MODE_OUTPUT_PP;
 8001668:	2301      	movs	r3, #1
		  GPIO_InitStruct.Pin = GPIO_PIN_1;
 800166a:	a908      	add	r1, sp, #32
		  GPIO_InitStruct.Mode = GPIO_MODE_OUTPUT_PP;
 800166c:	9304      	str	r3, [sp, #16]
		  GPIO_InitStruct.Pull = GPIO_PULLUP;
 800166e:	9305      	str	r3, [sp, #20]
		  GPIO_InitStruct.Speed = GPIO_SPEED_HIGH;
 8001670:	2303      	movs	r3, #3
 8001672:	9306      	str	r3, [sp, #24]
		  GPIO_InitStruct.Pin = GPIO_PIN_1;
 8001674:	2302      	movs	r3, #2
 8001676:	f841 3d14 	str.w	r3, [r1, #-20]!
		  HAL_GPIO_Init(GPIOB, &GPIO_InitStruct);
 800167a:	f001 f98b 	bl	8002994 <HAL_GPIO_Init>


		  HAL_NVIC_SetPriority(TIM4_IRQn, 10, 0);
 800167e:	201e      	movs	r0, #30
 8001680:	4622      	mov	r2, r4
 8001682:	210a      	movs	r1, #10
 8001684:	f000 ff98 	bl	80025b8 <HAL_NVIC_SetPriority>
		  HAL_NVIC_EnableIRQ(TIM4_IRQn);
 8001688:	201e      	movs	r0, #30
 800168a:	f000 ffc9 	bl	8002620 <HAL_NVIC_EnableIRQ>
	  }
}
 800168e:	b008      	add	sp, #32
 8001690:	bd10      	pop	{r4, pc}
 8001692:	bf00      	nop
 8001694:	40000800 	.word	0x40000800
 8001698:	40020400 	.word	0x40020400

0800169c <HAL_ADC_MspInit>:
  *           - Peripheral's GPIO Configuration
  * @param huart: UART handle pointer
  * @retval None
  */
void HAL_ADC_MspInit(ADC_HandleTypeDef* hadc)
{
 800169c:	b570      	push	{r4, r5, r6, lr}
  GPIO_InitTypeDef          GPIO_InitStruct;
  static DMA_HandleTypeDef  hdma_adc;
  static DMA_HandleTypeDef  hdma_adc2;


  if(hadc->Instance == ADC1)
 800169e:	6802      	ldr	r2, [r0, #0]
 80016a0:	4b5e      	ldr	r3, [pc, #376]	; (800181c <HAL_ADC_MspInit+0x180>)
 80016a2:	429a      	cmp	r2, r3
{
 80016a4:	b08c      	sub	sp, #48	; 0x30
 80016a6:	4606      	mov	r6, r0
  if(hadc->Instance == ADC1)
 80016a8:	d158      	bne.n	800175c <HAL_ADC_MspInit+0xc0>
  {
	  /*##-1- Enable peripherals and GPIO Clocks #################################*/
	  /* Enable GPIO clock */
	  __HAL_RCC_GPIOA_CLK_ENABLE();
 80016aa:	2500      	movs	r5, #0
 80016ac:	f503 338c 	add.w	r3, r3, #71680	; 0x11800
 80016b0:	9501      	str	r5, [sp, #4]
 80016b2:	6b1a      	ldr	r2, [r3, #48]	; 0x30
	  /*##-2- Configure peripheral GPIO ##########################################*/
	  /* ADC3 Channel8 GPIO pin configuration */
	  GPIO_InitStruct.Pin = GPIO_PIN_5 | GPIO_PIN_7;
	  GPIO_InitStruct.Mode = GPIO_MODE_ANALOG;
	  GPIO_InitStruct.Pull = GPIO_NOPULL;
	  HAL_GPIO_Init(GPIOA, &GPIO_InitStruct);
 80016b4:	485a      	ldr	r0, [pc, #360]	; (8001820 <HAL_ADC_MspInit+0x184>)

	  HAL_NVIC_SetPriority(ADC_IRQn, 9, 0);
	  HAL_NVIC_EnableIRQ(ADC_IRQn);
	  /*##-3- Configure the DMA streams ##########################################*/
	  /* Set the parameters to be configured */
	  hdma_adc.Instance = DMA2_Stream0;
 80016b6:	4c5b      	ldr	r4, [pc, #364]	; (8001824 <HAL_ADC_MspInit+0x188>)
	  __HAL_RCC_GPIOA_CLK_ENABLE();
 80016b8:	f042 0201 	orr.w	r2, r2, #1
 80016bc:	631a      	str	r2, [r3, #48]	; 0x30
 80016be:	6b1a      	ldr	r2, [r3, #48]	; 0x30
 80016c0:	f002 0201 	and.w	r2, r2, #1
 80016c4:	9201      	str	r2, [sp, #4]
 80016c6:	9a01      	ldr	r2, [sp, #4]
	  __HAL_RCC_ADC1_CLK_ENABLE();
 80016c8:	9502      	str	r5, [sp, #8]
 80016ca:	6c5a      	ldr	r2, [r3, #68]	; 0x44
 80016cc:	f442 7280 	orr.w	r2, r2, #256	; 0x100
 80016d0:	645a      	str	r2, [r3, #68]	; 0x44
 80016d2:	6c5a      	ldr	r2, [r3, #68]	; 0x44
 80016d4:	f402 7280 	and.w	r2, r2, #256	; 0x100
 80016d8:	9202      	str	r2, [sp, #8]
 80016da:	9a02      	ldr	r2, [sp, #8]
	  __HAL_RCC_DMA2_CLK_ENABLE();
 80016dc:	9503      	str	r5, [sp, #12]
 80016de:	6b1a      	ldr	r2, [r3, #48]	; 0x30
 80016e0:	f442 0280 	orr.w	r2, r2, #4194304	; 0x400000
 80016e4:	631a      	str	r2, [r3, #48]	; 0x30
 80016e6:	6b1b      	ldr	r3, [r3, #48]	; 0x30
	  GPIO_InitStruct.Pull = GPIO_NOPULL;
 80016e8:	9509      	str	r5, [sp, #36]	; 0x24
	  __HAL_RCC_DMA2_CLK_ENABLE();
 80016ea:	f403 0380 	and.w	r3, r3, #4194304	; 0x400000
 80016ee:	9303      	str	r3, [sp, #12]
 80016f0:	9b03      	ldr	r3, [sp, #12]
	  GPIO_InitStruct.Pin = GPIO_PIN_5 | GPIO_PIN_7;
 80016f2:	23a0      	movs	r3, #160	; 0xa0
 80016f4:	9307      	str	r3, [sp, #28]
	  HAL_GPIO_Init(GPIOA, &GPIO_InitStruct);
 80016f6:	a907      	add	r1, sp, #28
	  GPIO_InitStruct.Mode = GPIO_MODE_ANALOG;
 80016f8:	2303      	movs	r3, #3
 80016fa:	9308      	str	r3, [sp, #32]
	  HAL_GPIO_Init(GPIOA, &GPIO_InitStruct);
 80016fc:	f001 f94a 	bl	8002994 <HAL_GPIO_Init>
	  HAL_NVIC_SetPriority(ADC_IRQn, 9, 0);
 8001700:	462a      	mov	r2, r5
 8001702:	2109      	movs	r1, #9
 8001704:	2012      	movs	r0, #18
 8001706:	f000 ff57 	bl	80025b8 <HAL_NVIC_SetPriority>
	  HAL_NVIC_EnableIRQ(ADC_IRQn);
 800170a:	2012      	movs	r0, #18
 800170c:	f000 ff88 	bl	8002620 <HAL_NVIC_EnableIRQ>
	  hdma_adc.Instance = DMA2_Stream0;
 8001710:	4b45      	ldr	r3, [pc, #276]	; (8001828 <HAL_ADC_MspInit+0x18c>)

	  hdma_adc.Init.Channel  = DMA_CHANNEL_0;
	  hdma_adc.Init.Direction = DMA_PERIPH_TO_MEMORY;
 8001712:	60a5      	str	r5, [r4, #8]
	  hdma_adc.Init.Channel  = DMA_CHANNEL_0;
 8001714:	e884 0028 	stmia.w	r4, {r3, r5}
	  hdma_adc.Init.PeriphInc = DMA_PINC_DISABLE;
	  hdma_adc.Init.MemInc = DMA_MINC_ENABLE;
 8001718:	f44f 6380 	mov.w	r3, #1024	; 0x400
 800171c:	6123      	str	r3, [r4, #16]
	  hdma_adc.Init.PeriphDataAlignment = DMA_PDATAALIGN_HALFWORD;
 800171e:	f44f 6300 	mov.w	r3, #2048	; 0x800
 8001722:	6163      	str	r3, [r4, #20]
	  hdma_adc.Init.MemDataAlignment = DMA_MDATAALIGN_HALFWORD;
 8001724:	f44f 5300 	mov.w	r3, #8192	; 0x2000
 8001728:	61a3      	str	r3, [r4, #24]
	  hdma_adc.Init.Mode = DMA_CIRCULAR;
 800172a:	f44f 7380 	mov.w	r3, #256	; 0x100
 800172e:	61e3      	str	r3, [r4, #28]
	  hdma_adc.Init.Priority = DMA_PRIORITY_HIGH;
 8001730:	f44f 3300 	mov.w	r3, #131072	; 0x20000
 8001734:	6223      	str	r3, [r4, #32]
	  hdma_adc.Init.FIFOMode = DMA_FIFOMODE_DISABLE;
	  hdma_adc.Init.FIFOThreshold = DMA_FIFO_THRESHOLD_HALFFULL;
	  hdma_adc.Init.MemBurst = DMA_MBURST_SINGLE;
	  hdma_adc.Init.PeriphBurst = DMA_PBURST_SINGLE;

	  HAL_DMA_Init(&hdma_adc);
 8001736:	4620      	mov	r0, r4
	  hdma_adc.Init.FIFOThreshold = DMA_FIFO_THRESHOLD_HALFFULL;
 8001738:	2301      	movs	r3, #1
 800173a:	62a3      	str	r3, [r4, #40]	; 0x28
	  hdma_adc.Init.PeriphInc = DMA_PINC_DISABLE;
 800173c:	60e5      	str	r5, [r4, #12]
	  hdma_adc.Init.FIFOMode = DMA_FIFOMODE_DISABLE;
 800173e:	6265      	str	r5, [r4, #36]	; 0x24
	  hdma_adc.Init.MemBurst = DMA_MBURST_SINGLE;
 8001740:	62e5      	str	r5, [r4, #44]	; 0x2c
	  hdma_adc.Init.PeriphBurst = DMA_PBURST_SINGLE;
 8001742:	6325      	str	r5, [r4, #48]	; 0x30
	  HAL_DMA_Init(&hdma_adc);
 8001744:	f000 ffb0 	bl	80026a8 <HAL_DMA_Init>

	  /* Associate the initialized DMA handle to the the ADC handle */
	  __HAL_LINKDMA(hadc, DMA_Handle, hdma_adc);
 8001748:	63b4      	str	r4, [r6, #56]	; 0x38

	  /*##-4- Configure the NVIC for DMA #########################################*/
	  /* NVIC configuration for DMA transfer complete interrupt */
	  HAL_NVIC_SetPriority(DMA2_Stream0_IRQn, 10, 0);
 800174a:	2038      	movs	r0, #56	; 0x38
 800174c:	462a      	mov	r2, r5
 800174e:	210a      	movs	r1, #10
	  __HAL_LINKDMA(hadc, DMA_Handle, hdma_adc);
 8001750:	63a6      	str	r6, [r4, #56]	; 0x38
	  HAL_NVIC_SetPriority(DMA2_Stream0_IRQn, 10, 0);
 8001752:	f000 ff31 	bl	80025b8 <HAL_NVIC_SetPriority>
	  HAL_NVIC_EnableIRQ(DMA2_Stream0_IRQn);
 8001756:	2038      	movs	r0, #56	; 0x38
 8001758:	f000 ff62 	bl	8002620 <HAL_NVIC_EnableIRQ>
  }
  if(hadc->Instance == ADC2)
 800175c:	6832      	ldr	r2, [r6, #0]
 800175e:	4b33      	ldr	r3, [pc, #204]	; (800182c <HAL_ADC_MspInit+0x190>)
 8001760:	429a      	cmp	r2, r3
 8001762:	d159      	bne.n	8001818 <HAL_ADC_MspInit+0x17c>
  {
	  /*##-1- Enable peripherals and GPIO Clocks #################################*/
	 /* Enable GPIO clock */
	  __HAL_RCC_GPIOA_CLK_ENABLE();
 8001764:	2500      	movs	r5, #0
 8001766:	4b32      	ldr	r3, [pc, #200]	; (8001830 <HAL_ADC_MspInit+0x194>)
 8001768:	9504      	str	r5, [sp, #16]
 800176a:	6b1a      	ldr	r2, [r3, #48]	; 0x30
	 /*##-2- Configure peripheral GPIO ##########################################*/
	 	  /* ADC3 Channel8 GPIO pin configuration */
	 GPIO_InitStruct.Pin = GPIO_PIN_2 | GPIO_PIN_3;
	 GPIO_InitStruct.Mode = GPIO_MODE_ANALOG;
	 GPIO_InitStruct.Pull = GPIO_NOPULL;
	 HAL_GPIO_Init(GPIOA, &GPIO_InitStruct);
 800176c:	482c      	ldr	r0, [pc, #176]	; (8001820 <HAL_ADC_MspInit+0x184>)

	 HAL_NVIC_SetPriority(ADC_IRQn, 9, 0);
	 HAL_NVIC_EnableIRQ(ADC_IRQn);
	 	  /*##-3- Configure the DMA streams ##########################################*/
	 	  /* Set the parameters to be configured */
	 hdma_adc2.Instance = DMA2_Stream2;
 800176e:	4c31      	ldr	r4, [pc, #196]	; (8001834 <HAL_ADC_MspInit+0x198>)
	  __HAL_RCC_GPIOA_CLK_ENABLE();
 8001770:	f042 0201 	orr.w	r2, r2, #1
 8001774:	631a      	str	r2, [r3, #48]	; 0x30
 8001776:	6b1a      	ldr	r2, [r3, #48]	; 0x30
 8001778:	f002 0201 	and.w	r2, r2, #1
 800177c:	9204      	str	r2, [sp, #16]
 800177e:	9a04      	ldr	r2, [sp, #16]
	 __HAL_RCC_ADC2_CLK_ENABLE();
 8001780:	9505      	str	r5, [sp, #20]
 8001782:	6c5a      	ldr	r2, [r3, #68]	; 0x44
 8001784:	f442 7200 	orr.w	r2, r2, #512	; 0x200
 8001788:	645a      	str	r2, [r3, #68]	; 0x44
 800178a:	6c5a      	ldr	r2, [r3, #68]	; 0x44
 800178c:	f402 7200 	and.w	r2, r2, #512	; 0x200
 8001790:	9205      	str	r2, [sp, #20]
 8001792:	9a05      	ldr	r2, [sp, #20]
	 __HAL_RCC_DMA2_CLK_ENABLE();
 8001794:	9506      	str	r5, [sp, #24]
 8001796:	6b1a      	ldr	r2, [r3, #48]	; 0x30
 8001798:	f442 0280 	orr.w	r2, r2, #4194304	; 0x400000
 800179c:	631a      	str	r2, [r3, #48]	; 0x30
 800179e:	6b1b      	ldr	r3, [r3, #48]	; 0x30
	 GPIO_InitStruct.Pull = GPIO_NOPULL;
 80017a0:	9509      	str	r5, [sp, #36]	; 0x24
	 __HAL_RCC_DMA2_CLK_ENABLE();
 80017a2:	f403 0380 	and.w	r3, r3, #4194304	; 0x400000
 80017a6:	9306      	str	r3, [sp, #24]
 80017a8:	9b06      	ldr	r3, [sp, #24]
	 GPIO_InitStruct.Pin = GPIO_PIN_2 | GPIO_PIN_3;
 80017aa:	230c      	movs	r3, #12
 80017ac:	9307      	str	r3, [sp, #28]
	 HAL_GPIO_Init(GPIOA, &GPIO_InitStruct);
 80017ae:	a907      	add	r1, sp, #28
	 GPIO_InitStruct.Mode = GPIO_MODE_ANALOG;
 80017b0:	2303      	movs	r3, #3
 80017b2:	9308      	str	r3, [sp, #32]
	 HAL_GPIO_Init(GPIOA, &GPIO_InitStruct);
 80017b4:	f001 f8ee 	bl	8002994 <HAL_GPIO_Init>
	 HAL_NVIC_SetPriority(ADC_IRQn, 9, 0);
 80017b8:	2109      	movs	r1, #9
 80017ba:	462a      	mov	r2, r5
 80017bc:	2012      	movs	r0, #18
 80017be:	f000 fefb 	bl	80025b8 <HAL_NVIC_SetPriority>
	 HAL_NVIC_EnableIRQ(ADC_IRQn);
 80017c2:	2012      	movs	r0, #18
 80017c4:	f000 ff2c 	bl	8002620 <HAL_NVIC_EnableIRQ>

	 hdma_adc2.Init.Channel  = DMA_CHANNEL_1;
 80017c8:	4a1b      	ldr	r2, [pc, #108]	; (8001838 <HAL_ADC_MspInit+0x19c>)
	 hdma_adc2.Init.Direction = DMA_PERIPH_TO_MEMORY;
 80017ca:	60a5      	str	r5, [r4, #8]
	 hdma_adc2.Init.Channel  = DMA_CHANNEL_1;
 80017cc:	f04f 7300 	mov.w	r3, #33554432	; 0x2000000
 80017d0:	e884 000c 	stmia.w	r4, {r2, r3}
	 hdma_adc2.Init.PeriphInc = DMA_PINC_DISABLE;
	 hdma_adc2.Init.MemInc = DMA_MINC_ENABLE;
 80017d4:	f44f 6380 	mov.w	r3, #1024	; 0x400
 80017d8:	6123      	str	r3, [r4, #16]
	 hdma_adc2.Init.PeriphDataAlignment = DMA_PDATAALIGN_HALFWORD;
 80017da:	f44f 6300 	mov.w	r3, #2048	; 0x800
 80017de:	6163      	str	r3, [r4, #20]
	 hdma_adc2.Init.MemDataAlignment = DMA_MDATAALIGN_HALFWORD;
 80017e0:	f44f 5300 	mov.w	r3, #8192	; 0x2000
 80017e4:	61a3      	str	r3, [r4, #24]
	 hdma_adc2.Init.Mode = DMA_CIRCULAR;
 80017e6:	f44f 7380 	mov.w	r3, #256	; 0x100
 80017ea:	61e3      	str	r3, [r4, #28]
	 hdma_adc2.Init.Priority = DMA_PRIORITY_HIGH;
 80017ec:	f44f 3300 	mov.w	r3, #131072	; 0x20000
 80017f0:	6223      	str	r3, [r4, #32]
	 hdma_adc2.Init.FIFOMode = DMA_FIFOMODE_DISABLE;
	 hdma_adc2.Init.FIFOThreshold = DMA_FIFO_THRESHOLD_HALFFULL;
	 hdma_adc2.Init.MemBurst = DMA_MBURST_SINGLE;
	 hdma_adc2.Init.PeriphBurst = DMA_PBURST_SINGLE;

	 HAL_DMA_Init(&hdma_adc2);
 80017f2:	4620      	mov	r0, r4
	 hdma_adc2.Init.FIFOThreshold = DMA_FIFO_THRESHOLD_HALFFULL;
 80017f4:	2301      	movs	r3, #1
 80017f6:	62a3      	str	r3, [r4, #40]	; 0x28
	 hdma_adc2.Init.PeriphInc = DMA_PINC_DISABLE;
 80017f8:	60e5      	str	r5, [r4, #12]
	 hdma_adc2.Init.FIFOMode = DMA_FIFOMODE_DISABLE;
 80017fa:	6265      	str	r5, [r4, #36]	; 0x24
	 hdma_adc2.Init.MemBurst = DMA_MBURST_SINGLE;
 80017fc:	62e5      	str	r5, [r4, #44]	; 0x2c
	 hdma_adc2.Init.PeriphBurst = DMA_PBURST_SINGLE;
 80017fe:	6325      	str	r5, [r4, #48]	; 0x30
	 HAL_DMA_Init(&hdma_adc2);
 8001800:	f000 ff52 	bl	80026a8 <HAL_DMA_Init>

	 	  /* Associate the initialized DMA handle to the the ADC handle */
	 __HAL_LINKDMA(hadc, DMA_Handle, hdma_adc2);
 8001804:	63b4      	str	r4, [r6, #56]	; 0x38
	 	  /*##-4- Configure the NVIC for DMA #########################################*/
	 	  /* NVIC configuration for DMA transfer complete interrupt */
	 HAL_NVIC_SetPriority(DMA2_Stream2_IRQn, 10, 0);
 8001806:	203a      	movs	r0, #58	; 0x3a
 8001808:	462a      	mov	r2, r5
 800180a:	210a      	movs	r1, #10
	 __HAL_LINKDMA(hadc, DMA_Handle, hdma_adc2);
 800180c:	63a6      	str	r6, [r4, #56]	; 0x38
	 HAL_NVIC_SetPriority(DMA2_Stream2_IRQn, 10, 0);
 800180e:	f000 fed3 	bl	80025b8 <HAL_NVIC_SetPriority>
	 HAL_NVIC_EnableIRQ(DMA2_Stream2_IRQn);
 8001812:	203a      	movs	r0, #58	; 0x3a
 8001814:	f000 ff04 	bl	8002620 <HAL_NVIC_EnableIRQ>
  }
}
 8001818:	b00c      	add	sp, #48	; 0x30
 800181a:	bd70      	pop	{r4, r5, r6, pc}
 800181c:	40012000 	.word	0x40012000
 8001820:	40020000 	.word	0x40020000
 8001824:	200001e8 	.word	0x200001e8
 8001828:	40026410 	.word	0x40026410
 800182c:	40012100 	.word	0x40012100
 8001830:	40023800 	.word	0x40023800
 8001834:	20000248 	.word	0x20000248
 8001838:	40026440 	.word	0x40026440

0800183c <HAL_InitTick>:
  *         reset by HAL_Init() or at any time when clock is configured, by HAL_RCC_ClockConfig(). 
  * @param  TickPriority: Tick interrupt priorty.
  * @retval HAL status
  */
HAL_StatusTypeDef HAL_InitTick(uint32_t TickPriority)
{
 800183c:	b530      	push	{r4, r5, lr}
  uint32_t              uwTimclock = 0;
  uint32_t              uwPrescalerValue = 0;
  uint32_t              pFLatency;
  
  /*Configure the TIM1 IRQ priority */
  HAL_NVIC_SetPriority(TIM1_UP_TIM10_IRQn, TickPriority ,0); 
 800183e:	4601      	mov	r1, r0
{
 8001840:	b089      	sub	sp, #36	; 0x24
  HAL_NVIC_SetPriority(TIM1_UP_TIM10_IRQn, TickPriority ,0); 
 8001842:	2200      	movs	r2, #0
 8001844:	2019      	movs	r0, #25
 8001846:	f000 feb7 	bl	80025b8 <HAL_NVIC_SetPriority>
  
  /* Enable the TIM1 global Interrupt */
  HAL_NVIC_EnableIRQ(TIM1_UP_TIM10_IRQn); 
 800184a:	2019      	movs	r0, #25
 800184c:	f000 fee8 	bl	8002620 <HAL_NVIC_EnableIRQ>
  
  /* Enable TIM1 clock */
  __HAL_RCC_TIM1_CLK_ENABLE();
 8001850:	2500      	movs	r5, #0
 8001852:	4b15      	ldr	r3, [pc, #84]	; (80018a8 <HAL_InitTick+0x6c>)
 8001854:	9502      	str	r5, [sp, #8]
 8001856:	6c5a      	ldr	r2, [r3, #68]	; 0x44
   
  /* Compute the prescaler value to have TIM1 counter clock equal to 1MHz */
  uwPrescalerValue = (uint32_t) ((uwTimclock / 1000000) - 1);
  
  /* Initialize TIM1 */
  htim1.Instance = TIM1;
 8001858:	4c14      	ldr	r4, [pc, #80]	; (80018ac <HAL_InitTick+0x70>)
  __HAL_RCC_TIM1_CLK_ENABLE();
 800185a:	f042 0201 	orr.w	r2, r2, #1
 800185e:	645a      	str	r2, [r3, #68]	; 0x44
 8001860:	6c5b      	ldr	r3, [r3, #68]	; 0x44
 8001862:	f003 0301 	and.w	r3, r3, #1
 8001866:	9302      	str	r3, [sp, #8]
  HAL_RCC_GetClockConfig(&clkconfig, &pFLatency);
 8001868:	a901      	add	r1, sp, #4
 800186a:	a803      	add	r0, sp, #12
  __HAL_RCC_TIM1_CLK_ENABLE();
 800186c:	9b02      	ldr	r3, [sp, #8]
  HAL_RCC_GetClockConfig(&clkconfig, &pFLatency);
 800186e:	f002 f881 	bl	8003974 <HAL_RCC_GetClockConfig>
  uwTimclock = 2*HAL_RCC_GetPCLK2Freq();
 8001872:	f002 f86f 	bl	8003954 <HAL_RCC_GetPCLK2Freq>
  htim1.Instance = TIM1;
 8001876:	4b0e      	ldr	r3, [pc, #56]	; (80018b0 <HAL_InitTick+0x74>)
 8001878:	6023      	str	r3, [r4, #0]
  + Period = [(TIM1CLK/1000) - 1]. to have a (1/1000) s time base.
  + Prescaler = (uwTimclock/1000000 - 1) to have a 1MHz counter clock.
  + ClockDivision = 0
  + Counter direction = Up
  */
  htim1.Init.Period = (1000000 / 1000) - 1;
 800187a:	f240 33e7 	movw	r3, #999	; 0x3e7
 800187e:	60e3      	str	r3, [r4, #12]
  uwTimclock = 2*HAL_RCC_GetPCLK2Freq();
 8001880:	0040      	lsls	r0, r0, #1
  uwPrescalerValue = (uint32_t) ((uwTimclock / 1000000) - 1);
 8001882:	4b0c      	ldr	r3, [pc, #48]	; (80018b4 <HAL_InitTick+0x78>)
 8001884:	fbb0 f0f3 	udiv	r0, r0, r3
 8001888:	3801      	subs	r0, #1
  htim1.Init.Prescaler = uwPrescalerValue;
 800188a:	6060      	str	r0, [r4, #4]
  htim1.Init.ClockDivision = 0;
  htim1.Init.CounterMode = TIM_COUNTERMODE_UP;
  if(HAL_TIM_Base_Init(&htim1) == HAL_OK)
 800188c:	4620      	mov	r0, r4
  htim1.Init.ClockDivision = 0;
 800188e:	6125      	str	r5, [r4, #16]
  htim1.Init.CounterMode = TIM_COUNTERMODE_UP;
 8001890:	60a5      	str	r5, [r4, #8]
  if(HAL_TIM_Base_Init(&htim1) == HAL_OK)
 8001892:	f002 fa3b 	bl	8003d0c <HAL_TIM_Base_Init>
 8001896:	b920      	cbnz	r0, 80018a2 <HAL_InitTick+0x66>
  {
    /* Start the TIM time Base generation in interrupt mode */
    return HAL_TIM_Base_Start_IT(&htim1);
 8001898:	4620      	mov	r0, r4
 800189a:	f002 f90d 	bl	8003ab8 <HAL_TIM_Base_Start_IT>
  }
  
  /* Return function status */
  return HAL_ERROR;
}
 800189e:	b009      	add	sp, #36	; 0x24
 80018a0:	bd30      	pop	{r4, r5, pc}
  return HAL_ERROR;
 80018a2:	2001      	movs	r0, #1
 80018a4:	e7fb      	b.n	800189e <HAL_InitTick+0x62>
 80018a6:	bf00      	nop
 80018a8:	40023800 	.word	0x40023800
 80018ac:	200110b8 	.word	0x200110b8
 80018b0:	40010000 	.word	0x40010000
 80018b4:	000f4240 	.word	0x000f4240

080018b8 <NMI_Handler>:
 80018b8:	4770      	bx	lr

080018ba <HardFault_Handler>:

/**
* @brief This function handles Hard fault interrupt.
*/
void HardFault_Handler(void)
{
 80018ba:	e7fe      	b.n	80018ba <HardFault_Handler>

080018bc <MemManage_Handler>:

/**
* @brief This function handles Memory management fault.
*/
void MemManage_Handler(void)
{
 80018bc:	e7fe      	b.n	80018bc <MemManage_Handler>

080018be <BusFault_Handler>:

/**
* @brief This function handles Pre-fetch fault, memory access fault.
*/
void BusFault_Handler(void)
{
 80018be:	e7fe      	b.n	80018be <BusFault_Handler>

080018c0 <UsageFault_Handler>:

/**
* @brief This function handles Undefined instruction or illegal state.
*/
void UsageFault_Handler(void)
{
 80018c0:	e7fe      	b.n	80018c0 <UsageFault_Handler>

080018c2 <DebugMon_Handler>:

/**
* @brief This function handles Debug monitor.
*/
void DebugMon_Handler(void)
{
 80018c2:	4770      	bx	lr

080018c4 <SysTick_Handler>:
void SysTick_Handler(void)
{
  /* USER CODE BEGIN SysTick_IRQn 0 */

  /* USER CODE END SysTick_IRQn 0 */
  osSystickHandler();
 80018c4:	f003 bdab 	b.w	800541e <osSystickHandler>

080018c8 <TIM1_UP_TIM10_IRQHandler>:
void TIM1_UP_TIM10_IRQHandler(void)
{
  /* USER CODE BEGIN TIM1_UP_TIM10_IRQn 0 */

  /* USER CODE END TIM1_UP_TIM10_IRQn 0 */
  HAL_TIM_IRQHandler(&htim1);
 80018c8:	4801      	ldr	r0, [pc, #4]	; (80018d0 <TIM1_UP_TIM10_IRQHandler+0x8>)
 80018ca:	f002 b918 	b.w	8003afe <HAL_TIM_IRQHandler>
 80018ce:	bf00      	nop
 80018d0:	200110b8 	.word	0x200110b8

080018d4 <OTG_FS_IRQHandler>:
void OTG_FS_IRQHandler(void)
{
  /* USER CODE BEGIN OTG_FS_IRQn 0 */

  /* USER CODE END OTG_FS_IRQn 0 */
  HAL_PCD_IRQHandler(&hpcd_USB_OTG_FS);
 80018d4:	4801      	ldr	r0, [pc, #4]	; (80018dc <OTG_FS_IRQHandler+0x8>)
 80018d6:	f001 b9cf 	b.w	8002c78 <HAL_PCD_IRQHandler>
 80018da:	bf00      	nop
 80018dc:	20011940 	.word	0x20011940

080018e0 <TIM7_IRQHandler>:
  /* USER CODE END OTG_FS_IRQn 1 */
}

void TIM7_IRQHandler(void)
{
	HAL_TIM_IRQHandler(&htim7);
 80018e0:	4801      	ldr	r0, [pc, #4]	; (80018e8 <TIM7_IRQHandler+0x8>)
 80018e2:	f002 b90c 	b.w	8003afe <HAL_TIM_IRQHandler>
 80018e6:	bf00      	nop
 80018e8:	2001107c 	.word	0x2001107c

080018ec <TIM2_IRQHandler>:
}

void TIM2_IRQHandler(void)
{
	HAL_TIM_IRQHandler(&Tim2PWMHandle);
 80018ec:	4801      	ldr	r0, [pc, #4]	; (80018f4 <TIM2_IRQHandler+0x8>)
 80018ee:	f002 b906 	b.w	8003afe <HAL_TIM_IRQHandler>
 80018f2:	bf00      	nop
 80018f4:	2001124c 	.word	0x2001124c

080018f8 <TIM3_IRQHandler>:
}

void TIM3_IRQHandler(void)
{
	HAL_TIM_IRQHandler(&Tim3PWMHandle);
 80018f8:	4801      	ldr	r0, [pc, #4]	; (8001900 <TIM3_IRQHandler+0x8>)
 80018fa:	f002 b900 	b.w	8003afe <HAL_TIM_IRQHandler>
 80018fe:	bf00      	nop
 8001900:	2001111c 	.word	0x2001111c

08001904 <TIM4_IRQHandler>:
}

void TIM4_IRQHandler(void)
{
	HAL_TIM_IRQHandler(&Tim4ADCHandle);
 8001904:	4801      	ldr	r0, [pc, #4]	; (800190c <TIM4_IRQHandler+0x8>)
 8001906:	f002 b8fa 	b.w	8003afe <HAL_TIM_IRQHandler>
 800190a:	bf00      	nop
 800190c:	20011210 	.word	0x20011210

08001910 <DMA2_Stream0_IRQHandler>:
}


void DMA2_Stream0_IRQHandler(void)
{
	HAL_DMA_IRQHandler(ADC1Handle.DMA_Handle);
 8001910:	4b01      	ldr	r3, [pc, #4]	; (8001918 <DMA2_Stream0_IRQHandler+0x8>)
 8001912:	6b98      	ldr	r0, [r3, #56]	; 0x38
 8001914:	f000 bf84 	b.w	8002820 <HAL_DMA_IRQHandler>
 8001918:	200111b4 	.word	0x200111b4

0800191c <DMA2_Stream2_IRQHandler>:
}

void DMA2_Stream2_IRQHandler(void)
{
	HAL_DMA_IRQHandler(ADC2Handle.DMA_Handle);
 800191c:	4b01      	ldr	r3, [pc, #4]	; (8001924 <DMA2_Stream2_IRQHandler+0x8>)
 800191e:	6b98      	ldr	r0, [r3, #56]	; 0x38
 8001920:	f000 bf7e 	b.w	8002820 <HAL_DMA_IRQHandler>
 8001924:	2001115c 	.word	0x2001115c

08001928 <ADC_IRQHandler>:
  * @param  None
  * @retval None
  */
void ADC_IRQHandler(void)
{
  HAL_ADC_IRQHandler(&ADC1Handle);
 8001928:	4801      	ldr	r0, [pc, #4]	; (8001930 <ADC_IRQHandler+0x8>)
 800192a:	f000 bcf9 	b.w	8002320 <HAL_ADC_IRQHandler>
 800192e:	bf00      	nop
 8001930:	200111b4 	.word	0x200111b4

08001934 <SystemInit>:
  */
void SystemInit(void)
{
  /* FPU settings ------------------------------------------------------------*/
  #if (__FPU_PRESENT == 1) && (__FPU_USED == 1)
    SCB->CPACR |= ((3UL << 10*2)|(3UL << 11*2));  /* set CP10 and CP11 Full Access */
 8001934:	490f      	ldr	r1, [pc, #60]	; (8001974 <SystemInit+0x40>)
 8001936:	f8d1 3088 	ldr.w	r3, [r1, #136]	; 0x88
 800193a:	f443 0370 	orr.w	r3, r3, #15728640	; 0xf00000
 800193e:	f8c1 3088 	str.w	r3, [r1, #136]	; 0x88
  #endif
  /* Reset the RCC clock configuration to the default reset state ------------*/
  /* Set HSION bit */
  RCC->CR |= (uint32_t)0x00000001;
 8001942:	4b0d      	ldr	r3, [pc, #52]	; (8001978 <SystemInit+0x44>)
 8001944:	681a      	ldr	r2, [r3, #0]

  /* Reset CFGR register */
  RCC->CFGR = 0x00000000;
 8001946:	2000      	movs	r0, #0
  RCC->CR |= (uint32_t)0x00000001;
 8001948:	f042 0201 	orr.w	r2, r2, #1
 800194c:	601a      	str	r2, [r3, #0]
  RCC->CFGR = 0x00000000;
 800194e:	6098      	str	r0, [r3, #8]

  /* Reset HSEON, CSSON and PLLON bits */
  RCC->CR &= (uint32_t)0xFEF6FFFF;
 8001950:	681a      	ldr	r2, [r3, #0]
 8001952:	f022 7284 	bic.w	r2, r2, #17301504	; 0x1080000
 8001956:	f422 3280 	bic.w	r2, r2, #65536	; 0x10000
 800195a:	601a      	str	r2, [r3, #0]

  /* Reset PLLCFGR register */
  RCC->PLLCFGR = 0x24003010;
 800195c:	4a07      	ldr	r2, [pc, #28]	; (800197c <SystemInit+0x48>)
 800195e:	605a      	str	r2, [r3, #4]

  /* Reset HSEBYP bit */
  RCC->CR &= (uint32_t)0xFFFBFFFF;
 8001960:	681a      	ldr	r2, [r3, #0]
 8001962:	f422 2280 	bic.w	r2, r2, #262144	; 0x40000
 8001966:	601a      	str	r2, [r3, #0]

  /* Disable all interrupts */
  RCC->CIR = 0x00000000;
 8001968:	60d8      	str	r0, [r3, #12]

  /* Configure the Vector Table location add offset address ------------------*/
#ifdef VECT_TAB_SRAM
  SCB->VTOR = SRAM_BASE | VECT_TAB_OFFSET; /* Vector Table Relocation in Internal SRAM */
#else
  SCB->VTOR = FLASH_BASE | VECT_TAB_OFFSET; /* Vector Table Relocation in Internal FLASH */
 800196a:	f04f 6300 	mov.w	r3, #134217728	; 0x8000000
 800196e:	608b      	str	r3, [r1, #8]
 8001970:	4770      	bx	lr
 8001972:	bf00      	nop
 8001974:	e000ed00 	.word	0xe000ed00
 8001978:	40023800 	.word	0x40023800
 800197c:	24003010 	.word	0x24003010

08001980 <TCD1304_Task>:
/**
  * @brief	Основной поток обработки данных с линейки
  * @reval 	None
  */
void	TCD1304_Task(void const * argument)
{
 8001980:	b5f8      	push	{r3, r4, r5, r6, r7, lr}
		portBASE_TYPE			 xStatus;

		while(1)
		{
			osDelay(100);
			xStatus=xQueueReceive(sensorADC1DataQueue, &tcdADCData, portMAX_DELAY);
 8001982:	4c12      	ldr	r4, [pc, #72]	; (80019cc <TCD1304_Task+0x4c>)
 8001984:	4f12      	ldr	r7, [pc, #72]	; (80019d0 <TCD1304_Task+0x50>)
					uint16_t	*pADCData1 = tcdADCData.Data;
					uint16_t	*pADCData2 = tcdADCData.Data + 256;

					//memcpy(sendCopyBuf1,pADCData1,sizeof(uint16_t) * 256);
					//memcpy(sendCopyBuf2,pADCData2,sizeof(uint16_t) * 256);
					Process_Update(pADCData1,0);
 8001986:	1ca5      	adds	r5, r4, #2
			osDelay(100);
 8001988:	2064      	movs	r0, #100	; 0x64
 800198a:	f003 fd40 	bl	800540e <osDelay>
			xStatus=xQueueReceive(sensorADC1DataQueue, &tcdADCData, portMAX_DELAY);
 800198e:	2300      	movs	r3, #0
 8001990:	f04f 32ff 	mov.w	r2, #4294967295
 8001994:	490d      	ldr	r1, [pc, #52]	; (80019cc <TCD1304_Task+0x4c>)
 8001996:	6838      	ldr	r0, [r7, #0]
 8001998:	f004 fa06 	bl	8005da8 <xQueueGenericReceive>
			if (xStatus == pdPASS) {
 800199c:	2801      	cmp	r0, #1
 800199e:	d1f3      	bne.n	8001988 <TCD1304_Task+0x8>
				if(tcdADCData.Adc == 1){
 80019a0:	7826      	ldrb	r6, [r4, #0]
 80019a2:	2e01      	cmp	r6, #1
 80019a4:	d107      	bne.n	80019b6 <TCD1304_Task+0x36>
					Process_Update(pADCData1,0);
 80019a6:	2100      	movs	r1, #0
 80019a8:	4628      	mov	r0, r5
 80019aa:	f7ff fc07 	bl	80011bc <Process_Update>
					Process_Update(pADCData2,1);
 80019ae:	4631      	mov	r1, r6
 80019b0:	4808      	ldr	r0, [pc, #32]	; (80019d4 <TCD1304_Task+0x54>)
 80019b2:	f7ff fc03 	bl	80011bc <Process_Update>
				}
				if(tcdADCData.Adc == 2){
 80019b6:	7821      	ldrb	r1, [r4, #0]
 80019b8:	2902      	cmp	r1, #2
 80019ba:	d1e5      	bne.n	8001988 <TCD1304_Task+0x8>
					uint16_t	*pADCData3 = tcdADCData.Data;
					uint16_t	*pADCData4 = tcdADCData.Data + 256;

					Process_Update(pADCData3,2);
 80019bc:	4628      	mov	r0, r5
 80019be:	f7ff fbfd 	bl	80011bc <Process_Update>
					Process_Update(pADCData4,3);
 80019c2:	2103      	movs	r1, #3
 80019c4:	4803      	ldr	r0, [pc, #12]	; (80019d4 <TCD1304_Task+0x54>)
 80019c6:	f7ff fbf9 	bl	80011bc <Process_Update>
 80019ca:	e7dd      	b.n	8001988 <TCD1304_Task+0x8>
 80019cc:	20000aae 	.word	0x20000aae
 80019d0:	200110f8 	.word	0x200110f8
 80019d4:	20000cb0 	.word	0x20000cb0

080019d8 <TCD1304_Init>:
{
 80019d8:	b570      	push	{r4, r5, r6, lr}
	ulADCSampleCounter = 0;
 80019da:	4b1d      	ldr	r3, [pc, #116]	; (8001a50 <TCD1304_Init+0x78>)
	osThreadDef(sensorTask, TCD1304_Task, osPriorityAboveNormal, 0, configMINIMAL_STACK_SIZE + 0x400);
 80019dc:	4d1d      	ldr	r5, [pc, #116]	; (8001a54 <TCD1304_Init+0x7c>)
	ulADCSampleCounter = 0;
 80019de:	2600      	movs	r6, #0
{
 80019e0:	b086      	sub	sp, #24
	sensorADC1DataQueue = xQueueCreate(TCD_QUEUE_SIZE, sizeof(tTCDADCData));
 80019e2:	4632      	mov	r2, r6
 80019e4:	f240 4102 	movw	r1, #1026	; 0x402
 80019e8:	2002      	movs	r0, #2
	ulADCSampleCounter = 0;
 80019ea:	801e      	strh	r6, [r3, #0]
	sensorADC1DataQueue = xQueueCreate(TCD_QUEUE_SIZE, sizeof(tTCDADCData));
 80019ec:	f004 f8a0 	bl	8005b30 <xQueueGenericCreate>
 80019f0:	4b19      	ldr	r3, [pc, #100]	; (8001a58 <TCD1304_Init+0x80>)
 80019f2:	6018      	str	r0, [r3, #0]
	osThreadDef(sensorTask, TCD1304_Task, osPriorityAboveNormal, 0, configMINIMAL_STACK_SIZE + 0x400);
 80019f4:	cd0f      	ldmia	r5!, {r0, r1, r2, r3}
 80019f6:	ac01      	add	r4, sp, #4
 80019f8:	c40f      	stmia	r4!, {r0, r1, r2, r3}
 80019fa:	682b      	ldr	r3, [r5, #0]
 80019fc:	6023      	str	r3, [r4, #0]
	sensorTaskHandle = osThreadCreate(osThread(sensorTask), NULL);
 80019fe:	4631      	mov	r1, r6
 8001a00:	a801      	add	r0, sp, #4
 8001a02:	f003 fcec 	bl	80053de <osThreadCreate>
 8001a06:	4b15      	ldr	r3, [pc, #84]	; (8001a5c <TCD1304_Init+0x84>)
	Tim3PWMHandle.Init.Prescaler     = 4;
 8001a08:	4a15      	ldr	r2, [pc, #84]	; (8001a60 <TCD1304_Init+0x88>)
	sensorTaskHandle = osThreadCreate(osThread(sensorTask), NULL);
 8001a0a:	6018      	str	r0, [r3, #0]
	Tim3PWMHandle.Instance = TIM3;
 8001a0c:	4815      	ldr	r0, [pc, #84]	; (8001a64 <TCD1304_Init+0x8c>)
	Tim3PWMHandle.Init.Prescaler     = 4;
 8001a0e:	2304      	movs	r3, #4
 8001a10:	e880 000c 	stmia.w	r0, {r2, r3}
	Tim3PWMHandle.Init.Period        = 200 - 1;
 8001a14:	23c7      	movs	r3, #199	; 0xc7
 8001a16:	60c3      	str	r3, [r0, #12]
	Tim3PWMHandle.Init.ClockDivision = 0;
 8001a18:	6106      	str	r6, [r0, #16]
	Tim3PWMHandle.Init.CounterMode   = TIM_COUNTERMODE_UP;
 8001a1a:	6086      	str	r6, [r0, #8]
	if(HAL_TIM_PWM_Init(&Tim3PWMHandle) != HAL_OK){
 8001a1c:	f002 f990 	bl	8003d40 <HAL_TIM_PWM_Init>
 8001a20:	b118      	cbz	r0, 8001a2a <TCD1304_Init+0x52>
		Error_Handler();
 8001a22:	213a      	movs	r1, #58	; 0x3a
 8001a24:	4810      	ldr	r0, [pc, #64]	; (8001a68 <TCD1304_Init+0x90>)
 8001a26:	f7ff fb5d 	bl	80010e4 <_Error_Handler>
	sConfigPWM.OCMode     = TIM_OCMODE_PWM1;
 8001a2a:	4910      	ldr	r1, [pc, #64]	; (8001a6c <TCD1304_Init+0x94>)
	if(HAL_TIM_PWM_ConfigChannel(&Tim3PWMHandle, &sConfigPWM, TIM_CHANNEL_1) != HAL_OK){
 8001a2c:	480d      	ldr	r0, [pc, #52]	; (8001a64 <TCD1304_Init+0x8c>)
	sConfigPWM.OCMode     = TIM_OCMODE_PWM1;
 8001a2e:	2360      	movs	r3, #96	; 0x60
	sConfigPWM.OCPolarity = TIM_OCPOLARITY_HIGH;
 8001a30:	2200      	movs	r2, #0
	sConfigPWM.OCMode     = TIM_OCMODE_PWM1;
 8001a32:	600b      	str	r3, [r1, #0]
	sConfigPWM.Pulse = 100;
 8001a34:	2364      	movs	r3, #100	; 0x64
	sConfigPWM.OCPolarity = TIM_OCPOLARITY_HIGH;
 8001a36:	608a      	str	r2, [r1, #8]
	sConfigPWM.OCFastMode = TIM_OCFAST_DISABLE;
 8001a38:	610a      	str	r2, [r1, #16]
	sConfigPWM.Pulse = 100;
 8001a3a:	604b      	str	r3, [r1, #4]
	if(HAL_TIM_PWM_ConfigChannel(&Tim3PWMHandle, &sConfigPWM, TIM_CHANNEL_1) != HAL_OK){
 8001a3c:	f002 f9ca 	bl	8003dd4 <HAL_TIM_PWM_ConfigChannel>
 8001a40:	b118      	cbz	r0, 8001a4a <TCD1304_Init+0x72>
		  Error_Handler();
 8001a42:	2144      	movs	r1, #68	; 0x44
 8001a44:	4808      	ldr	r0, [pc, #32]	; (8001a68 <TCD1304_Init+0x90>)
 8001a46:	f7ff fb4d 	bl	80010e4 <_Error_Handler>
}
 8001a4a:	b006      	add	sp, #24
 8001a4c:	bd70      	pop	{r4, r5, r6, pc}
 8001a4e:	bf00      	nop
 8001a50:	200110fc 	.word	0x200110fc
 8001a54:	080075ec 	.word	0x080075ec
 8001a58:	200110f8 	.word	0x200110f8
 8001a5c:	200110f4 	.word	0x200110f4
 8001a60:	40000400 	.word	0x40000400
 8001a64:	2001111c 	.word	0x2001111c
 8001a68:	08007651 	.word	0x08007651
 8001a6c:	20011100 	.word	0x20011100

08001a70 <TCD1304_Start>:
{
 8001a70:	b508      	push	{r3, lr}
	icgTick = 0;
 8001a72:	4b08      	ldr	r3, [pc, #32]	; (8001a94 <TCD1304_Start+0x24>)
	if(HAL_TIM_PWM_Start_IT(&Tim3PWMHandle, TIM_CHANNEL_1) != HAL_OK)
 8001a74:	4808      	ldr	r0, [pc, #32]	; (8001a98 <TCD1304_Start+0x28>)
	icgTick = 0;
 8001a76:	2100      	movs	r1, #0
 8001a78:	8019      	strh	r1, [r3, #0]
	TIM3->CNT = 0;
 8001a7a:	4b08      	ldr	r3, [pc, #32]	; (8001a9c <TCD1304_Start+0x2c>)
 8001a7c:	6259      	str	r1, [r3, #36]	; 0x24
	if(HAL_TIM_PWM_Start_IT(&Tim3PWMHandle, TIM_CHANNEL_1) != HAL_OK)
 8001a7e:	f002 fa17 	bl	8003eb0 <HAL_TIM_PWM_Start_IT>
 8001a82:	b128      	cbz	r0, 8001a90 <TCD1304_Start+0x20>
		Error_Handler();
 8001a84:	2152      	movs	r1, #82	; 0x52
 8001a86:	4806      	ldr	r0, [pc, #24]	; (8001aa0 <TCD1304_Start+0x30>)
}
 8001a88:	e8bd 4008 	ldmia.w	sp!, {r3, lr}
		Error_Handler();
 8001a8c:	f7ff bb2a 	b.w	80010e4 <_Error_Handler>
 8001a90:	bd08      	pop	{r3, pc}
 8001a92:	bf00      	nop
 8001a94:	20000aac 	.word	0x20000aac
 8001a98:	2001111c 	.word	0x2001111c
 8001a9c:	40000400 	.word	0x40000400
 8001aa0:	08007651 	.word	0x08007651

08001aa4 <TCD1304_DataCallback>:
  * @brief	обработчик DMA от ADC
  * @param  adcValue: указатель на структуру данных с ADC
  * @reval 	None
  */
void	TCD1304_DataCallback(tTCDADCData	*adcValue)
{
 8001aa4:	b510      	push	{r4, lr}
	static portBASE_TYPE xHigherPriorityTaskWoken;

	xHigherPriorityTaskWoken = pdFALSE;

		xQueueSendToBackFromISR(sensorADC1DataQueue, adcValue, &xHigherPriorityTaskWoken);
 8001aa6:	4601      	mov	r1, r0
	xHigherPriorityTaskWoken = pdFALSE;
 8001aa8:	4c09      	ldr	r4, [pc, #36]	; (8001ad0 <TCD1304_DataCallback+0x2c>)
		xQueueSendToBackFromISR(sensorADC1DataQueue, adcValue, &xHigherPriorityTaskWoken);
 8001aaa:	480a      	ldr	r0, [pc, #40]	; (8001ad4 <TCD1304_DataCallback+0x30>)
	xHigherPriorityTaskWoken = pdFALSE;
 8001aac:	2300      	movs	r3, #0
		xQueueSendToBackFromISR(sensorADC1DataQueue, adcValue, &xHigherPriorityTaskWoken);
 8001aae:	4622      	mov	r2, r4
 8001ab0:	6800      	ldr	r0, [r0, #0]
	xHigherPriorityTaskWoken = pdFALSE;
 8001ab2:	6023      	str	r3, [r4, #0]
		xQueueSendToBackFromISR(sensorADC1DataQueue, adcValue, &xHigherPriorityTaskWoken);
 8001ab4:	f004 f916 	bl	8005ce4 <xQueueGenericSendFromISR>

	if (xHigherPriorityTaskWoken != pdFALSE) {
 8001ab8:	6823      	ldr	r3, [r4, #0]
 8001aba:	b13b      	cbz	r3, 8001acc <TCD1304_DataCallback+0x28>
    // Макрос, выполняющий переключение контекста.
    portEND_SWITCHING_ISR( xHigherPriorityTaskWoken );
 8001abc:	4b06      	ldr	r3, [pc, #24]	; (8001ad8 <TCD1304_DataCallback+0x34>)
 8001abe:	f04f 5280 	mov.w	r2, #268435456	; 0x10000000
 8001ac2:	601a      	str	r2, [r3, #0]
 8001ac4:	f3bf 8f4f 	dsb	sy
 8001ac8:	f3bf 8f6f 	isb	sy
 8001acc:	bd10      	pop	{r4, pc}
 8001ace:	bf00      	nop
 8001ad0:	20000eb0 	.word	0x20000eb0
 8001ad4:	200110f8 	.word	0x200110f8
 8001ad8:	e000ed04 	.word	0xe000ed04

08001adc <HAL_TIM_PWM_PulseFinishedCallback>:
  * @reval 	None
  */
void HAL_TIM_PWM_PulseFinishedCallback(TIM_HandleTypeDef *hTim)
{
	//прерывание от каждого периода ШИМ
	if(hTim->Instance == TIM3)
 8001adc:	6802      	ldr	r2, [r0, #0]
 8001ade:	4b0f      	ldr	r3, [pc, #60]	; (8001b1c <HAL_TIM_PWM_PulseFinishedCallback+0x40>)
 8001ae0:	429a      	cmp	r2, r3
{
 8001ae2:	b510      	push	{r4, lr}
	if(hTim->Instance == TIM3)
 8001ae4:	d119      	bne.n	8001b1a <HAL_TIM_PWM_PulseFinishedCallback+0x3e>
	{
		//Стробируем строку, защелкивая ICG пин линейки
		if(icgTick==TCD1304_DELTA_TIME ){
 8001ae6:	4c0e      	ldr	r4, [pc, #56]	; (8001b20 <HAL_TIM_PWM_PulseFinishedCallback+0x44>)
 8001ae8:	8823      	ldrh	r3, [r4, #0]
 8001aea:	f5b3 6ff0 	cmp.w	r3, #1920	; 0x780
 8001aee:	d104      	bne.n	8001afa <HAL_TIM_PWM_PulseFinishedCallback+0x1e>
			HAL_GPIO_WritePin(GPIOC,GPIO_PIN_2,GPIO_PIN_RESET);
 8001af0:	2200      	movs	r2, #0
 8001af2:	2104      	movs	r1, #4
 8001af4:	480b      	ldr	r0, [pc, #44]	; (8001b24 <HAL_TIM_PWM_PulseFinishedCallback+0x48>)
 8001af6:	f001 f839 	bl	8002b6c <HAL_GPIO_WritePin>
		}
		if(icgTick>TCD1304_DELTA_TIME){
 8001afa:	8823      	ldrh	r3, [r4, #0]
 8001afc:	f5b3 6ff0 	cmp.w	r3, #1920	; 0x780
 8001b00:	d908      	bls.n	8001b14 <HAL_TIM_PWM_PulseFinishedCallback+0x38>
			BSP_TIM4ADC_Start();//по окончанию защелкивания - производим запуск выборки сигнала
 8001b02:	f000 f989 	bl	8001e18 <BSP_TIM4ADC_Start>
			HAL_GPIO_WritePin(GPIOC,GPIO_PIN_2,GPIO_PIN_SET);
 8001b06:	2201      	movs	r2, #1
 8001b08:	2104      	movs	r1, #4
 8001b0a:	4806      	ldr	r0, [pc, #24]	; (8001b24 <HAL_TIM_PWM_PulseFinishedCallback+0x48>)
 8001b0c:	f001 f82e 	bl	8002b6c <HAL_GPIO_WritePin>
			icgTick = 0;
 8001b10:	2300      	movs	r3, #0
 8001b12:	8023      	strh	r3, [r4, #0]
		}
		icgTick++;
 8001b14:	8823      	ldrh	r3, [r4, #0]
 8001b16:	3301      	adds	r3, #1
 8001b18:	8023      	strh	r3, [r4, #0]
 8001b1a:	bd10      	pop	{r4, pc}
 8001b1c:	40000400 	.word	0x40000400
 8001b20:	20000aac 	.word	0x20000aac
 8001b24:	40020800 	.word	0x40020800

08001b28 <TCD1304_SampleTimerCallback>:
  * @brief	обработчик прерывания от TimerADCSample.
  * @note	Производим захват 256 значений из аналогово сигнала. Длительность сигнала - 9.131 mS. Длительность выборки - 9.131 / 256 = 35.66 uS
  * @reval 	None
  */
void TCD1304_SampleTimerCallback()
{
 8001b28:	b570      	push	{r4, r5, r6, lr}
	if(ulADCSampleCounter<TCD1304_DATA_SIZE)
 8001b2a:	4c19      	ldr	r4, [pc, #100]	; (8001b90 <TCD1304_SampleTimerCallback+0x68>)
 8001b2c:	8823      	ldrh	r3, [r4, #0]
 8001b2e:	2bff      	cmp	r3, #255	; 0xff
 8001b30:	d823      	bhi.n	8001b7a <TCD1304_SampleTimerCallback+0x52>
	{
		uint16_t	*adcBuf_1 = BSP_GetADCBuf1Value();
 8001b32:	f000 f8fd 	bl	8001d30 <BSP_GetADCBuf1Value>
 8001b36:	4605      	mov	r5, r0
		uint16_t	*adcBuf_2 = BSP_GetADCBuf2Value();
 8001b38:	f000 f8fe 	bl	8001d38 <BSP_GetADCBuf2Value>

		adcTCDPack[0].Adc = 1;
 8001b3c:	4b15      	ldr	r3, [pc, #84]	; (8001b94 <TCD1304_SampleTimerCallback+0x6c>)
 8001b3e:	2201      	movs	r2, #1
 8001b40:	701a      	strb	r2, [r3, #0]
		adcTCDPack[0].Data[ulADCSampleCounter] = TCD1304_ADC_MAX_VALUE - adcBuf_1[0];
 8001b42:	8822      	ldrh	r2, [r4, #0]
 8001b44:	8829      	ldrh	r1, [r5, #0]
 8001b46:	eb03 0642 	add.w	r6, r3, r2, lsl #1
 8001b4a:	f5c1 5180 	rsb	r1, r1, #4096	; 0x1000
 8001b4e:	8071      	strh	r1, [r6, #2]
		adcTCDPack[0].Data[ulADCSampleCounter + TCD1304_DATA_SIZE] = TCD1304_ADC_MAX_VALUE - adcBuf_1[1];
 8001b50:	8869      	ldrh	r1, [r5, #2]
 8001b52:	f5c1 5180 	rsb	r1, r1, #4096	; 0x1000
 8001b56:	f8a6 1202 	strh.w	r1, [r6, #514]	; 0x202

		adcTCDPack[1].Adc = 2;
 8001b5a:	2102      	movs	r1, #2
 8001b5c:	f883 1402 	strb.w	r1, [r3, #1026]	; 0x402
		adcTCDPack[1].Data[ulADCSampleCounter] = 4096 - adcBuf_2[0];
 8001b60:	8801      	ldrh	r1, [r0, #0]
 8001b62:	f5c1 5180 	rsb	r1, r1, #4096	; 0x1000
 8001b66:	f8a6 1404 	strh.w	r1, [r6, #1028]	; 0x404
		adcTCDPack[1].Data[ulADCSampleCounter + TCD1304_DATA_SIZE] = TCD1304_ADC_MAX_VALUE - adcBuf_2[1];
 8001b6a:	8841      	ldrh	r1, [r0, #2]

		ulADCSampleCounter++;
 8001b6c:	3201      	adds	r2, #1
		adcTCDPack[1].Data[ulADCSampleCounter + TCD1304_DATA_SIZE] = TCD1304_ADC_MAX_VALUE - adcBuf_2[1];
 8001b6e:	f5c1 5180 	rsb	r1, r1, #4096	; 0x1000
 8001b72:	f8a6 1604 	strh.w	r1, [r6, #1540]	; 0x604
		ulADCSampleCounter++;
 8001b76:	8022      	strh	r2, [r4, #0]
 8001b78:	bd70      	pop	{r4, r5, r6, pc}
	}
	else
	{
		BSP_TIM4ADC_Stop();
 8001b7a:	f000 f95d 	bl	8001e38 <BSP_TIM4ADC_Stop>

		TCD1304_DataCallback(&adcTCDPack[0]);
 8001b7e:	4805      	ldr	r0, [pc, #20]	; (8001b94 <TCD1304_SampleTimerCallback+0x6c>)
 8001b80:	f7ff ff90 	bl	8001aa4 <TCD1304_DataCallback>
		TCD1304_DataCallback(&adcTCDPack[1]);
 8001b84:	4804      	ldr	r0, [pc, #16]	; (8001b98 <TCD1304_SampleTimerCallback+0x70>)
 8001b86:	f7ff ff8d 	bl	8001aa4 <TCD1304_DataCallback>

		ulADCSampleCounter = 0;
 8001b8a:	2300      	movs	r3, #0
 8001b8c:	8023      	strh	r3, [r4, #0]
 8001b8e:	bd70      	pop	{r4, r5, r6, pc}
 8001b90:	200110fc 	.word	0x200110fc
 8001b94:	200002a8 	.word	0x200002a8
 8001b98:	200006aa 	.word	0x200006aa

08001b9c <BSP_ADC_Init>:
  * @param  Adc: номер АЦП
  * @reval	None
  */
void	BSP_ADC_Init(eADCInitMode	Mode,uint8_t	Adc)
{
	switch(Mode)
 8001b9c:	2801      	cmp	r0, #1
{
 8001b9e:	b510      	push	{r4, lr}
	switch(Mode)
 8001ba0:	f040 808e 	bne.w	8001cc0 <BSP_ADC_Init+0x124>
	{
		case ADC_INIT_DMA_CONTCONV:
		{
			if(Adc == 1)
 8001ba4:	2901      	cmp	r1, #1
 8001ba6:	d146      	bne.n	8001c36 <BSP_ADC_Init+0x9a>
			{
				ADC1Handle.Instance          = ADC1;
 8001ba8:	4846      	ldr	r0, [pc, #280]	; (8001cc4 <BSP_ADC_Init+0x128>)
				ADC1Handle.Init.ClockPrescaler = ADC_CLOCKPRESCALER_PCLK_DIV8;
 8001baa:	4b47      	ldr	r3, [pc, #284]	; (8001cc8 <BSP_ADC_Init+0x12c>)
				ADC1Handle.Init.Resolution = ADC_RESOLUTION_12B;
				ADC1Handle.Init.ScanConvMode = ENABLE;
 8001bac:	6101      	str	r1, [r0, #16]
				ADC1Handle.Init.ClockPrescaler = ADC_CLOCKPRESCALER_PCLK_DIV8;
 8001bae:	f44f 3c40 	mov.w	ip, #196608	; 0x30000
 8001bb2:	e880 1008 	stmia.w	r0, {r3, ip}
				ADC1Handle.Init.DiscontinuousConvMode = DISABLE;
				ADC1Handle.Init.NbrOfDiscConversion = 0;
				ADC1Handle.Init.ExternalTrigConvEdge = ADC_EXTERNALTRIGCONVEDGE_NONE;
				ADC1Handle.Init.ExternalTrigConv = ADC_EXTERNALTRIGCONV_T1_CC1;
				ADC1Handle.Init.DataAlign = ADC_DATAALIGN_RIGHT;
				ADC1Handle.Init.NbrOfConversion = 2;
 8001bb6:	2202      	movs	r2, #2
				ADC1Handle.Init.Resolution = ADC_RESOLUTION_12B;
 8001bb8:	2300      	movs	r3, #0
 8001bba:	6083      	str	r3, [r0, #8]
				ADC1Handle.Init.ContinuousConvMode = ENABLE;
 8001bbc:	6181      	str	r1, [r0, #24]
				ADC1Handle.Init.DiscontinuousConvMode = DISABLE;
 8001bbe:	6203      	str	r3, [r0, #32]
				ADC1Handle.Init.NbrOfDiscConversion = 0;
 8001bc0:	6243      	str	r3, [r0, #36]	; 0x24
				ADC1Handle.Init.ExternalTrigConvEdge = ADC_EXTERNALTRIGCONVEDGE_NONE;
 8001bc2:	62c3      	str	r3, [r0, #44]	; 0x2c
				ADC1Handle.Init.ExternalTrigConv = ADC_EXTERNALTRIGCONV_T1_CC1;
 8001bc4:	6283      	str	r3, [r0, #40]	; 0x28
				ADC1Handle.Init.DataAlign = ADC_DATAALIGN_RIGHT;
 8001bc6:	60c3      	str	r3, [r0, #12]
				ADC1Handle.Init.NbrOfConversion = 2;
 8001bc8:	61c2      	str	r2, [r0, #28]
				ADC1Handle.Init.DMAContinuousRequests = ENABLE;
 8001bca:	6301      	str	r1, [r0, #48]	; 0x30
				ADC1Handle.Init.EOCSelection = DISABLE;
 8001bcc:	6143      	str	r3, [r0, #20]

				if(HAL_ADC_Init(&ADC1Handle) != HAL_OK){
 8001bce:	f000 fa4b 	bl	8002068 <HAL_ADC_Init>
 8001bd2:	b118      	cbz	r0, 8001bdc <BSP_ADC_Init+0x40>
					Error_Handler();
 8001bd4:	2135      	movs	r1, #53	; 0x35
 8001bd6:	483d      	ldr	r0, [pc, #244]	; (8001ccc <BSP_ADC_Init+0x130>)
 8001bd8:	f7ff fa84 	bl	80010e4 <_Error_Handler>
				}

				 /*##-2- Configure ADC regular channel ######################################*/
				ADC1Config.Channel = ADC_CHANNEL_5;
 8001bdc:	4c3c      	ldr	r4, [pc, #240]	; (8001cd0 <BSP_ADC_Init+0x134>)
				ADC1Config.Rank = 1;
				ADC1Config.SamplingTime = ADC_SAMPLETIME_112CYCLES;
				ADC1Config.Offset = 0;

				if(HAL_ADC_ConfigChannel(&ADC1Handle, &ADC1Config) != HAL_OK){
 8001bde:	4839      	ldr	r0, [pc, #228]	; (8001cc4 <BSP_ADC_Init+0x128>)
				ADC1Config.Channel = ADC_CHANNEL_5;
 8001be0:	2305      	movs	r3, #5
 8001be2:	6023      	str	r3, [r4, #0]
				ADC1Config.Rank = 1;
 8001be4:	2201      	movs	r2, #1
				ADC1Config.SamplingTime = ADC_SAMPLETIME_112CYCLES;
 8001be6:	60a3      	str	r3, [r4, #8]
				if(HAL_ADC_ConfigChannel(&ADC1Handle, &ADC1Config) != HAL_OK){
 8001be8:	4621      	mov	r1, r4
				ADC1Config.Offset = 0;
 8001bea:	2300      	movs	r3, #0
				ADC1Config.Rank = 1;
 8001bec:	6062      	str	r2, [r4, #4]
				ADC1Config.Offset = 0;
 8001bee:	60e3      	str	r3, [r4, #12]
				if(HAL_ADC_ConfigChannel(&ADC1Handle, &ADC1Config) != HAL_OK){
 8001bf0:	f000 fc36 	bl	8002460 <HAL_ADC_ConfigChannel>
 8001bf4:	b118      	cbz	r0, 8001bfe <BSP_ADC_Init+0x62>
					Error_Handler();
 8001bf6:	213f      	movs	r1, #63	; 0x3f
 8001bf8:	4834      	ldr	r0, [pc, #208]	; (8001ccc <BSP_ADC_Init+0x130>)
 8001bfa:	f7ff fa73 	bl	80010e4 <_Error_Handler>
				}

				ADC1Config.Channel = ADC_CHANNEL_7;
				ADC1Config.Rank = 2;
				ADC1Config.SamplingTime = ADC_SAMPLETIME_112CYCLES;
				ADC1Config.Offset = 0;
 8001bfe:	2007      	movs	r0, #7
 8001c00:	2102      	movs	r1, #2
 8001c02:	2205      	movs	r2, #5
 8001c04:	2300      	movs	r3, #0
 8001c06:	e884 000f 	stmia.w	r4, {r0, r1, r2, r3}

				if(HAL_ADC_ConfigChannel(&ADC1Handle, &ADC1Config) != HAL_OK){
 8001c0a:	4931      	ldr	r1, [pc, #196]	; (8001cd0 <BSP_ADC_Init+0x134>)
 8001c0c:	482d      	ldr	r0, [pc, #180]	; (8001cc4 <BSP_ADC_Init+0x128>)
 8001c0e:	f000 fc27 	bl	8002460 <HAL_ADC_ConfigChannel>
 8001c12:	b118      	cbz	r0, 8001c1c <BSP_ADC_Init+0x80>
					Error_Handler();
 8001c14:	2148      	movs	r1, #72	; 0x48
 8001c16:	482d      	ldr	r0, [pc, #180]	; (8001ccc <BSP_ADC_Init+0x130>)
 8001c18:	f7ff fa64 	bl	80010e4 <_Error_Handler>
				}

				if(HAL_ADC_Start_DMA(&ADC1Handle, (uint32_t*)adcBuf_1, 2) != HAL_OK){
 8001c1c:	2202      	movs	r2, #2
 8001c1e:	492d      	ldr	r1, [pc, #180]	; (8001cd4 <BSP_ADC_Init+0x138>)
 8001c20:	4828      	ldr	r0, [pc, #160]	; (8001cc4 <BSP_ADC_Init+0x128>)
 8001c22:	f000 fac5 	bl	80021b0 <HAL_ADC_Start_DMA>
 8001c26:	2800      	cmp	r0, #0
 8001c28:	d04a      	beq.n	8001cc0 <BSP_ADC_Init+0x124>
					Error_Handler();
 8001c2a:	214c      	movs	r1, #76	; 0x4c
				if(HAL_ADC_ConfigChannel(&ADC2Handle, &ADC2Config) != HAL_OK){
					Error_Handler();
				}

				if(HAL_ADC_Start_DMA(&ADC2Handle, (uint32_t*)adcBuf_2, 2) != HAL_OK){
					Error_Handler();
 8001c2c:	4827      	ldr	r0, [pc, #156]	; (8001ccc <BSP_ADC_Init+0x130>)
				}
			}
		}break;
	}
}
 8001c2e:	e8bd 4010 	ldmia.w	sp!, {r4, lr}
					Error_Handler();
 8001c32:	f7ff ba57 	b.w	80010e4 <_Error_Handler>
			if(Adc == 2)
 8001c36:	2902      	cmp	r1, #2
 8001c38:	d142      	bne.n	8001cc0 <BSP_ADC_Init+0x124>
				ADC2Handle.Instance          = ADC2;
 8001c3a:	4b27      	ldr	r3, [pc, #156]	; (8001cd8 <BSP_ADC_Init+0x13c>)
				ADC2Handle.Init.ClockPrescaler = ADC_CLOCKPRESCALER_PCLK_DIV8;
 8001c3c:	4a27      	ldr	r2, [pc, #156]	; (8001cdc <BSP_ADC_Init+0x140>)
				ADC2Handle.Init.ScanConvMode = ENABLE;
 8001c3e:	6118      	str	r0, [r3, #16]
				ADC2Handle.Init.ClockPrescaler = ADC_CLOCKPRESCALER_PCLK_DIV8;
 8001c40:	f44f 3c40 	mov.w	ip, #196608	; 0x30000
 8001c44:	e883 1004 	stmia.w	r3, {r2, ip}
				ADC2Handle.Init.ContinuousConvMode = ENABLE;
 8001c48:	6198      	str	r0, [r3, #24]
				ADC2Handle.Init.Resolution = ADC_RESOLUTION_12B;
 8001c4a:	2200      	movs	r2, #0
				ADC2Handle.Init.DMAContinuousRequests = ENABLE;
 8001c4c:	6318      	str	r0, [r3, #48]	; 0x30
				if(HAL_ADC_Init(&ADC2Handle) != HAL_OK){
 8001c4e:	4618      	mov	r0, r3
				ADC2Handle.Init.Resolution = ADC_RESOLUTION_12B;
 8001c50:	609a      	str	r2, [r3, #8]
				ADC2Handle.Init.DiscontinuousConvMode = DISABLE;
 8001c52:	621a      	str	r2, [r3, #32]
				ADC2Handle.Init.NbrOfDiscConversion = 0;
 8001c54:	625a      	str	r2, [r3, #36]	; 0x24
				ADC2Handle.Init.ExternalTrigConvEdge = ADC_EXTERNALTRIGCONVEDGE_NONE;
 8001c56:	62da      	str	r2, [r3, #44]	; 0x2c
				ADC2Handle.Init.ExternalTrigConv = ADC_EXTERNALTRIGCONV_T1_CC1;
 8001c58:	629a      	str	r2, [r3, #40]	; 0x28
				ADC2Handle.Init.DataAlign = ADC_DATAALIGN_RIGHT;
 8001c5a:	60da      	str	r2, [r3, #12]
				ADC2Handle.Init.NbrOfConversion = 2;
 8001c5c:	61d9      	str	r1, [r3, #28]
				ADC2Handle.Init.EOCSelection = DISABLE;
 8001c5e:	615a      	str	r2, [r3, #20]
				if(HAL_ADC_Init(&ADC2Handle) != HAL_OK){
 8001c60:	f000 fa02 	bl	8002068 <HAL_ADC_Init>
 8001c64:	b118      	cbz	r0, 8001c6e <BSP_ADC_Init+0xd2>
					Error_Handler();
 8001c66:	2160      	movs	r1, #96	; 0x60
 8001c68:	4818      	ldr	r0, [pc, #96]	; (8001ccc <BSP_ADC_Init+0x130>)
 8001c6a:	f7ff fa3b 	bl	80010e4 <_Error_Handler>
				ADC2Config.Channel = ADC_CHANNEL_2;
 8001c6e:	4c1c      	ldr	r4, [pc, #112]	; (8001ce0 <BSP_ADC_Init+0x144>)
				if(HAL_ADC_ConfigChannel(&ADC2Handle, &ADC2Config) != HAL_OK){
 8001c70:	4819      	ldr	r0, [pc, #100]	; (8001cd8 <BSP_ADC_Init+0x13c>)
				ADC2Config.Offset = 0;
 8001c72:	2202      	movs	r2, #2
 8001c74:	2301      	movs	r3, #1
 8001c76:	f04f 0c05 	mov.w	ip, #5
 8001c7a:	f04f 0e00 	mov.w	lr, #0
				if(HAL_ADC_ConfigChannel(&ADC2Handle, &ADC2Config) != HAL_OK){
 8001c7e:	4621      	mov	r1, r4
				ADC2Config.Offset = 0;
 8001c80:	e884 500c 	stmia.w	r4, {r2, r3, ip, lr}
				if(HAL_ADC_ConfigChannel(&ADC2Handle, &ADC2Config) != HAL_OK){
 8001c84:	f000 fbec 	bl	8002460 <HAL_ADC_ConfigChannel>
 8001c88:	b118      	cbz	r0, 8001c92 <BSP_ADC_Init+0xf6>
					Error_Handler();
 8001c8a:	216a      	movs	r1, #106	; 0x6a
 8001c8c:	480f      	ldr	r0, [pc, #60]	; (8001ccc <BSP_ADC_Init+0x130>)
 8001c8e:	f7ff fa29 	bl	80010e4 <_Error_Handler>
				ADC2Config.Offset = 0;
 8001c92:	2003      	movs	r0, #3
 8001c94:	2102      	movs	r1, #2
 8001c96:	2205      	movs	r2, #5
 8001c98:	2300      	movs	r3, #0
 8001c9a:	e884 000f 	stmia.w	r4, {r0, r1, r2, r3}
				if(HAL_ADC_ConfigChannel(&ADC2Handle, &ADC2Config) != HAL_OK){
 8001c9e:	4910      	ldr	r1, [pc, #64]	; (8001ce0 <BSP_ADC_Init+0x144>)
 8001ca0:	480d      	ldr	r0, [pc, #52]	; (8001cd8 <BSP_ADC_Init+0x13c>)
 8001ca2:	f000 fbdd 	bl	8002460 <HAL_ADC_ConfigChannel>
 8001ca6:	b118      	cbz	r0, 8001cb0 <BSP_ADC_Init+0x114>
					Error_Handler();
 8001ca8:	2173      	movs	r1, #115	; 0x73
 8001caa:	4808      	ldr	r0, [pc, #32]	; (8001ccc <BSP_ADC_Init+0x130>)
 8001cac:	f7ff fa1a 	bl	80010e4 <_Error_Handler>
				if(HAL_ADC_Start_DMA(&ADC2Handle, (uint32_t*)adcBuf_2, 2) != HAL_OK){
 8001cb0:	2202      	movs	r2, #2
 8001cb2:	490c      	ldr	r1, [pc, #48]	; (8001ce4 <BSP_ADC_Init+0x148>)
 8001cb4:	4808      	ldr	r0, [pc, #32]	; (8001cd8 <BSP_ADC_Init+0x13c>)
 8001cb6:	f000 fa7b 	bl	80021b0 <HAL_ADC_Start_DMA>
 8001cba:	b108      	cbz	r0, 8001cc0 <BSP_ADC_Init+0x124>
					Error_Handler();
 8001cbc:	2177      	movs	r1, #119	; 0x77
 8001cbe:	e7b5      	b.n	8001c2c <BSP_ADC_Init+0x90>
 8001cc0:	bd10      	pop	{r4, pc}
 8001cc2:	bf00      	nop
 8001cc4:	200111b4 	.word	0x200111b4
 8001cc8:	40012000 	.word	0x40012000
 8001ccc:	08007674 	.word	0x08007674
 8001cd0:	200111a4 	.word	0x200111a4
 8001cd4:	20011158 	.word	0x20011158
 8001cd8:	2001115c 	.word	0x2001115c
 8001cdc:	40012100 	.word	0x40012100
 8001ce0:	200111fc 	.word	0x200111fc
 8001ce4:	2001120c 	.word	0x2001120c

08001ce8 <BSP_ADC_Start>:
/**
  * @brief	Запуск преобразования
  * @reval	None
  */
void	BSP_ADC_Start()
{
 8001ce8:	b508      	push	{r3, lr}
	if(HAL_ADC_Start_DMA(&ADC1Handle, (uint32_t*)adcBuf_1, 2) != HAL_OK)
 8001cea:	2202      	movs	r2, #2
 8001cec:	490a      	ldr	r1, [pc, #40]	; (8001d18 <BSP_ADC_Start+0x30>)
 8001cee:	480b      	ldr	r0, [pc, #44]	; (8001d1c <BSP_ADC_Start+0x34>)
 8001cf0:	f000 fa5e 	bl	80021b0 <HAL_ADC_Start_DMA>
 8001cf4:	b118      	cbz	r0, 8001cfe <BSP_ADC_Start+0x16>
		Error_Handler();
 8001cf6:	2185      	movs	r1, #133	; 0x85
 8001cf8:	4809      	ldr	r0, [pc, #36]	; (8001d20 <BSP_ADC_Start+0x38>)
 8001cfa:	f7ff f9f3 	bl	80010e4 <_Error_Handler>

	if(HAL_ADC_Start_DMA(&ADC2Handle, (uint32_t*)adcBuf_2, 2) != HAL_OK)
 8001cfe:	2202      	movs	r2, #2
 8001d00:	4908      	ldr	r1, [pc, #32]	; (8001d24 <BSP_ADC_Start+0x3c>)
 8001d02:	4809      	ldr	r0, [pc, #36]	; (8001d28 <BSP_ADC_Start+0x40>)
 8001d04:	f000 fa54 	bl	80021b0 <HAL_ADC_Start_DMA>
 8001d08:	b128      	cbz	r0, 8001d16 <BSP_ADC_Start+0x2e>
		Error_Handler();
 8001d0a:	2188      	movs	r1, #136	; 0x88
 8001d0c:	4804      	ldr	r0, [pc, #16]	; (8001d20 <BSP_ADC_Start+0x38>)

}
 8001d0e:	e8bd 4008 	ldmia.w	sp!, {r3, lr}
		Error_Handler();
 8001d12:	f7ff b9e7 	b.w	80010e4 <_Error_Handler>
 8001d16:	bd08      	pop	{r3, pc}
 8001d18:	20011158 	.word	0x20011158
 8001d1c:	200111b4 	.word	0x200111b4
 8001d20:	08007674 	.word	0x08007674
 8001d24:	2001120c 	.word	0x2001120c
 8001d28:	2001115c 	.word	0x2001115c

08001d2c <HAL_ADC_ConvCpltCallback>:
  * @brief	Callback функция окончания преобразования АЦП
  * @param  AdcHandle: указатель на АЦП блок
  * @reval	None
  */
void HAL_ADC_ConvCpltCallback(ADC_HandleTypeDef* AdcHandle)
{
 8001d2c:	4770      	bx	lr
	...

08001d30 <BSP_GetADCBuf1Value>:
  * @reval	None
  */
uint16_t	*BSP_GetADCBuf1Value()
{
	return adcBuf_1;
}
 8001d30:	4800      	ldr	r0, [pc, #0]	; (8001d34 <BSP_GetADCBuf1Value+0x4>)
 8001d32:	4770      	bx	lr
 8001d34:	20011158 	.word	0x20011158

08001d38 <BSP_GetADCBuf2Value>:
  * @reval	None
  */
uint16_t	*BSP_GetADCBuf2Value()
{
	return adcBuf_2;
}
 8001d38:	4800      	ldr	r0, [pc, #0]	; (8001d3c <BSP_GetADCBuf2Value+0x4>)
 8001d3a:	4770      	bx	lr
 8001d3c:	2001120c 	.word	0x2001120c

08001d40 <BSP_TIM2PWM_Init>:
  * @param	None
  * @reval	None
  */
void	BSP_TIM2PWM_Init()
{
	Tim2PWMHandle.Instance = TIM2;
 8001d40:	4820      	ldr	r0, [pc, #128]	; (8001dc4 <BSP_TIM2PWM_Init+0x84>)

	Tim2PWMHandle.Init.Prescaler     = 8;
 8001d42:	2308      	movs	r3, #8
 8001d44:	f04f 4280 	mov.w	r2, #1073741824	; 0x40000000
{
 8001d48:	b510      	push	{r4, lr}
	Tim2PWMHandle.Init.Prescaler     = 8;
 8001d4a:	e880 000c 	stmia.w	r0, {r2, r3}
	Tim2PWMHandle.Init.Period        = 0xFFFF - 1;
 8001d4e:	f64f 73fe 	movw	r3, #65534	; 0xfffe
 8001d52:	60c3      	str	r3, [r0, #12]
	Tim2PWMHandle.Init.ClockDivision = 0;
 8001d54:	2300      	movs	r3, #0
 8001d56:	6103      	str	r3, [r0, #16]
	Tim2PWMHandle.Init.CounterMode   = TIM_COUNTERMODE_UP;
 8001d58:	6083      	str	r3, [r0, #8]

	if(HAL_TIM_PWM_Init(&Tim2PWMHandle) != HAL_OK){
 8001d5a:	f001 fff1 	bl	8003d40 <HAL_TIM_PWM_Init>
 8001d5e:	b118      	cbz	r0, 8001d68 <BSP_TIM2PWM_Init+0x28>
			Error_Handler();
 8001d60:	211c      	movs	r1, #28
 8001d62:	4819      	ldr	r0, [pc, #100]	; (8001dc8 <BSP_TIM2PWM_Init+0x88>)
 8001d64:	f7ff f9be 	bl	80010e4 <_Error_Handler>
	}

	sConfigPWM.OCMode     = TIM_OCMODE_PWM1;
 8001d68:	4c18      	ldr	r4, [pc, #96]	; (8001dcc <BSP_TIM2PWM_Init+0x8c>)
	sConfigPWM.OCPolarity = TIM_OCPOLARITY_HIGH;
	sConfigPWM.OCFastMode = TIM_OCFAST_DISABLE;

	sConfigPWM.Pulse = 1;
	if(HAL_TIM_PWM_ConfigChannel(&Tim2PWMHandle, &sConfigPWM, TIM_CHANNEL_1) != HAL_OK){
 8001d6a:	4816      	ldr	r0, [pc, #88]	; (8001dc4 <BSP_TIM2PWM_Init+0x84>)
	sConfigPWM.OCMode     = TIM_OCMODE_PWM1;
 8001d6c:	2360      	movs	r3, #96	; 0x60
	sConfigPWM.OCPolarity = TIM_OCPOLARITY_HIGH;
 8001d6e:	2200      	movs	r2, #0
	sConfigPWM.OCMode     = TIM_OCMODE_PWM1;
 8001d70:	6023      	str	r3, [r4, #0]
	if(HAL_TIM_PWM_ConfigChannel(&Tim2PWMHandle, &sConfigPWM, TIM_CHANNEL_1) != HAL_OK){
 8001d72:	4621      	mov	r1, r4
	sConfigPWM.Pulse = 1;
 8001d74:	2301      	movs	r3, #1
	sConfigPWM.OCPolarity = TIM_OCPOLARITY_HIGH;
 8001d76:	60a2      	str	r2, [r4, #8]
	sConfigPWM.OCFastMode = TIM_OCFAST_DISABLE;
 8001d78:	6122      	str	r2, [r4, #16]
	sConfigPWM.Pulse = 1;
 8001d7a:	6063      	str	r3, [r4, #4]
	if(HAL_TIM_PWM_ConfigChannel(&Tim2PWMHandle, &sConfigPWM, TIM_CHANNEL_1) != HAL_OK){
 8001d7c:	f002 f82a 	bl	8003dd4 <HAL_TIM_PWM_ConfigChannel>
 8001d80:	b118      	cbz	r0, 8001d8a <BSP_TIM2PWM_Init+0x4a>
			  Error_Handler();
 8001d82:	2125      	movs	r1, #37	; 0x25
 8001d84:	4810      	ldr	r0, [pc, #64]	; (8001dc8 <BSP_TIM2PWM_Init+0x88>)
 8001d86:	f7ff f9ad 	bl	80010e4 <_Error_Handler>
	}

	sConfigPWM.Pulse = 1000;
 8001d8a:	f44f 737a 	mov.w	r3, #1000	; 0x3e8
	if(HAL_TIM_PWM_ConfigChannel(&Tim2PWMHandle, &sConfigPWM, TIM_CHANNEL_2) != HAL_OK){
 8001d8e:	2204      	movs	r2, #4
 8001d90:	490e      	ldr	r1, [pc, #56]	; (8001dcc <BSP_TIM2PWM_Init+0x8c>)
 8001d92:	480c      	ldr	r0, [pc, #48]	; (8001dc4 <BSP_TIM2PWM_Init+0x84>)
	sConfigPWM.Pulse = 1000;
 8001d94:	6063      	str	r3, [r4, #4]
	if(HAL_TIM_PWM_ConfigChannel(&Tim2PWMHandle, &sConfigPWM, TIM_CHANNEL_2) != HAL_OK){
 8001d96:	f002 f81d 	bl	8003dd4 <HAL_TIM_PWM_ConfigChannel>
 8001d9a:	b118      	cbz	r0, 8001da4 <BSP_TIM2PWM_Init+0x64>
				  Error_Handler();
 8001d9c:	212a      	movs	r1, #42	; 0x2a
 8001d9e:	480a      	ldr	r0, [pc, #40]	; (8001dc8 <BSP_TIM2PWM_Init+0x88>)
 8001da0:	f7ff f9a0 	bl	80010e4 <_Error_Handler>
	}

	sConfigPWM.Pulse = 3000;
 8001da4:	f640 33b8 	movw	r3, #3000	; 0xbb8
	if(HAL_TIM_PWM_ConfigChannel(&Tim2PWMHandle, &sConfigPWM, TIM_CHANNEL_3) != HAL_OK){
 8001da8:	2208      	movs	r2, #8
 8001daa:	4908      	ldr	r1, [pc, #32]	; (8001dcc <BSP_TIM2PWM_Init+0x8c>)
 8001dac:	4805      	ldr	r0, [pc, #20]	; (8001dc4 <BSP_TIM2PWM_Init+0x84>)
	sConfigPWM.Pulse = 3000;
 8001dae:	6063      	str	r3, [r4, #4]
	if(HAL_TIM_PWM_ConfigChannel(&Tim2PWMHandle, &sConfigPWM, TIM_CHANNEL_3) != HAL_OK){
 8001db0:	f002 f810 	bl	8003dd4 <HAL_TIM_PWM_ConfigChannel>
 8001db4:	b128      	cbz	r0, 8001dc2 <BSP_TIM2PWM_Init+0x82>
					  Error_Handler();
 8001db6:	212f      	movs	r1, #47	; 0x2f
 8001db8:	4803      	ldr	r0, [pc, #12]	; (8001dc8 <BSP_TIM2PWM_Init+0x88>)
	}

}
 8001dba:	e8bd 4010 	ldmia.w	sp!, {r4, lr}
					  Error_Handler();
 8001dbe:	f7ff b991 	b.w	80010e4 <_Error_Handler>
 8001dc2:	bd10      	pop	{r4, pc}
 8001dc4:	2001124c 	.word	0x2001124c
 8001dc8:	08007691 	.word	0x08007691
 8001dcc:	20011100 	.word	0x20011100

08001dd0 <BSP_TIM4ADC_Init>:
  * @brief	Инициализация таймера выборки сигнала с линейки
  * @reval 	None
  */
void	BSP_TIM4ADC_Init()
{
	Tim4ADCHandle.Instance = TIM4;
 8001dd0:	480e      	ldr	r0, [pc, #56]	; (8001e0c <BSP_TIM4ADC_Init+0x3c>)
{
 8001dd2:	b508      	push	{r3, lr}
	Tim4ADCHandle.Instance = TIM4;
 8001dd4:	4b0e      	ldr	r3, [pc, #56]	; (8001e10 <BSP_TIM4ADC_Init+0x40>)
 8001dd6:	6003      	str	r3, [r0, #0]

	Tim4ADCHandle.Init.Prescaler     = 0;
	Tim4ADCHandle.Init.Period        = 2995;
 8001dd8:	f640 32b3 	movw	r2, #2995	; 0xbb3
	Tim4ADCHandle.Init.Prescaler     = 0;
 8001ddc:	2300      	movs	r3, #0
 8001dde:	6043      	str	r3, [r0, #4]
	Tim4ADCHandle.Init.Period        = 2995;
 8001de0:	60c2      	str	r2, [r0, #12]
	Tim4ADCHandle.Init.ClockDivision = 0;
 8001de2:	6103      	str	r3, [r0, #16]
	Tim4ADCHandle.Init.CounterMode   = TIM_COUNTERMODE_UP;
 8001de4:	6083      	str	r3, [r0, #8]

	if(HAL_TIM_Base_Init(&Tim4ADCHandle) != HAL_OK){
 8001de6:	f001 ff91 	bl	8003d0c <HAL_TIM_Base_Init>
 8001dea:	b118      	cbz	r0, 8001df4 <BSP_TIM4ADC_Init+0x24>
		Error_Handler();
 8001dec:	2158      	movs	r1, #88	; 0x58
 8001dee:	4809      	ldr	r0, [pc, #36]	; (8001e14 <BSP_TIM4ADC_Init+0x44>)
 8001df0:	f7ff f978 	bl	80010e4 <_Error_Handler>
	}

	if(HAL_TIM_Base_Start_IT(&Tim4ADCHandle) != HAL_OK){
 8001df4:	4805      	ldr	r0, [pc, #20]	; (8001e0c <BSP_TIM4ADC_Init+0x3c>)
 8001df6:	f001 fe5f 	bl	8003ab8 <HAL_TIM_Base_Start_IT>
 8001dfa:	b128      	cbz	r0, 8001e08 <BSP_TIM4ADC_Init+0x38>
		Error_Handler();
 8001dfc:	215c      	movs	r1, #92	; 0x5c
 8001dfe:	4805      	ldr	r0, [pc, #20]	; (8001e14 <BSP_TIM4ADC_Init+0x44>)
	}
}
 8001e00:	e8bd 4008 	ldmia.w	sp!, {r3, lr}
		Error_Handler();
 8001e04:	f7ff b96e 	b.w	80010e4 <_Error_Handler>
 8001e08:	bd08      	pop	{r3, pc}
 8001e0a:	bf00      	nop
 8001e0c:	20011210 	.word	0x20011210
 8001e10:	40000800 	.word	0x40000800
 8001e14:	08007691 	.word	0x08007691

08001e18 <BSP_TIM4ADC_Start>:
/**
  * @brief	Запуск таймера
  * @reval 	None
  */
void	BSP_TIM4ADC_Start()
{
 8001e18:	b508      	push	{r3, lr}
	if(HAL_TIM_Base_Start_IT(&Tim4ADCHandle) != HAL_OK){
 8001e1a:	4805      	ldr	r0, [pc, #20]	; (8001e30 <BSP_TIM4ADC_Start+0x18>)
 8001e1c:	f001 fe4c 	bl	8003ab8 <HAL_TIM_Base_Start_IT>
 8001e20:	b128      	cbz	r0, 8001e2e <BSP_TIM4ADC_Start+0x16>
		Error_Handler();
 8001e22:	2167      	movs	r1, #103	; 0x67
 8001e24:	4803      	ldr	r0, [pc, #12]	; (8001e34 <BSP_TIM4ADC_Start+0x1c>)
	}
}
 8001e26:	e8bd 4008 	ldmia.w	sp!, {r3, lr}
		Error_Handler();
 8001e2a:	f7ff b95b 	b.w	80010e4 <_Error_Handler>
 8001e2e:	bd08      	pop	{r3, pc}
 8001e30:	20011210 	.word	0x20011210
 8001e34:	08007691 	.word	0x08007691

08001e38 <BSP_TIM4ADC_Stop>:
/**
  * @brief	Остановка таймера
  * @reval 	None
  */
void	BSP_TIM4ADC_Stop()
{
 8001e38:	b508      	push	{r3, lr}
	if(HAL_TIM_Base_Stop_IT(&Tim4ADCHandle) != HAL_OK){
 8001e3a:	4805      	ldr	r0, [pc, #20]	; (8001e50 <BSP_TIM4ADC_Stop+0x18>)
 8001e3c:	f001 fe47 	bl	8003ace <HAL_TIM_Base_Stop_IT>
 8001e40:	b128      	cbz	r0, 8001e4e <BSP_TIM4ADC_Stop+0x16>
		Error_Handler();
 8001e42:	2172      	movs	r1, #114	; 0x72
 8001e44:	4803      	ldr	r0, [pc, #12]	; (8001e54 <BSP_TIM4ADC_Stop+0x1c>)
	}
}
 8001e46:	e8bd 4008 	ldmia.w	sp!, {r3, lr}
		Error_Handler();
 8001e4a:	f7ff b94b 	b.w	80010e4 <_Error_Handler>
 8001e4e:	bd08      	pop	{r3, pc}
 8001e50:	20011210 	.word	0x20011210
 8001e54:	08007691 	.word	0x08007691

08001e58 <BSP_Usb_TxTask>:
	* @brief	Поток передачи байт из очереди в CDC USB
	* @param	argument: параметры потока FreeRTOS 
	* @reval	None
	*/
void	BSP_Usb_TxTask(void const * argument)
{
 8001e58:	b570      	push	{r4, r5, r6, lr}
	static tUSBTxPackage	txMsg;
	
	while(1)
	{
		portBASE_TYPE xStatus;
		xStatus=xQueueReceive(usbTxDataQueue, &txMsg, portMAX_DELAY);
 8001e5a:	4c0d      	ldr	r4, [pc, #52]	; (8001e90 <BSP_Usb_TxTask+0x38>)
 8001e5c:	4e0d      	ldr	r6, [pc, #52]	; (8001e94 <BSP_Usb_TxTask+0x3c>)
 8001e5e:	490c      	ldr	r1, [pc, #48]	; (8001e90 <BSP_Usb_TxTask+0x38>)
 8001e60:	6830      	ldr	r0, [r6, #0]
 8001e62:	2300      	movs	r3, #0
 8001e64:	f04f 32ff 	mov.w	r2, #4294967295
 8001e68:	f003 ff9e 	bl	8005da8 <xQueueGenericReceive>
			if (xStatus == pdPASS){
 8001e6c:	2801      	cmp	r0, #1
		xStatus=xQueueReceive(usbTxDataQueue, &txMsg, portMAX_DELAY);
 8001e6e:	4605      	mov	r5, r0
			if (xStatus == pdPASS){
 8001e70:	d1f5      	bne.n	8001e5e <BSP_Usb_TxTask+0x6>
				//int	pPackSize = 0;
				//uint8_t *pPackage = protocol_CreatePackageForOutputStream(txMsg.Event,txMsg.Status,txMsg.DataSize,txMsg.pData,&pPackSize);
				//if(pPackage)
				
					taskENTER_CRITICAL();
 8001e72:	f003 fc67 	bl	8005744 <vPortEnterCritical>
					CDC_Transmit_FS(txMsg.pData,txMsg.Len);
 8001e76:	88a1      	ldrh	r1, [r4, #4]
 8001e78:	6820      	ldr	r0, [r4, #0]
 8001e7a:	f002 fdd7 	bl	8004a2c <CDC_Transmit_FS>
					vPortFree(txMsg.pData);
 8001e7e:	6820      	ldr	r0, [r4, #0]
 8001e80:	f003 fbca 	bl	8005618 <vPortFree>
					taskEXIT_CRITICAL();
 8001e84:	f003 fc80 	bl	8005788 <vPortExitCritical>
					osDelay(1);
 8001e88:	4628      	mov	r0, r5
 8001e8a:	f003 fac0 	bl	800540e <osDelay>
 8001e8e:	e7e6      	b.n	8001e5e <BSP_Usb_TxTask+0x6>
 8001e90:	20000ebc 	.word	0x20000ebc
 8001e94:	20011290 	.word	0x20011290

08001e98 <BSP_Usb_RxTask>:
	* @brief	Поток приема байт из очереди в CDC USB
	* @param	argument: параметры потока FreeRTOS 
	* @reval	None
	*/
void	BSP_Usb_RxTask(void const * argument)
{
 8001e98:	b57f      	push	{r0, r1, r2, r3, r4, r5, r6, lr}
	uint8_t 	*pPackage = 0;

	while(1)
	{
		portBASE_TYPE xStatus;
		xStatus=xQueueReceive(usbRxDataQueue, &receiveByte, portMAX_DELAY);
 8001e9a:	4d0d      	ldr	r5, [pc, #52]	; (8001ed0 <BSP_Usb_RxTask+0x38>)
 8001e9c:	4e0d      	ldr	r6, [pc, #52]	; (8001ed4 <BSP_Usb_RxTask+0x3c>)

			if (xStatus == pdPASS){
				pPackage = Protocol_GetPacketFromStream(usbRxBuf,USB_RX_BUF_SIZE,&UsbBufInd,receiveByte,&sPackage);
 8001e9e:	4c0e      	ldr	r4, [pc, #56]	; (8001ed8 <BSP_Usb_RxTask+0x40>)
		xStatus=xQueueReceive(usbRxDataQueue, &receiveByte, portMAX_DELAY);
 8001ea0:	490b      	ldr	r1, [pc, #44]	; (8001ed0 <BSP_Usb_RxTask+0x38>)
 8001ea2:	6830      	ldr	r0, [r6, #0]
 8001ea4:	2300      	movs	r3, #0
 8001ea6:	f04f 32ff 	mov.w	r2, #4294967295
 8001eaa:	f003 ff7d 	bl	8005da8 <xQueueGenericReceive>
			if (xStatus == pdPASS){
 8001eae:	2801      	cmp	r0, #1
 8001eb0:	d1f6      	bne.n	8001ea0 <BSP_Usb_RxTask+0x8>
				pPackage = Protocol_GetPacketFromStream(usbRxBuf,USB_RX_BUF_SIZE,&UsbBufInd,receiveByte,&sPackage);
 8001eb2:	aa03      	add	r2, sp, #12
 8001eb4:	9200      	str	r2, [sp, #0]
 8001eb6:	782b      	ldrb	r3, [r5, #0]
 8001eb8:	4a07      	ldr	r2, [pc, #28]	; (8001ed8 <BSP_Usb_RxTask+0x40>)
 8001eba:	4808      	ldr	r0, [pc, #32]	; (8001edc <BSP_Usb_RxTask+0x44>)
 8001ebc:	2140      	movs	r1, #64	; 0x40
 8001ebe:	f7ff fa35 	bl	800132c <Protocol_GetPacketFromStream>
					if(pPackage){
 8001ec2:	2800      	cmp	r0, #0
 8001ec4:	d0ec      	beq.n	8001ea0 <BSP_Usb_RxTask+0x8>
						UsbBufInd = 0;
 8001ec6:	2300      	movs	r3, #0
 8001ec8:	6023      	str	r3, [r4, #0]
						Protocol_RxPackageAnalysis(pPackage);
 8001eca:	f7ff faf5 	bl	80014b8 <Protocol_RxPackageAnalysis>
 8001ece:	e7e7      	b.n	8001ea0 <BSP_Usb_RxTask+0x8>
 8001ed0:	20000eb8 	.word	0x20000eb8
 8001ed4:	2001128c 	.word	0x2001128c
 8001ed8:	20000eb4 	.word	0x20000eb4
 8001edc:	20000ecc 	.word	0x20000ecc

08001ee0 <BSP_Usb_Init>:
{
 8001ee0:	b5f0      	push	{r4, r5, r6, r7, lr}
	UsbBufInd= 0;
 8001ee2:	4b19      	ldr	r3, [pc, #100]	; (8001f48 <BSP_Usb_Init+0x68>)
	usbTxDataQueue = xQueueCreate(USB_TX_QUEUE_LEN, sizeof(tUSBTxPackage));
 8001ee4:	4c19      	ldr	r4, [pc, #100]	; (8001f4c <BSP_Usb_Init+0x6c>)
	UsbBufInd= 0;
 8001ee6:	2700      	movs	r7, #0
{
 8001ee8:	b08b      	sub	sp, #44	; 0x2c
	usbTxDataQueue = xQueueCreate(USB_TX_QUEUE_LEN, sizeof(tUSBTxPackage));
 8001eea:	463a      	mov	r2, r7
 8001eec:	2108      	movs	r1, #8
 8001eee:	2010      	movs	r0, #16
	UsbBufInd= 0;
 8001ef0:	601f      	str	r7, [r3, #0]
	usbTxDataQueue = xQueueCreate(USB_TX_QUEUE_LEN, sizeof(tUSBTxPackage));
 8001ef2:	f003 fe1d 	bl	8005b30 <xQueueGenericCreate>
	usbRxDataQueue = xQueueCreate(USB_RX_QUEUE_LEN, sizeof(uint8_t));
 8001ef6:	463a      	mov	r2, r7
	usbTxDataQueue = xQueueCreate(USB_TX_QUEUE_LEN, sizeof(tUSBTxPackage));
 8001ef8:	6020      	str	r0, [r4, #0]
	usbRxDataQueue = xQueueCreate(USB_RX_QUEUE_LEN, sizeof(uint8_t));
 8001efa:	2101      	movs	r1, #1
 8001efc:	2040      	movs	r0, #64	; 0x40
 8001efe:	f003 fe17 	bl	8005b30 <xQueueGenericCreate>
 8001f02:	4b13      	ldr	r3, [pc, #76]	; (8001f50 <BSP_Usb_Init+0x70>)
	vQueueAddToRegistry(usbTxDataQueue,"usbTxDataQueue");
 8001f04:	4913      	ldr	r1, [pc, #76]	; (8001f54 <BSP_Usb_Init+0x74>)
	usbRxDataQueue = xQueueCreate(USB_RX_QUEUE_LEN, sizeof(uint8_t));
 8001f06:	6018      	str	r0, [r3, #0]
	vQueueAddToRegistry(usbTxDataQueue,"usbTxDataQueue");
 8001f08:	6820      	ldr	r0, [r4, #0]
	osThreadDef(usbTxTask, BSP_Usb_TxTask, osPriorityNormal, 0, configMINIMAL_STACK_SIZE + 0x100);
 8001f0a:	4c13      	ldr	r4, [pc, #76]	; (8001f58 <BSP_Usb_Init+0x78>)
 8001f0c:	4626      	mov	r6, r4
	vQueueAddToRegistry(usbTxDataQueue,"usbTxDataQueue");
 8001f0e:	f004 f80f 	bl	8005f30 <vQueueAddToRegistry>
	osThreadDef(usbTxTask, BSP_Usb_TxTask, osPriorityNormal, 0, configMINIMAL_STACK_SIZE + 0x100);
 8001f12:	ce0f      	ldmia	r6!, {r0, r1, r2, r3}
 8001f14:	466d      	mov	r5, sp
 8001f16:	c50f      	stmia	r5!, {r0, r1, r2, r3}
 8001f18:	6833      	ldr	r3, [r6, #0]
 8001f1a:	602b      	str	r3, [r5, #0]
 	usbTaskTxHandle = osThreadCreate(osThread(usbTxTask), NULL);
 8001f1c:	4639      	mov	r1, r7
 8001f1e:	4668      	mov	r0, sp
 8001f20:	f003 fa5d 	bl	80053de <osThreadCreate>
 8001f24:	4b0d      	ldr	r3, [pc, #52]	; (8001f5c <BSP_Usb_Init+0x7c>)
	osThreadDef(usbRxTask, BSP_Usb_RxTask, osPriorityNormal, 0, configMINIMAL_STACK_SIZE + 0x100);
 8001f26:	3414      	adds	r4, #20
 	usbTaskTxHandle = osThreadCreate(osThread(usbTxTask), NULL);
 8001f28:	6018      	str	r0, [r3, #0]
	osThreadDef(usbRxTask, BSP_Usb_RxTask, osPriorityNormal, 0, configMINIMAL_STACK_SIZE + 0x100);
 8001f2a:	cc0f      	ldmia	r4!, {r0, r1, r2, r3}
 8001f2c:	ad05      	add	r5, sp, #20
 8001f2e:	c50f      	stmia	r5!, {r0, r1, r2, r3}
 8001f30:	6823      	ldr	r3, [r4, #0]
 8001f32:	602b      	str	r3, [r5, #0]
	usbTaskRxHandle = osThreadCreate(osThread(usbRxTask), NULL);
 8001f34:	4639      	mov	r1, r7
 8001f36:	a805      	add	r0, sp, #20
 8001f38:	f003 fa51 	bl	80053de <osThreadCreate>
 8001f3c:	4b08      	ldr	r3, [pc, #32]	; (8001f60 <BSP_Usb_Init+0x80>)
 8001f3e:	6018      	str	r0, [r3, #0]
	MX_USB_DEVICE_Init();
 8001f40:	f002 fd2c 	bl	800499c <MX_USB_DEVICE_Init>
}
 8001f44:	b00b      	add	sp, #44	; 0x2c
 8001f46:	bdf0      	pop	{r4, r5, r6, r7, pc}
 8001f48:	20000eb4 	.word	0x20000eb4
 8001f4c:	20011290 	.word	0x20011290
 8001f50:	2001128c 	.word	0x2001128c
 8001f54:	080076b1 	.word	0x080076b1
 8001f58:	08007600 	.word	0x08007600
 8001f5c:	20011294 	.word	0x20011294
 8001f60:	20011288 	.word	0x20011288

08001f64 <BSP_Usb_ReceiveCallback>:
	* @param	pBuf: указатель на буфер принятых данных
	* @param	pLen: указатель на количество принятых байт в буфер
	* @reval 	None
	*/
void BSP_Usb_ReceiveCallback(uint8_t* Buf, uint32_t *Len)
{
 8001f64:	e92d 43f7 	stmdb	sp!, {r0, r1, r2, r4, r5, r6, r7, r8, r9, lr}
	static portBASE_TYPE xHigherPriorityTaskWoken;
	xHigherPriorityTaskWoken = pdFALSE;
 8001f68:	4c13      	ldr	r4, [pc, #76]	; (8001fb8 <BSP_Usb_ReceiveCallback+0x54>)

	for(int i = 0;i<*Len;i++)
	{
		uint8_t DataReceive = *(Buf + i*sizeof(int8_t));
		xQueueSendToBackFromISR(usbRxDataQueue, &DataReceive, &xHigherPriorityTaskWoken);
 8001f6a:	f8df 8054 	ldr.w	r8, [pc, #84]	; 8001fc0 <BSP_Usb_ReceiveCallback+0x5c>
	xHigherPriorityTaskWoken = pdFALSE;
 8001f6e:	2300      	movs	r3, #0
{
 8001f70:	4606      	mov	r6, r0
 8001f72:	460f      	mov	r7, r1
	xHigherPriorityTaskWoken = pdFALSE;
 8001f74:	6023      	str	r3, [r4, #0]
	for(int i = 0;i<*Len;i++)
 8001f76:	4605      	mov	r5, r0
		xQueueSendToBackFromISR(usbRxDataQueue, &DataReceive, &xHigherPriorityTaskWoken);
 8001f78:	46a1      	mov	r9, r4
	for(int i = 0;i<*Len;i++)
 8001f7a:	683a      	ldr	r2, [r7, #0]
 8001f7c:	1bab      	subs	r3, r5, r6
 8001f7e:	429a      	cmp	r2, r3
 8001f80:	d80c      	bhi.n	8001f9c <BSP_Usb_ReceiveCallback+0x38>
	}
	if (xHigherPriorityTaskWoken != pdFALSE) {
 8001f82:	6823      	ldr	r3, [r4, #0]
 8001f84:	b13b      	cbz	r3, 8001f96 <BSP_Usb_ReceiveCallback+0x32>
	   portEND_SWITCHING_ISR( xHigherPriorityTaskWoken );
 8001f86:	4b0d      	ldr	r3, [pc, #52]	; (8001fbc <BSP_Usb_ReceiveCallback+0x58>)
 8001f88:	f04f 5280 	mov.w	r2, #268435456	; 0x10000000
 8001f8c:	601a      	str	r2, [r3, #0]
 8001f8e:	f3bf 8f4f 	dsb	sy
 8001f92:	f3bf 8f6f 	isb	sy
	 }
}
 8001f96:	b003      	add	sp, #12
 8001f98:	e8bd 83f0 	ldmia.w	sp!, {r4, r5, r6, r7, r8, r9, pc}
		uint8_t DataReceive = *(Buf + i*sizeof(int8_t));
 8001f9c:	f815 3b01 	ldrb.w	r3, [r5], #1
 8001fa0:	f88d 3007 	strb.w	r3, [sp, #7]
		xQueueSendToBackFromISR(usbRxDataQueue, &DataReceive, &xHigherPriorityTaskWoken);
 8001fa4:	464a      	mov	r2, r9
 8001fa6:	2300      	movs	r3, #0
 8001fa8:	f10d 0107 	add.w	r1, sp, #7
 8001fac:	f8d8 0000 	ldr.w	r0, [r8]
 8001fb0:	f003 fe98 	bl	8005ce4 <xQueueGenericSendFromISR>
 8001fb4:	e7e1      	b.n	8001f7a <BSP_Usb_ReceiveCallback+0x16>
 8001fb6:	bf00      	nop
 8001fb8:	20000f0c 	.word	0x20000f0c
 8001fbc:	e000ed04 	.word	0xe000ed04
 8001fc0:	2001128c 	.word	0x2001128c

08001fc4 <BSP_Usb_SendPackage>:
	* @param	pData: указатель на буфер передаваемых данных
	* @param	Len: размер передаваемого буфера
	* @reval 	None
	*/
void BSP_Usb_SendPackage(uint8_t	*pData,uint16_t	Len)
{
 8001fc4:	b410      	push	{r4}
	static tUSBTxPackage	txMsg;
		
	txMsg.pData = pData;
 8001fc6:	4c06      	ldr	r4, [pc, #24]	; (8001fe0 <BSP_Usb_SendPackage+0x1c>)
 8001fc8:	6020      	str	r0, [r4, #0]
	txMsg.Len = Len;
	
	xQueueSendToBack(usbTxDataQueue,&txMsg,0);
 8001fca:	4806      	ldr	r0, [pc, #24]	; (8001fe4 <BSP_Usb_SendPackage+0x20>)
	txMsg.Len = Len;
 8001fcc:	80a1      	strh	r1, [r4, #4]
	xQueueSendToBack(usbTxDataQueue,&txMsg,0);
 8001fce:	2300      	movs	r3, #0
 8001fd0:	4621      	mov	r1, r4
 8001fd2:	461a      	mov	r2, r3
 8001fd4:	6800      	ldr	r0, [r0, #0]
}
 8001fd6:	f85d 4b04 	ldr.w	r4, [sp], #4
	xQueueSendToBack(usbTxDataQueue,&txMsg,0);
 8001fda:	f003 bdcd 	b.w	8005b78 <xQueueGenericSend>
 8001fde:	bf00      	nop
 8001fe0:	20000ec4 	.word	0x20000ec4
 8001fe4:	20011290 	.word	0x20011290

08001fe8 <HAL_Init>:
  *         need to ensure that the SysTick time base is always set to 1 millisecond
  *         to have correct HAL operation.
  * @retval HAL status
  */
HAL_StatusTypeDef HAL_Init(void)
{
 8001fe8:	b508      	push	{r3, lr}
  /* Configure Flash prefetch, Instruction cache, Data cache */ 
#if (INSTRUCTION_CACHE_ENABLE != 0U)
  __HAL_FLASH_INSTRUCTION_CACHE_ENABLE();
 8001fea:	4b0b      	ldr	r3, [pc, #44]	; (8002018 <HAL_Init+0x30>)
 8001fec:	681a      	ldr	r2, [r3, #0]
 8001fee:	f442 7200 	orr.w	r2, r2, #512	; 0x200
 8001ff2:	601a      	str	r2, [r3, #0]
#endif /* INSTRUCTION_CACHE_ENABLE */

#if (DATA_CACHE_ENABLE != 0U)
  __HAL_FLASH_DATA_CACHE_ENABLE();
 8001ff4:	681a      	ldr	r2, [r3, #0]
 8001ff6:	f442 6280 	orr.w	r2, r2, #1024	; 0x400
 8001ffa:	601a      	str	r2, [r3, #0]
#endif /* DATA_CACHE_ENABLE */

#if (PREFETCH_ENABLE != 0U)
  __HAL_FLASH_PREFETCH_BUFFER_ENABLE();
 8001ffc:	681a      	ldr	r2, [r3, #0]
 8001ffe:	f442 7280 	orr.w	r2, r2, #256	; 0x100
 8002002:	601a      	str	r2, [r3, #0]
#endif /* PREFETCH_ENABLE */

  /* Set Interrupt Group Priority */
  HAL_NVIC_SetPriorityGrouping(NVIC_PRIORITYGROUP_4);
 8002004:	2003      	movs	r0, #3
 8002006:	f000 fac5 	bl	8002594 <HAL_NVIC_SetPriorityGrouping>

  /* Use systick as time base source and configure 1ms tick (default clock after Reset is HSI) */
  HAL_InitTick(TICK_INT_PRIORITY);
 800200a:	2000      	movs	r0, #0
 800200c:	f7ff fc16 	bl	800183c <HAL_InitTick>

  /* Init the low level hardware */
  HAL_MspInit();
 8002010:	f7ff fa77 	bl	8001502 <HAL_MspInit>

  /* Return function status */
  return HAL_OK;
}
 8002014:	2000      	movs	r0, #0
 8002016:	bd08      	pop	{r3, pc}
 8002018:	40023c00 	.word	0x40023c00

0800201c <HAL_IncTick>:
  *      implementations in user file.
  * @retval None
  */
__weak void HAL_IncTick(void)
{
  uwTick += uwTickFreq;
 800201c:	4a03      	ldr	r2, [pc, #12]	; (800202c <HAL_IncTick+0x10>)
 800201e:	4b04      	ldr	r3, [pc, #16]	; (8002030 <HAL_IncTick+0x14>)
 8002020:	6811      	ldr	r1, [r2, #0]
 8002022:	781b      	ldrb	r3, [r3, #0]
 8002024:	440b      	add	r3, r1
 8002026:	6013      	str	r3, [r2, #0]
 8002028:	4770      	bx	lr
 800202a:	bf00      	nop
 800202c:	20011298 	.word	0x20011298
 8002030:	20000004 	.word	0x20000004

08002034 <HAL_GetTick>:
  *       implementations in user file.
  * @retval tick value
  */
__weak uint32_t HAL_GetTick(void)
{
  return uwTick;
 8002034:	4b01      	ldr	r3, [pc, #4]	; (800203c <HAL_GetTick+0x8>)
 8002036:	6818      	ldr	r0, [r3, #0]
}
 8002038:	4770      	bx	lr
 800203a:	bf00      	nop
 800203c:	20011298 	.word	0x20011298

08002040 <HAL_Delay>:
  *       implementations in user file.
  * @param Delay specifies the delay time length, in milliseconds.
  * @retval None
  */
__weak void HAL_Delay(uint32_t Delay)
{
 8002040:	b538      	push	{r3, r4, r5, lr}
 8002042:	4604      	mov	r4, r0
  uint32_t tickstart = HAL_GetTick();
 8002044:	f7ff fff6 	bl	8002034 <HAL_GetTick>
  uint32_t wait = Delay;

  /* Add a freq to guarantee minimum wait */
  if (wait < HAL_MAX_DELAY)
 8002048:	1c63      	adds	r3, r4, #1
  {
    wait += (uint32_t)(uwTickFreq);
 800204a:	bf1c      	itt	ne
 800204c:	4b05      	ldrne	r3, [pc, #20]	; (8002064 <HAL_Delay+0x24>)
 800204e:	781b      	ldrbne	r3, [r3, #0]
  uint32_t tickstart = HAL_GetTick();
 8002050:	4605      	mov	r5, r0
    wait += (uint32_t)(uwTickFreq);
 8002052:	bf18      	it	ne
 8002054:	18e4      	addne	r4, r4, r3
  }

  while((HAL_GetTick() - tickstart) < wait)
 8002056:	f7ff ffed 	bl	8002034 <HAL_GetTick>
 800205a:	1b40      	subs	r0, r0, r5
 800205c:	4284      	cmp	r4, r0
 800205e:	d8fa      	bhi.n	8002056 <HAL_Delay+0x16>
  {
  }
}
 8002060:	bd38      	pop	{r3, r4, r5, pc}
 8002062:	bf00      	nop
 8002064:	20000004 	.word	0x20000004

08002068 <HAL_ADC_Init>:
  * @param  hadc pointer to a ADC_HandleTypeDef structure that contains
  *         the configuration information for the specified ADC.  
  * @retval HAL status
  */
HAL_StatusTypeDef HAL_ADC_Init(ADC_HandleTypeDef* hadc)
{
 8002068:	b510      	push	{r4, lr}
  HAL_StatusTypeDef tmp_hal_status = HAL_OK;
  
  /* Check ADC handle */
  if(hadc == NULL)
 800206a:	4604      	mov	r4, r0
 800206c:	2800      	cmp	r0, #0
 800206e:	f000 8099 	beq.w	80021a4 <HAL_ADC_Init+0x13c>
  if(hadc->Init.ExternalTrigConv != ADC_SOFTWARE_START)
  {
    assert_param(IS_ADC_EXT_TRIG_EDGE(hadc->Init.ExternalTrigConvEdge));
  }
  
  if(hadc->State == HAL_ADC_STATE_RESET)
 8002072:	6c03      	ldr	r3, [r0, #64]	; 0x40
 8002074:	b923      	cbnz	r3, 8002080 <HAL_ADC_Init+0x18>
  {
    /* Initialize ADC error code */
    ADC_CLEAR_ERRORCODE(hadc);
 8002076:	6443      	str	r3, [r0, #68]	; 0x44
    
    /* Allocate lock resource and initialize it */
    hadc->Lock = HAL_UNLOCKED;
 8002078:	f880 303c 	strb.w	r3, [r0, #60]	; 0x3c
    
    /* Init the low level hardware */
    HAL_ADC_MspInit(hadc);
 800207c:	f7ff fb0e 	bl	800169c <HAL_ADC_MspInit>
  }
  
  /* Configuration of ADC parameters if previous preliminary actions are      */ 
  /* correctly completed.                                                     */
  if (HAL_IS_BIT_CLR(hadc->State, HAL_ADC_STATE_ERROR_INTERNAL))
 8002080:	6c23      	ldr	r3, [r4, #64]	; 0x40
 8002082:	06db      	lsls	r3, r3, #27
 8002084:	f100 808c 	bmi.w	80021a0 <HAL_ADC_Init+0x138>
  {
    /* Set ADC state */
    ADC_STATE_CLR_SET(hadc->State,
 8002088:	6c23      	ldr	r3, [r4, #64]	; 0x40
 800208a:	f423 5388 	bic.w	r3, r3, #4352	; 0x1100
 800208e:	f023 0302 	bic.w	r3, r3, #2
 8002092:	f043 0302 	orr.w	r3, r3, #2
 8002096:	6423      	str	r3, [r4, #64]	; 0x40
  /* (Depending on STM32F4 product, there may be up to 3 ADCs and 1 common */
  /* control register)                                                    */
  tmpADC_Common = ADC_COMMON_REGISTER(hadc);
  
  /* Set the ADC clock prescaler */
  tmpADC_Common->CCR &= ~(ADC_CCR_ADCPRE);
 8002098:	4b43      	ldr	r3, [pc, #268]	; (80021a8 <HAL_ADC_Init+0x140>)
 800209a:	685a      	ldr	r2, [r3, #4]
 800209c:	f422 3240 	bic.w	r2, r2, #196608	; 0x30000
 80020a0:	605a      	str	r2, [r3, #4]
  tmpADC_Common->CCR |=  hadc->Init.ClockPrescaler;
 80020a2:	685a      	ldr	r2, [r3, #4]
 80020a4:	6861      	ldr	r1, [r4, #4]
 80020a6:	430a      	orrs	r2, r1
 80020a8:	605a      	str	r2, [r3, #4]
  
  /* Set ADC scan mode */
  hadc->Instance->CR1 &= ~(ADC_CR1_SCAN);
 80020aa:	6823      	ldr	r3, [r4, #0]
  hadc->Instance->CR1 |=  ADC_CR1_SCANCONV(hadc->Init.ScanConvMode);
 80020ac:	6921      	ldr	r1, [r4, #16]
  hadc->Instance->CR1 &= ~(ADC_CR1_SCAN);
 80020ae:	685a      	ldr	r2, [r3, #4]
 80020b0:	f422 7280 	bic.w	r2, r2, #256	; 0x100
 80020b4:	605a      	str	r2, [r3, #4]
  hadc->Instance->CR1 |=  ADC_CR1_SCANCONV(hadc->Init.ScanConvMode);
 80020b6:	685a      	ldr	r2, [r3, #4]
 80020b8:	ea42 2201 	orr.w	r2, r2, r1, lsl #8
 80020bc:	605a      	str	r2, [r3, #4]
  
  /* Set ADC resolution */
  hadc->Instance->CR1 &= ~(ADC_CR1_RES);
 80020be:	685a      	ldr	r2, [r3, #4]
  hadc->Instance->CR1 |=  hadc->Init.Resolution;
 80020c0:	68a1      	ldr	r1, [r4, #8]
  hadc->Instance->CR1 &= ~(ADC_CR1_RES);
 80020c2:	f022 7240 	bic.w	r2, r2, #50331648	; 0x3000000
 80020c6:	605a      	str	r2, [r3, #4]
  hadc->Instance->CR1 |=  hadc->Init.Resolution;
 80020c8:	685a      	ldr	r2, [r3, #4]
 80020ca:	430a      	orrs	r2, r1
 80020cc:	605a      	str	r2, [r3, #4]
  
  /* Set ADC data alignment */
  hadc->Instance->CR2 &= ~(ADC_CR2_ALIGN);
 80020ce:	689a      	ldr	r2, [r3, #8]
  hadc->Instance->CR2 |= hadc->Init.DataAlign;
 80020d0:	68e1      	ldr	r1, [r4, #12]
  hadc->Instance->CR2 &= ~(ADC_CR2_ALIGN);
 80020d2:	f422 6200 	bic.w	r2, r2, #2048	; 0x800
 80020d6:	609a      	str	r2, [r3, #8]
  hadc->Instance->CR2 |= hadc->Init.DataAlign;
 80020d8:	689a      	ldr	r2, [r3, #8]
 80020da:	430a      	orrs	r2, r1
 80020dc:	609a      	str	r2, [r3, #8]
  /* Enable external trigger if trigger selection is different of software  */
  /* start.                                                                 */
  /* Note: This configuration keeps the hardware feature of parameter       */
  /*       ExternalTrigConvEdge "trigger edge none" equivalent to           */
  /*       software start.                                                  */
  if(hadc->Init.ExternalTrigConv != ADC_SOFTWARE_START)
 80020de:	4933      	ldr	r1, [pc, #204]	; (80021ac <HAL_ADC_Init+0x144>)
 80020e0:	6aa2      	ldr	r2, [r4, #40]	; 0x28
 80020e2:	428a      	cmp	r2, r1
 80020e4:	d050      	beq.n	8002188 <HAL_ADC_Init+0x120>
  {
    /* Select external trigger to start conversion */
    hadc->Instance->CR2 &= ~(ADC_CR2_EXTSEL);
 80020e6:	6899      	ldr	r1, [r3, #8]
 80020e8:	f021 6170 	bic.w	r1, r1, #251658240	; 0xf000000
 80020ec:	6099      	str	r1, [r3, #8]
    hadc->Instance->CR2 |= hadc->Init.ExternalTrigConv;
 80020ee:	6899      	ldr	r1, [r3, #8]
 80020f0:	430a      	orrs	r2, r1
 80020f2:	609a      	str	r2, [r3, #8]
    
    /* Select external trigger polarity */
    hadc->Instance->CR2 &= ~(ADC_CR2_EXTEN);
 80020f4:	689a      	ldr	r2, [r3, #8]
    hadc->Instance->CR2 |= hadc->Init.ExternalTrigConvEdge;
 80020f6:	6ae1      	ldr	r1, [r4, #44]	; 0x2c
    hadc->Instance->CR2 &= ~(ADC_CR2_EXTEN);
 80020f8:	f022 5240 	bic.w	r2, r2, #805306368	; 0x30000000
 80020fc:	609a      	str	r2, [r3, #8]
    hadc->Instance->CR2 |= hadc->Init.ExternalTrigConvEdge;
 80020fe:	689a      	ldr	r2, [r3, #8]
 8002100:	430a      	orrs	r2, r1
  }
  else
  {
    /* Reset the external trigger */
    hadc->Instance->CR2 &= ~(ADC_CR2_EXTSEL);
    hadc->Instance->CR2 &= ~(ADC_CR2_EXTEN);
 8002102:	609a      	str	r2, [r3, #8]
  }
  
  /* Enable or disable ADC continuous conversion mode */
  hadc->Instance->CR2 &= ~(ADC_CR2_CONT);
 8002104:	689a      	ldr	r2, [r3, #8]
  hadc->Instance->CR2 |= ADC_CR2_CONTINUOUS(hadc->Init.ContinuousConvMode);
 8002106:	69a1      	ldr	r1, [r4, #24]
  hadc->Instance->CR2 &= ~(ADC_CR2_CONT);
 8002108:	f022 0202 	bic.w	r2, r2, #2
 800210c:	609a      	str	r2, [r3, #8]
  hadc->Instance->CR2 |= ADC_CR2_CONTINUOUS(hadc->Init.ContinuousConvMode);
 800210e:	689a      	ldr	r2, [r3, #8]
 8002110:	ea42 0241 	orr.w	r2, r2, r1, lsl #1
 8002114:	609a      	str	r2, [r3, #8]
  
  if(hadc->Init.DiscontinuousConvMode != DISABLE)
 8002116:	6a22      	ldr	r2, [r4, #32]
 8002118:	2a00      	cmp	r2, #0
 800211a:	d03d      	beq.n	8002198 <HAL_ADC_Init+0x130>
  {
    assert_param(IS_ADC_REGULAR_DISC_NUMBER(hadc->Init.NbrOfDiscConversion));
  
    /* Enable the selected ADC regular discontinuous mode */
    hadc->Instance->CR1 |= (uint32_t)ADC_CR1_DISCEN;
 800211c:	685a      	ldr	r2, [r3, #4]
    
    /* Set the number of channels to be converted in discontinuous mode */
    hadc->Instance->CR1 &= ~(ADC_CR1_DISCNUM);
    hadc->Instance->CR1 |=  ADC_CR1_DISCONTINUOUS(hadc->Init.NbrOfDiscConversion);
 800211e:	6a61      	ldr	r1, [r4, #36]	; 0x24
    hadc->Instance->CR1 |= (uint32_t)ADC_CR1_DISCEN;
 8002120:	f442 6200 	orr.w	r2, r2, #2048	; 0x800
 8002124:	605a      	str	r2, [r3, #4]
    hadc->Instance->CR1 &= ~(ADC_CR1_DISCNUM);
 8002126:	685a      	ldr	r2, [r3, #4]
 8002128:	f422 4260 	bic.w	r2, r2, #57344	; 0xe000
 800212c:	605a      	str	r2, [r3, #4]
    hadc->Instance->CR1 |=  ADC_CR1_DISCONTINUOUS(hadc->Init.NbrOfDiscConversion);
 800212e:	685a      	ldr	r2, [r3, #4]
 8002130:	3901      	subs	r1, #1
 8002132:	ea42 3241 	orr.w	r2, r2, r1, lsl #13
  }
  else
  {
    /* Disable the selected ADC regular discontinuous mode */
    hadc->Instance->CR1 &= ~(ADC_CR1_DISCEN);
 8002136:	605a      	str	r2, [r3, #4]
  }
  
  /* Set ADC number of conversion */
  hadc->Instance->SQR1 &= ~(ADC_SQR1_L);
 8002138:	6ada      	ldr	r2, [r3, #44]	; 0x2c
  hadc->Instance->SQR1 |=  ADC_SQR1(hadc->Init.NbrOfConversion);
 800213a:	69e1      	ldr	r1, [r4, #28]
  hadc->Instance->SQR1 &= ~(ADC_SQR1_L);
 800213c:	f422 0270 	bic.w	r2, r2, #15728640	; 0xf00000
 8002140:	62da      	str	r2, [r3, #44]	; 0x2c
  hadc->Instance->SQR1 |=  ADC_SQR1(hadc->Init.NbrOfConversion);
 8002142:	6ada      	ldr	r2, [r3, #44]	; 0x2c
 8002144:	3901      	subs	r1, #1
 8002146:	ea42 5201 	orr.w	r2, r2, r1, lsl #20
 800214a:	62da      	str	r2, [r3, #44]	; 0x2c
  
  /* Enable or disable ADC DMA continuous request */
  hadc->Instance->CR2 &= ~(ADC_CR2_DDS);
 800214c:	689a      	ldr	r2, [r3, #8]
  hadc->Instance->CR2 |= ADC_CR2_DMAContReq(hadc->Init.DMAContinuousRequests);
 800214e:	6b21      	ldr	r1, [r4, #48]	; 0x30
  hadc->Instance->CR2 &= ~(ADC_CR2_DDS);
 8002150:	f422 7200 	bic.w	r2, r2, #512	; 0x200
 8002154:	609a      	str	r2, [r3, #8]
  hadc->Instance->CR2 |= ADC_CR2_DMAContReq(hadc->Init.DMAContinuousRequests);
 8002156:	689a      	ldr	r2, [r3, #8]
 8002158:	ea42 2241 	orr.w	r2, r2, r1, lsl #9
 800215c:	609a      	str	r2, [r3, #8]
  
  /* Enable or disable ADC end of conversion selection */
  hadc->Instance->CR2 &= ~(ADC_CR2_EOCS);
 800215e:	689a      	ldr	r2, [r3, #8]
  hadc->Instance->CR2 |= ADC_CR2_EOCSelection(hadc->Init.EOCSelection);
 8002160:	6961      	ldr	r1, [r4, #20]
  hadc->Instance->CR2 &= ~(ADC_CR2_EOCS);
 8002162:	f422 6280 	bic.w	r2, r2, #1024	; 0x400
 8002166:	609a      	str	r2, [r3, #8]
  hadc->Instance->CR2 |= ADC_CR2_EOCSelection(hadc->Init.EOCSelection);
 8002168:	689a      	ldr	r2, [r3, #8]
    ADC_CLEAR_ERRORCODE(hadc);
 800216a:	2000      	movs	r0, #0
  hadc->Instance->CR2 |= ADC_CR2_EOCSelection(hadc->Init.EOCSelection);
 800216c:	ea42 2281 	orr.w	r2, r2, r1, lsl #10
 8002170:	609a      	str	r2, [r3, #8]
    ADC_CLEAR_ERRORCODE(hadc);
 8002172:	6460      	str	r0, [r4, #68]	; 0x44
    ADC_STATE_CLR_SET(hadc->State,
 8002174:	6c23      	ldr	r3, [r4, #64]	; 0x40
 8002176:	f023 0303 	bic.w	r3, r3, #3
 800217a:	f043 0301 	orr.w	r3, r3, #1
 800217e:	6423      	str	r3, [r4, #64]	; 0x40
  __HAL_UNLOCK(hadc);
 8002180:	2300      	movs	r3, #0
 8002182:	f884 303c 	strb.w	r3, [r4, #60]	; 0x3c
  return tmp_hal_status;
 8002186:	bd10      	pop	{r4, pc}
    hadc->Instance->CR2 &= ~(ADC_CR2_EXTSEL);
 8002188:	689a      	ldr	r2, [r3, #8]
 800218a:	f022 6270 	bic.w	r2, r2, #251658240	; 0xf000000
 800218e:	609a      	str	r2, [r3, #8]
    hadc->Instance->CR2 &= ~(ADC_CR2_EXTEN);
 8002190:	689a      	ldr	r2, [r3, #8]
 8002192:	f022 5240 	bic.w	r2, r2, #805306368	; 0x30000000
 8002196:	e7b4      	b.n	8002102 <HAL_ADC_Init+0x9a>
    hadc->Instance->CR1 &= ~(ADC_CR1_DISCEN);
 8002198:	685a      	ldr	r2, [r3, #4]
 800219a:	f422 6200 	bic.w	r2, r2, #2048	; 0x800
 800219e:	e7ca      	b.n	8002136 <HAL_ADC_Init+0xce>
    tmp_hal_status = HAL_ERROR;
 80021a0:	2001      	movs	r0, #1
 80021a2:	e7ed      	b.n	8002180 <HAL_ADC_Init+0x118>
    return HAL_ERROR;
 80021a4:	2001      	movs	r0, #1
}
 80021a6:	bd10      	pop	{r4, pc}
 80021a8:	40012300 	.word	0x40012300
 80021ac:	0f000001 	.word	0x0f000001

080021b0 <HAL_ADC_Start_DMA>:
{
 80021b0:	b537      	push	{r0, r1, r2, r4, r5, lr}
 80021b2:	4613      	mov	r3, r2
  __IO uint32_t counter = 0U;
 80021b4:	2200      	movs	r2, #0
 80021b6:	9201      	str	r2, [sp, #4]
  __HAL_LOCK(hadc);
 80021b8:	f890 203c 	ldrb.w	r2, [r0, #60]	; 0x3c
 80021bc:	2a01      	cmp	r2, #1
{
 80021be:	4604      	mov	r4, r0
  __HAL_LOCK(hadc);
 80021c0:	d065      	beq.n	800228e <HAL_ADC_Start_DMA+0xde>
  if((hadc->Instance->CR2 & ADC_CR2_ADON) != ADC_CR2_ADON)
 80021c2:	6805      	ldr	r5, [r0, #0]
  __HAL_LOCK(hadc);
 80021c4:	2201      	movs	r2, #1
 80021c6:	f880 203c 	strb.w	r2, [r0, #60]	; 0x3c
  if((hadc->Instance->CR2 & ADC_CR2_ADON) != ADC_CR2_ADON)
 80021ca:	68aa      	ldr	r2, [r5, #8]
 80021cc:	07d2      	lsls	r2, r2, #31
 80021ce:	d505      	bpl.n	80021dc <HAL_ADC_Start_DMA+0x2c>
  if(HAL_IS_BIT_SET(hadc->Instance->CR2, ADC_CR2_ADON))
 80021d0:	68aa      	ldr	r2, [r5, #8]
 80021d2:	07d0      	lsls	r0, r2, #31
 80021d4:	d415      	bmi.n	8002202 <HAL_ADC_Start_DMA+0x52>
  return HAL_OK;
 80021d6:	2000      	movs	r0, #0
}
 80021d8:	b003      	add	sp, #12
 80021da:	bd30      	pop	{r4, r5, pc}
    __HAL_ADC_ENABLE(hadc);
 80021dc:	68aa      	ldr	r2, [r5, #8]
 80021de:	f042 0201 	orr.w	r2, r2, #1
 80021e2:	60aa      	str	r2, [r5, #8]
    counter = (ADC_STAB_DELAY_US * (SystemCoreClock / 1000000U));
 80021e4:	4a2b      	ldr	r2, [pc, #172]	; (8002294 <HAL_ADC_Start_DMA+0xe4>)
 80021e6:	6810      	ldr	r0, [r2, #0]
 80021e8:	4a2b      	ldr	r2, [pc, #172]	; (8002298 <HAL_ADC_Start_DMA+0xe8>)
 80021ea:	fbb0 f0f2 	udiv	r0, r0, r2
 80021ee:	eb00 0040 	add.w	r0, r0, r0, lsl #1
 80021f2:	9001      	str	r0, [sp, #4]
    while(counter != 0U)
 80021f4:	9a01      	ldr	r2, [sp, #4]
 80021f6:	2a00      	cmp	r2, #0
 80021f8:	d0ea      	beq.n	80021d0 <HAL_ADC_Start_DMA+0x20>
      counter--;
 80021fa:	9a01      	ldr	r2, [sp, #4]
 80021fc:	3a01      	subs	r2, #1
 80021fe:	9201      	str	r2, [sp, #4]
 8002200:	e7f8      	b.n	80021f4 <HAL_ADC_Start_DMA+0x44>
    ADC_STATE_CLR_SET(hadc->State,
 8002202:	6c20      	ldr	r0, [r4, #64]	; 0x40
 8002204:	f420 60e0 	bic.w	r0, r0, #1792	; 0x700
 8002208:	f020 0001 	bic.w	r0, r0, #1
 800220c:	f440 7080 	orr.w	r0, r0, #256	; 0x100
 8002210:	6420      	str	r0, [r4, #64]	; 0x40
    if (READ_BIT(hadc->Instance->CR1, ADC_CR1_JAUTO) != RESET)
 8002212:	686a      	ldr	r2, [r5, #4]
 8002214:	0552      	lsls	r2, r2, #21
      ADC_STATE_CLR_SET(hadc->State, HAL_ADC_STATE_INJ_EOC, HAL_ADC_STATE_INJ_BUSY);  
 8002216:	bf41      	itttt	mi
 8002218:	6c20      	ldrmi	r0, [r4, #64]	; 0x40
 800221a:	f420 5040 	bicmi.w	r0, r0, #12288	; 0x3000
 800221e:	f440 5080 	orrmi.w	r0, r0, #4096	; 0x1000
 8002222:	6420      	strmi	r0, [r4, #64]	; 0x40
    if (HAL_IS_BIT_SET(hadc->State, HAL_ADC_STATE_INJ_BUSY))
 8002224:	6c22      	ldr	r2, [r4, #64]	; 0x40
    hadc->DMA_Handle->XferCpltCallback = ADC_DMAConvCplt;
 8002226:	6ba0      	ldr	r0, [r4, #56]	; 0x38
    if (HAL_IS_BIT_SET(hadc->State, HAL_ADC_STATE_INJ_BUSY))
 8002228:	f412 5280 	ands.w	r2, r2, #4096	; 0x1000
      CLEAR_BIT(hadc->ErrorCode, (HAL_ADC_ERROR_OVR | HAL_ADC_ERROR_DMA));         
 800222c:	bf1c      	itt	ne
 800222e:	6c62      	ldrne	r2, [r4, #68]	; 0x44
 8002230:	f022 0206 	bicne.w	r2, r2, #6
      ADC_CLEAR_ERRORCODE(hadc);
 8002234:	6462      	str	r2, [r4, #68]	; 0x44
    __HAL_UNLOCK(hadc);   
 8002236:	2200      	movs	r2, #0
 8002238:	f884 203c 	strb.w	r2, [r4, #60]	; 0x3c
    hadc->DMA_Handle->XferCpltCallback = ADC_DMAConvCplt;
 800223c:	4a17      	ldr	r2, [pc, #92]	; (800229c <HAL_ADC_Start_DMA+0xec>)
 800223e:	63c2      	str	r2, [r0, #60]	; 0x3c
    hadc->DMA_Handle->XferHalfCpltCallback = ADC_DMAHalfConvCplt;
 8002240:	4a17      	ldr	r2, [pc, #92]	; (80022a0 <HAL_ADC_Start_DMA+0xf0>)
 8002242:	6402      	str	r2, [r0, #64]	; 0x40
    hadc->DMA_Handle->XferErrorCallback = ADC_DMAError;
 8002244:	4a17      	ldr	r2, [pc, #92]	; (80022a4 <HAL_ADC_Start_DMA+0xf4>)
 8002246:	64c2      	str	r2, [r0, #76]	; 0x4c
    __HAL_ADC_CLEAR_FLAG(hadc, ADC_FLAG_EOC | ADC_FLAG_OVR);
 8002248:	f06f 0222 	mvn.w	r2, #34	; 0x22
 800224c:	602a      	str	r2, [r5, #0]
    __HAL_ADC_ENABLE_IT(hadc, ADC_IT_OVR);
 800224e:	686a      	ldr	r2, [r5, #4]
 8002250:	f042 6280 	orr.w	r2, r2, #67108864	; 0x4000000
 8002254:	606a      	str	r2, [r5, #4]
    hadc->Instance->CR2 |= ADC_CR2_DMA;
 8002256:	68aa      	ldr	r2, [r5, #8]
 8002258:	f442 7280 	orr.w	r2, r2, #256	; 0x100
 800225c:	60aa      	str	r2, [r5, #8]
    HAL_DMA_Start_IT(hadc->DMA_Handle, (uint32_t)&hadc->Instance->DR, (uint32_t)pData, Length);
 800225e:	460a      	mov	r2, r1
 8002260:	f105 014c 	add.w	r1, r5, #76	; 0x4c
 8002264:	f000 fa9e 	bl	80027a4 <HAL_DMA_Start_IT>
    if(HAL_IS_BIT_CLR(tmpADC_Common->CCR, ADC_CCR_MULTI))
 8002268:	4b0f      	ldr	r3, [pc, #60]	; (80022a8 <HAL_ADC_Start_DMA+0xf8>)
 800226a:	685b      	ldr	r3, [r3, #4]
 800226c:	f013 0f1f 	tst.w	r3, #31
 8002270:	6823      	ldr	r3, [r4, #0]
 8002272:	d108      	bne.n	8002286 <HAL_ADC_Start_DMA+0xd6>
      if((hadc->Instance == ADC1) && ((hadc->Instance->CR2 & ADC_CR2_EXTEN) == RESET))
 8002274:	6898      	ldr	r0, [r3, #8]
 8002276:	f010 5040 	ands.w	r0, r0, #805306368	; 0x30000000
 800227a:	d1ac      	bne.n	80021d6 <HAL_ADC_Start_DMA+0x26>
          hadc->Instance->CR2 |= (uint32_t)ADC_CR2_SWSTART;
 800227c:	689a      	ldr	r2, [r3, #8]
 800227e:	f042 4280 	orr.w	r2, r2, #1073741824	; 0x40000000
 8002282:	609a      	str	r2, [r3, #8]
 8002284:	e7a8      	b.n	80021d8 <HAL_ADC_Start_DMA+0x28>
      if((hadc->Instance == ADC1) && ((hadc->Instance->CR2 & ADC_CR2_EXTEN) == RESET))
 8002286:	4a09      	ldr	r2, [pc, #36]	; (80022ac <HAL_ADC_Start_DMA+0xfc>)
 8002288:	4293      	cmp	r3, r2
 800228a:	d1a4      	bne.n	80021d6 <HAL_ADC_Start_DMA+0x26>
 800228c:	e7f2      	b.n	8002274 <HAL_ADC_Start_DMA+0xc4>
  __HAL_LOCK(hadc);
 800228e:	2002      	movs	r0, #2
 8002290:	e7a2      	b.n	80021d8 <HAL_ADC_Start_DMA+0x28>
 8002292:	bf00      	nop
 8002294:	20000000 	.word	0x20000000
 8002298:	000f4240 	.word	0x000f4240
 800229c:	080022b1 	.word	0x080022b1
 80022a0:	08002313 	.word	0x08002313
 80022a4:	08002449 	.word	0x08002449
 80022a8:	40012300 	.word	0x40012300
 80022ac:	40012000 	.word	0x40012000

080022b0 <ADC_DMAConvCplt>:
  * @retval None
  */
static void ADC_DMAConvCplt(DMA_HandleTypeDef *hdma)   
{
  /* Retrieve ADC handle corresponding to current DMA handle */
  ADC_HandleTypeDef* hadc = ( ADC_HandleTypeDef* )((DMA_HandleTypeDef* )hdma)->Parent;
 80022b0:	6b83      	ldr	r3, [r0, #56]	; 0x38
  
  /* Update state machine on conversion status if not in error state */
  if (HAL_IS_BIT_CLR(hadc->State, HAL_ADC_STATE_ERROR_INTERNAL | HAL_ADC_STATE_ERROR_DMA))
 80022b2:	6c1a      	ldr	r2, [r3, #64]	; 0x40
 80022b4:	f012 0f50 	tst.w	r2, #80	; 0x50
{
 80022b8:	b510      	push	{r4, lr}
  if (HAL_IS_BIT_CLR(hadc->State, HAL_ADC_STATE_ERROR_INTERNAL | HAL_ADC_STATE_ERROR_DMA))
 80022ba:	d124      	bne.n	8002306 <ADC_DMAConvCplt+0x56>
  {
    /* Update ADC state machine */
    SET_BIT(hadc->State, HAL_ADC_STATE_REG_EOC);
 80022bc:	6c1a      	ldr	r2, [r3, #64]	; 0x40
 80022be:	f442 7200 	orr.w	r2, r2, #512	; 0x200
 80022c2:	641a      	str	r2, [r3, #64]	; 0x40
    /* by external trigger, continuous mode or scan sequence on going.      */
    /* Note: On STM32F4, there is no independent flag of end of sequence.   */
    /*       The test of scan sequence on going is done either with scan    */
    /*       sequence disabled or with end of conversion flag set to        */
    /*       of end of sequence.                                            */
    if(ADC_IS_SOFTWARE_START_REGULAR(hadc)                   &&
 80022c4:	681a      	ldr	r2, [r3, #0]
 80022c6:	6891      	ldr	r1, [r2, #8]
 80022c8:	f011 5f40 	tst.w	r1, #805306368	; 0x30000000
 80022cc:	d117      	bne.n	80022fe <ADC_DMAConvCplt+0x4e>
 80022ce:	6999      	ldr	r1, [r3, #24]
 80022d0:	b9a9      	cbnz	r1, 80022fe <ADC_DMAConvCplt+0x4e>
       (hadc->Init.ContinuousConvMode == DISABLE)            &&
       (HAL_IS_BIT_CLR(hadc->Instance->SQR1, ADC_SQR1_L) || 
 80022d2:	6ad1      	ldr	r1, [r2, #44]	; 0x2c
       (hadc->Init.ContinuousConvMode == DISABLE)            &&
 80022d4:	f411 0f70 	tst.w	r1, #15728640	; 0xf00000
 80022d8:	d002      	beq.n	80022e0 <ADC_DMAConvCplt+0x30>
        HAL_IS_BIT_CLR(hadc->Instance->CR2, ADC_CR2_EOCS)  )   )
 80022da:	6891      	ldr	r1, [r2, #8]
       (HAL_IS_BIT_CLR(hadc->Instance->SQR1, ADC_SQR1_L) || 
 80022dc:	0549      	lsls	r1, r1, #21
 80022de:	d40e      	bmi.n	80022fe <ADC_DMAConvCplt+0x4e>
    {
      /* Disable ADC end of single conversion interrupt on group regular */
      /* Note: Overrun interrupt was enabled with EOC interrupt in          */
      /* HAL_ADC_Start_IT(), but is not disabled here because can be used   */
      /* by overrun IRQ process below.                                      */
      __HAL_ADC_DISABLE_IT(hadc, ADC_IT_EOC);
 80022e0:	6851      	ldr	r1, [r2, #4]
 80022e2:	f021 0120 	bic.w	r1, r1, #32
 80022e6:	6051      	str	r1, [r2, #4]
      
      /* Set ADC state */
      CLEAR_BIT(hadc->State, HAL_ADC_STATE_REG_BUSY);   
 80022e8:	6c1a      	ldr	r2, [r3, #64]	; 0x40
 80022ea:	f422 7280 	bic.w	r2, r2, #256	; 0x100
 80022ee:	641a      	str	r2, [r3, #64]	; 0x40
      
      if (HAL_IS_BIT_CLR(hadc->State, HAL_ADC_STATE_INJ_BUSY))
 80022f0:	6c1a      	ldr	r2, [r3, #64]	; 0x40
 80022f2:	04d2      	lsls	r2, r2, #19
      {
        SET_BIT(hadc->State, HAL_ADC_STATE_READY);
 80022f4:	bf5e      	ittt	pl
 80022f6:	6c1a      	ldrpl	r2, [r3, #64]	; 0x40
 80022f8:	f042 0201 	orrpl.w	r2, r2, #1
 80022fc:	641a      	strpl	r2, [r3, #64]	; 0x40
      }
    }
    
    /* Conversion complete callback */
    HAL_ADC_ConvCpltCallback(hadc);
 80022fe:	4618      	mov	r0, r3
 8002300:	f7ff fd14 	bl	8001d2c <HAL_ADC_ConvCpltCallback>
 8002304:	bd10      	pop	{r4, pc}
  }
  else
  {
    /* Call DMA error callback */
    hadc->DMA_Handle->XferErrorCallback(hdma);
 8002306:	6b9b      	ldr	r3, [r3, #56]	; 0x38
  }
}
 8002308:	e8bd 4010 	ldmia.w	sp!, {r4, lr}
    hadc->DMA_Handle->XferErrorCallback(hdma);
 800230c:	6cdb      	ldr	r3, [r3, #76]	; 0x4c
 800230e:	4718      	bx	r3

08002310 <HAL_ADC_ConvHalfCpltCallback>:
 8002310:	4770      	bx	lr

08002312 <ADC_DMAHalfConvCplt>:
  * @param  hdma pointer to a DMA_HandleTypeDef structure that contains
  *                the configuration information for the specified DMA module.
  * @retval None
  */
static void ADC_DMAHalfConvCplt(DMA_HandleTypeDef *hdma)   
{
 8002312:	b508      	push	{r3, lr}
  ADC_HandleTypeDef* hadc = ( ADC_HandleTypeDef* )((DMA_HandleTypeDef* )hdma)->Parent;
  /* Conversion complete callback */
  HAL_ADC_ConvHalfCpltCallback(hadc); 
 8002314:	6b80      	ldr	r0, [r0, #56]	; 0x38
 8002316:	f7ff fffb 	bl	8002310 <HAL_ADC_ConvHalfCpltCallback>
 800231a:	bd08      	pop	{r3, pc}

0800231c <HAL_ADC_LevelOutOfWindowCallback>:
 800231c:	4770      	bx	lr

0800231e <HAL_ADC_ErrorCallback>:
{
 800231e:	4770      	bx	lr

08002320 <HAL_ADC_IRQHandler>:
{
 8002320:	b538      	push	{r3, r4, r5, lr}
  tmp1 = __HAL_ADC_GET_FLAG(hadc, ADC_FLAG_EOC);
 8002322:	6803      	ldr	r3, [r0, #0]
 8002324:	6819      	ldr	r1, [r3, #0]
  tmp2 = __HAL_ADC_GET_IT_SOURCE(hadc, ADC_IT_EOC);
 8002326:	685a      	ldr	r2, [r3, #4]
  if(tmp1 && tmp2)
 8002328:	078d      	lsls	r5, r1, #30
{
 800232a:	4604      	mov	r4, r0
  if(tmp1 && tmp2)
 800232c:	d52b      	bpl.n	8002386 <HAL_ADC_IRQHandler+0x66>
 800232e:	0690      	lsls	r0, r2, #26
 8002330:	d529      	bpl.n	8002386 <HAL_ADC_IRQHandler+0x66>
    if (HAL_IS_BIT_CLR(hadc->State, HAL_ADC_STATE_ERROR_INTERNAL))
 8002332:	6c22      	ldr	r2, [r4, #64]	; 0x40
 8002334:	06d1      	lsls	r1, r2, #27
      SET_BIT(hadc->State, HAL_ADC_STATE_REG_EOC); 
 8002336:	bf5e      	ittt	pl
 8002338:	6c22      	ldrpl	r2, [r4, #64]	; 0x40
 800233a:	f442 7200 	orrpl.w	r2, r2, #512	; 0x200
 800233e:	6422      	strpl	r2, [r4, #64]	; 0x40
    if(ADC_IS_SOFTWARE_START_REGULAR(hadc)                   &&
 8002340:	689a      	ldr	r2, [r3, #8]
 8002342:	f012 5f40 	tst.w	r2, #805306368	; 0x30000000
 8002346:	d117      	bne.n	8002378 <HAL_ADC_IRQHandler+0x58>
 8002348:	69a2      	ldr	r2, [r4, #24]
 800234a:	b9aa      	cbnz	r2, 8002378 <HAL_ADC_IRQHandler+0x58>
       (HAL_IS_BIT_CLR(hadc->Instance->SQR1, ADC_SQR1_L) || 
 800234c:	6ada      	ldr	r2, [r3, #44]	; 0x2c
       (hadc->Init.ContinuousConvMode == DISABLE)            &&
 800234e:	f412 0f70 	tst.w	r2, #15728640	; 0xf00000
 8002352:	d002      	beq.n	800235a <HAL_ADC_IRQHandler+0x3a>
        HAL_IS_BIT_CLR(hadc->Instance->CR2, ADC_CR2_EOCS)  )   )
 8002354:	689a      	ldr	r2, [r3, #8]
       (HAL_IS_BIT_CLR(hadc->Instance->SQR1, ADC_SQR1_L) || 
 8002356:	0552      	lsls	r2, r2, #21
 8002358:	d40e      	bmi.n	8002378 <HAL_ADC_IRQHandler+0x58>
      __HAL_ADC_DISABLE_IT(hadc, ADC_IT_EOC);
 800235a:	685a      	ldr	r2, [r3, #4]
 800235c:	f022 0220 	bic.w	r2, r2, #32
 8002360:	605a      	str	r2, [r3, #4]
      CLEAR_BIT(hadc->State, HAL_ADC_STATE_REG_BUSY);
 8002362:	6c23      	ldr	r3, [r4, #64]	; 0x40
 8002364:	f423 7380 	bic.w	r3, r3, #256	; 0x100
 8002368:	6423      	str	r3, [r4, #64]	; 0x40
      if (HAL_IS_BIT_CLR(hadc->State, HAL_ADC_STATE_INJ_BUSY))
 800236a:	6c23      	ldr	r3, [r4, #64]	; 0x40
 800236c:	04db      	lsls	r3, r3, #19
        SET_BIT(hadc->State, HAL_ADC_STATE_READY);
 800236e:	bf5e      	ittt	pl
 8002370:	6c23      	ldrpl	r3, [r4, #64]	; 0x40
 8002372:	f043 0301 	orrpl.w	r3, r3, #1
 8002376:	6423      	strpl	r3, [r4, #64]	; 0x40
    HAL_ADC_ConvCpltCallback(hadc);
 8002378:	4620      	mov	r0, r4
 800237a:	f7ff fcd7 	bl	8001d2c <HAL_ADC_ConvCpltCallback>
    __HAL_ADC_CLEAR_FLAG(hadc, ADC_FLAG_STRT | ADC_FLAG_EOC);
 800237e:	6823      	ldr	r3, [r4, #0]
 8002380:	f06f 0212 	mvn.w	r2, #18
 8002384:	601a      	str	r2, [r3, #0]
  tmp1 = __HAL_ADC_GET_FLAG(hadc, ADC_FLAG_JEOC);
 8002386:	6823      	ldr	r3, [r4, #0]
 8002388:	6819      	ldr	r1, [r3, #0]
  tmp2 = __HAL_ADC_GET_IT_SOURCE(hadc, ADC_IT_JEOC);                               
 800238a:	685a      	ldr	r2, [r3, #4]
  if(tmp1 && tmp2)
 800238c:	074d      	lsls	r5, r1, #29
 800238e:	d532      	bpl.n	80023f6 <HAL_ADC_IRQHandler+0xd6>
 8002390:	0610      	lsls	r0, r2, #24
 8002392:	d530      	bpl.n	80023f6 <HAL_ADC_IRQHandler+0xd6>
    if (HAL_IS_BIT_CLR(hadc->State, HAL_ADC_STATE_ERROR_INTERNAL))
 8002394:	6c22      	ldr	r2, [r4, #64]	; 0x40
 8002396:	06d1      	lsls	r1, r2, #27
      SET_BIT(hadc->State, HAL_ADC_STATE_INJ_EOC);
 8002398:	bf5e      	ittt	pl
 800239a:	6c22      	ldrpl	r2, [r4, #64]	; 0x40
 800239c:	f442 5200 	orrpl.w	r2, r2, #8192	; 0x2000
 80023a0:	6422      	strpl	r2, [r4, #64]	; 0x40
    if(ADC_IS_SOFTWARE_START_INJECTED(hadc)                    &&
 80023a2:	689a      	ldr	r2, [r3, #8]
 80023a4:	f412 1f40 	tst.w	r2, #3145728	; 0x300000
 80023a8:	d11e      	bne.n	80023e8 <HAL_ADC_IRQHandler+0xc8>
       (HAL_IS_BIT_CLR(hadc->Instance->JSQR, ADC_JSQR_JL)  ||
 80023aa:	6b9a      	ldr	r2, [r3, #56]	; 0x38
    if(ADC_IS_SOFTWARE_START_INJECTED(hadc)                    &&
 80023ac:	f412 1f40 	tst.w	r2, #3145728	; 0x300000
 80023b0:	d002      	beq.n	80023b8 <HAL_ADC_IRQHandler+0x98>
        HAL_IS_BIT_CLR(hadc->Instance->CR2, ADC_CR2_EOCS)    ) &&
 80023b2:	689a      	ldr	r2, [r3, #8]
       (HAL_IS_BIT_CLR(hadc->Instance->JSQR, ADC_JSQR_JL)  ||
 80023b4:	0552      	lsls	r2, r2, #21
 80023b6:	d417      	bmi.n	80023e8 <HAL_ADC_IRQHandler+0xc8>
       (HAL_IS_BIT_CLR(hadc->Instance->CR1, ADC_CR1_JAUTO) &&
 80023b8:	685a      	ldr	r2, [r3, #4]
        HAL_IS_BIT_CLR(hadc->Instance->CR2, ADC_CR2_EOCS)    ) &&
 80023ba:	0555      	lsls	r5, r2, #21
 80023bc:	d414      	bmi.n	80023e8 <HAL_ADC_IRQHandler+0xc8>
        (ADC_IS_SOFTWARE_START_REGULAR(hadc)       &&
 80023be:	689a      	ldr	r2, [r3, #8]
       (HAL_IS_BIT_CLR(hadc->Instance->CR1, ADC_CR1_JAUTO) &&
 80023c0:	f012 5f40 	tst.w	r2, #805306368	; 0x30000000
 80023c4:	d110      	bne.n	80023e8 <HAL_ADC_IRQHandler+0xc8>
        (ADC_IS_SOFTWARE_START_REGULAR(hadc)       &&
 80023c6:	69a2      	ldr	r2, [r4, #24]
 80023c8:	b972      	cbnz	r2, 80023e8 <HAL_ADC_IRQHandler+0xc8>
      __HAL_ADC_DISABLE_IT(hadc, ADC_IT_JEOC);
 80023ca:	685a      	ldr	r2, [r3, #4]
 80023cc:	f022 0280 	bic.w	r2, r2, #128	; 0x80
 80023d0:	605a      	str	r2, [r3, #4]
      CLEAR_BIT(hadc->State, HAL_ADC_STATE_INJ_BUSY);   
 80023d2:	6c23      	ldr	r3, [r4, #64]	; 0x40
 80023d4:	f423 5380 	bic.w	r3, r3, #4096	; 0x1000
 80023d8:	6423      	str	r3, [r4, #64]	; 0x40
      if (HAL_IS_BIT_CLR(hadc->State, HAL_ADC_STATE_REG_BUSY))
 80023da:	6c23      	ldr	r3, [r4, #64]	; 0x40
 80023dc:	05d8      	lsls	r0, r3, #23
        SET_BIT(hadc->State, HAL_ADC_STATE_READY);
 80023de:	bf5e      	ittt	pl
 80023e0:	6c23      	ldrpl	r3, [r4, #64]	; 0x40
 80023e2:	f043 0301 	orrpl.w	r3, r3, #1
 80023e6:	6423      	strpl	r3, [r4, #64]	; 0x40
    HAL_ADCEx_InjectedConvCpltCallback(hadc);
 80023e8:	4620      	mov	r0, r4
 80023ea:	f000 f8d1 	bl	8002590 <HAL_ADCEx_InjectedConvCpltCallback>
    __HAL_ADC_CLEAR_FLAG(hadc, (ADC_FLAG_JSTRT | ADC_FLAG_JEOC));
 80023ee:	6823      	ldr	r3, [r4, #0]
 80023f0:	f06f 020c 	mvn.w	r2, #12
 80023f4:	601a      	str	r2, [r3, #0]
  tmp1 = __HAL_ADC_GET_FLAG(hadc, ADC_FLAG_AWD);
 80023f6:	6823      	ldr	r3, [r4, #0]
 80023f8:	6819      	ldr	r1, [r3, #0]
  tmp2 = __HAL_ADC_GET_IT_SOURCE(hadc, ADC_IT_AWD);                          
 80023fa:	685a      	ldr	r2, [r3, #4]
  if(tmp1 && tmp2)
 80023fc:	07c9      	lsls	r1, r1, #31
 80023fe:	d50f      	bpl.n	8002420 <HAL_ADC_IRQHandler+0x100>
 8002400:	0655      	lsls	r5, r2, #25
 8002402:	d50d      	bpl.n	8002420 <HAL_ADC_IRQHandler+0x100>
    if(__HAL_ADC_GET_FLAG(hadc, ADC_FLAG_AWD))
 8002404:	681b      	ldr	r3, [r3, #0]
 8002406:	07d8      	lsls	r0, r3, #31
 8002408:	d50a      	bpl.n	8002420 <HAL_ADC_IRQHandler+0x100>
      SET_BIT(hadc->State, HAL_ADC_STATE_AWD1);
 800240a:	6c23      	ldr	r3, [r4, #64]	; 0x40
 800240c:	f443 3380 	orr.w	r3, r3, #65536	; 0x10000
 8002410:	6423      	str	r3, [r4, #64]	; 0x40
      HAL_ADC_LevelOutOfWindowCallback(hadc);
 8002412:	4620      	mov	r0, r4
 8002414:	f7ff ff82 	bl	800231c <HAL_ADC_LevelOutOfWindowCallback>
      __HAL_ADC_CLEAR_FLAG(hadc, ADC_FLAG_AWD);
 8002418:	6823      	ldr	r3, [r4, #0]
 800241a:	f06f 0201 	mvn.w	r2, #1
 800241e:	601a      	str	r2, [r3, #0]
  tmp1 = __HAL_ADC_GET_FLAG(hadc, ADC_FLAG_OVR);
 8002420:	6823      	ldr	r3, [r4, #0]
 8002422:	6819      	ldr	r1, [r3, #0]
  tmp2 = __HAL_ADC_GET_IT_SOURCE(hadc, ADC_IT_OVR);
 8002424:	685a      	ldr	r2, [r3, #4]
  if(tmp1 && tmp2)
 8002426:	0689      	lsls	r1, r1, #26
 8002428:	d50d      	bpl.n	8002446 <HAL_ADC_IRQHandler+0x126>
 800242a:	0152      	lsls	r2, r2, #5
 800242c:	d50b      	bpl.n	8002446 <HAL_ADC_IRQHandler+0x126>
    SET_BIT(hadc->ErrorCode, HAL_ADC_ERROR_OVR);
 800242e:	6c62      	ldr	r2, [r4, #68]	; 0x44
    __HAL_ADC_CLEAR_FLAG(hadc, ADC_FLAG_OVR);
 8002430:	f06f 0520 	mvn.w	r5, #32
    SET_BIT(hadc->ErrorCode, HAL_ADC_ERROR_OVR);
 8002434:	f042 0202 	orr.w	r2, r2, #2
 8002438:	6462      	str	r2, [r4, #68]	; 0x44
    HAL_ADC_ErrorCallback(hadc);
 800243a:	4620      	mov	r0, r4
    __HAL_ADC_CLEAR_FLAG(hadc, ADC_FLAG_OVR);
 800243c:	601d      	str	r5, [r3, #0]
    HAL_ADC_ErrorCallback(hadc);
 800243e:	f7ff ff6e 	bl	800231e <HAL_ADC_ErrorCallback>
    __HAL_ADC_CLEAR_FLAG(hadc, ADC_FLAG_OVR);
 8002442:	6823      	ldr	r3, [r4, #0]
 8002444:	601d      	str	r5, [r3, #0]
 8002446:	bd38      	pop	{r3, r4, r5, pc}

08002448 <ADC_DMAError>:
  *                the configuration information for the specified DMA module.
  * @retval None
  */
static void ADC_DMAError(DMA_HandleTypeDef *hdma)   
{
  ADC_HandleTypeDef* hadc = ( ADC_HandleTypeDef* )((DMA_HandleTypeDef* )hdma)->Parent;
 8002448:	6b80      	ldr	r0, [r0, #56]	; 0x38
{
 800244a:	b508      	push	{r3, lr}
  hadc->State= HAL_ADC_STATE_ERROR_DMA;
 800244c:	2340      	movs	r3, #64	; 0x40
 800244e:	6403      	str	r3, [r0, #64]	; 0x40
  /* Set ADC error code to DMA error */
  hadc->ErrorCode |= HAL_ADC_ERROR_DMA;
 8002450:	6c43      	ldr	r3, [r0, #68]	; 0x44
 8002452:	f043 0304 	orr.w	r3, r3, #4
 8002456:	6443      	str	r3, [r0, #68]	; 0x44
  HAL_ADC_ErrorCallback(hadc); 
 8002458:	f7ff ff61 	bl	800231e <HAL_ADC_ErrorCallback>
 800245c:	bd08      	pop	{r3, pc}
	...

08002460 <HAL_ADC_ConfigChannel>:
{
 8002460:	b5f7      	push	{r0, r1, r2, r4, r5, r6, r7, lr}
  __IO uint32_t counter = 0U;
 8002462:	2300      	movs	r3, #0
 8002464:	9301      	str	r3, [sp, #4]
  __HAL_LOCK(hadc);
 8002466:	f890 303c 	ldrb.w	r3, [r0, #60]	; 0x3c
 800246a:	2b01      	cmp	r3, #1
 800246c:	d06a      	beq.n	8002544 <HAL_ADC_ConfigChannel+0xe4>
  if (sConfig->Channel > ADC_CHANNEL_9)
 800246e:	680d      	ldr	r5, [r1, #0]
 8002470:	6804      	ldr	r4, [r0, #0]
 8002472:	688a      	ldr	r2, [r1, #8]
  __HAL_LOCK(hadc);
 8002474:	2301      	movs	r3, #1
  if (sConfig->Channel > ADC_CHANNEL_9)
 8002476:	2d09      	cmp	r5, #9
  __HAL_LOCK(hadc);
 8002478:	f880 303c 	strb.w	r3, [r0, #60]	; 0x3c
 800247c:	b2ae      	uxth	r6, r5
  if (sConfig->Channel > ADC_CHANNEL_9)
 800247e:	d92a      	bls.n	80024d6 <HAL_ADC_ConfigChannel+0x76>
    hadc->Instance->SMPR1 &= ~ADC_SMPR1(ADC_SMPR1_SMP10, sConfig->Channel);
 8002480:	eb06 0346 	add.w	r3, r6, r6, lsl #1
 8002484:	68e7      	ldr	r7, [r4, #12]
 8002486:	3b1e      	subs	r3, #30
 8002488:	f04f 0e07 	mov.w	lr, #7
 800248c:	fa0e fe03 	lsl.w	lr, lr, r3
 8002490:	ea27 070e 	bic.w	r7, r7, lr
 8002494:	60e7      	str	r7, [r4, #12]
    hadc->Instance->SMPR1 |= ADC_SMPR1(sConfig->SamplingTime, sConfig->Channel);
 8002496:	68e7      	ldr	r7, [r4, #12]
 8002498:	fa02 f303 	lsl.w	r3, r2, r3
 800249c:	433b      	orrs	r3, r7
 800249e:	60e3      	str	r3, [r4, #12]
  if (sConfig->Rank < 7U)
 80024a0:	684a      	ldr	r2, [r1, #4]
 80024a2:	2a06      	cmp	r2, #6
 80024a4:	ea4f 0382 	mov.w	r3, r2, lsl #2
 80024a8:	d825      	bhi.n	80024f6 <HAL_ADC_ConfigChannel+0x96>
    hadc->Instance->SQR3 &= ~ADC_SQR3_RK(ADC_SQR3_SQ1, sConfig->Rank);
 80024aa:	4413      	add	r3, r2
 80024ac:	6b67      	ldr	r7, [r4, #52]	; 0x34
 80024ae:	1f59      	subs	r1, r3, #5
 80024b0:	231f      	movs	r3, #31
 80024b2:	408b      	lsls	r3, r1
 80024b4:	ea27 0303 	bic.w	r3, r7, r3
 80024b8:	6363      	str	r3, [r4, #52]	; 0x34
    hadc->Instance->SQR3 |= ADC_SQR3_RK(sConfig->Channel, sConfig->Rank);
 80024ba:	6b62      	ldr	r2, [r4, #52]	; 0x34
 80024bc:	fa06 f101 	lsl.w	r1, r6, r1
 80024c0:	4311      	orrs	r1, r2
 80024c2:	6361      	str	r1, [r4, #52]	; 0x34
  if ((hadc->Instance == ADC1) && (sConfig->Channel == ADC_CHANNEL_VBAT))
 80024c4:	4b2d      	ldr	r3, [pc, #180]	; (800257c <HAL_ADC_ConfigChannel+0x11c>)
 80024c6:	429c      	cmp	r4, r3
 80024c8:	d034      	beq.n	8002534 <HAL_ADC_ConfigChannel+0xd4>
  __HAL_UNLOCK(hadc);
 80024ca:	2300      	movs	r3, #0
 80024cc:	f880 303c 	strb.w	r3, [r0, #60]	; 0x3c
  return HAL_OK;
 80024d0:	4618      	mov	r0, r3
}
 80024d2:	b003      	add	sp, #12
 80024d4:	bdf0      	pop	{r4, r5, r6, r7, pc}
    hadc->Instance->SMPR2 &= ~ADC_SMPR2(ADC_SMPR2_SMP0, sConfig->Channel);
 80024d6:	6927      	ldr	r7, [r4, #16]
 80024d8:	eb05 0345 	add.w	r3, r5, r5, lsl #1
 80024dc:	f04f 0e07 	mov.w	lr, #7
 80024e0:	fa0e fe03 	lsl.w	lr, lr, r3
 80024e4:	ea27 070e 	bic.w	r7, r7, lr
 80024e8:	6127      	str	r7, [r4, #16]
    hadc->Instance->SMPR2 |= ADC_SMPR2(sConfig->SamplingTime, sConfig->Channel);
 80024ea:	6927      	ldr	r7, [r4, #16]
 80024ec:	fa02 f303 	lsl.w	r3, r2, r3
 80024f0:	433b      	orrs	r3, r7
 80024f2:	6123      	str	r3, [r4, #16]
 80024f4:	e7d4      	b.n	80024a0 <HAL_ADC_ConfigChannel+0x40>
  else if (sConfig->Rank < 13U)
 80024f6:	2a0c      	cmp	r2, #12
 80024f8:	d80e      	bhi.n	8002518 <HAL_ADC_ConfigChannel+0xb8>
    hadc->Instance->SQR2 &= ~ADC_SQR2_RK(ADC_SQR2_SQ7, sConfig->Rank);
 80024fa:	4413      	add	r3, r2
 80024fc:	6b21      	ldr	r1, [r4, #48]	; 0x30
 80024fe:	f1a3 0223 	sub.w	r2, r3, #35	; 0x23
 8002502:	231f      	movs	r3, #31
 8002504:	4093      	lsls	r3, r2
 8002506:	ea21 0303 	bic.w	r3, r1, r3
 800250a:	6323      	str	r3, [r4, #48]	; 0x30
    hadc->Instance->SQR2 |= ADC_SQR2_RK(sConfig->Channel, sConfig->Rank);
 800250c:	6b23      	ldr	r3, [r4, #48]	; 0x30
 800250e:	fa06 f202 	lsl.w	r2, r6, r2
 8002512:	431a      	orrs	r2, r3
 8002514:	6322      	str	r2, [r4, #48]	; 0x30
 8002516:	e7d5      	b.n	80024c4 <HAL_ADC_ConfigChannel+0x64>
    hadc->Instance->SQR1 &= ~ADC_SQR1_RK(ADC_SQR1_SQ13, sConfig->Rank);
 8002518:	4413      	add	r3, r2
 800251a:	6ae1      	ldr	r1, [r4, #44]	; 0x2c
 800251c:	3b41      	subs	r3, #65	; 0x41
 800251e:	221f      	movs	r2, #31
 8002520:	409a      	lsls	r2, r3
 8002522:	ea21 0202 	bic.w	r2, r1, r2
 8002526:	62e2      	str	r2, [r4, #44]	; 0x2c
    hadc->Instance->SQR1 |= ADC_SQR1_RK(sConfig->Channel, sConfig->Rank);
 8002528:	6ae2      	ldr	r2, [r4, #44]	; 0x2c
 800252a:	fa06 f103 	lsl.w	r1, r6, r3
 800252e:	4311      	orrs	r1, r2
 8002530:	62e1      	str	r1, [r4, #44]	; 0x2c
 8002532:	e7c7      	b.n	80024c4 <HAL_ADC_ConfigChannel+0x64>
  if ((hadc->Instance == ADC1) && (sConfig->Channel == ADC_CHANNEL_VBAT))
 8002534:	2d12      	cmp	r5, #18
 8002536:	d107      	bne.n	8002548 <HAL_ADC_ConfigChannel+0xe8>
    tmpADC_Common->CCR |= ADC_CCR_VBATE;
 8002538:	4a11      	ldr	r2, [pc, #68]	; (8002580 <HAL_ADC_ConfigChannel+0x120>)
 800253a:	6853      	ldr	r3, [r2, #4]
 800253c:	f443 0380 	orr.w	r3, r3, #4194304	; 0x400000
 8002540:	6053      	str	r3, [r2, #4]
 8002542:	e7c2      	b.n	80024ca <HAL_ADC_ConfigChannel+0x6a>
  __HAL_LOCK(hadc);
 8002544:	2002      	movs	r0, #2
 8002546:	e7c4      	b.n	80024d2 <HAL_ADC_ConfigChannel+0x72>
  if ((hadc->Instance == ADC1) && ((sConfig->Channel == ADC_CHANNEL_TEMPSENSOR) || (sConfig->Channel == ADC_CHANNEL_VREFINT)))
 8002548:	4b0e      	ldr	r3, [pc, #56]	; (8002584 <HAL_ADC_ConfigChannel+0x124>)
 800254a:	429d      	cmp	r5, r3
 800254c:	d001      	beq.n	8002552 <HAL_ADC_ConfigChannel+0xf2>
 800254e:	2d11      	cmp	r5, #17
 8002550:	d1bb      	bne.n	80024ca <HAL_ADC_ConfigChannel+0x6a>
    tmpADC_Common->CCR |= ADC_CCR_TSVREFE;
 8002552:	490b      	ldr	r1, [pc, #44]	; (8002580 <HAL_ADC_ConfigChannel+0x120>)
 8002554:	684a      	ldr	r2, [r1, #4]
    if((sConfig->Channel == ADC_CHANNEL_TEMPSENSOR))
 8002556:	429d      	cmp	r5, r3
    tmpADC_Common->CCR |= ADC_CCR_TSVREFE;
 8002558:	f442 0200 	orr.w	r2, r2, #8388608	; 0x800000
 800255c:	604a      	str	r2, [r1, #4]
    if((sConfig->Channel == ADC_CHANNEL_TEMPSENSOR))
 800255e:	d1b4      	bne.n	80024ca <HAL_ADC_ConfigChannel+0x6a>
      counter = (ADC_TEMPSENSOR_DELAY_US * (SystemCoreClock / 1000000U));
 8002560:	4b09      	ldr	r3, [pc, #36]	; (8002588 <HAL_ADC_ConfigChannel+0x128>)
 8002562:	4a0a      	ldr	r2, [pc, #40]	; (800258c <HAL_ADC_ConfigChannel+0x12c>)
 8002564:	681b      	ldr	r3, [r3, #0]
 8002566:	fbb3 f2f2 	udiv	r2, r3, r2
 800256a:	230a      	movs	r3, #10
 800256c:	4353      	muls	r3, r2
        counter--;
 800256e:	9301      	str	r3, [sp, #4]
      while(counter != 0U)
 8002570:	9b01      	ldr	r3, [sp, #4]
 8002572:	2b00      	cmp	r3, #0
 8002574:	d0a9      	beq.n	80024ca <HAL_ADC_ConfigChannel+0x6a>
        counter--;
 8002576:	9b01      	ldr	r3, [sp, #4]
 8002578:	3b01      	subs	r3, #1
 800257a:	e7f8      	b.n	800256e <HAL_ADC_ConfigChannel+0x10e>
 800257c:	40012000 	.word	0x40012000
 8002580:	40012300 	.word	0x40012300
 8002584:	10000012 	.word	0x10000012
 8002588:	20000000 	.word	0x20000000
 800258c:	000f4240 	.word	0x000f4240

08002590 <HAL_ADCEx_InjectedConvCpltCallback>:
  * @param  hadc pointer to a ADC_HandleTypeDef structure that contains
  *         the configuration information for the specified ADC.
  * @retval None
  */
__weak void HAL_ADCEx_InjectedConvCpltCallback(ADC_HandleTypeDef* hadc)
{
 8002590:	4770      	bx	lr
	...

08002594 <HAL_NVIC_SetPriorityGrouping>:
__STATIC_INLINE void NVIC_SetPriorityGrouping(uint32_t PriorityGroup)
{
  uint32_t reg_value;
  uint32_t PriorityGroupTmp = (PriorityGroup & (uint32_t)0x07UL);             /* only values 0..7 are used          */

  reg_value  =  SCB->AIRCR;                                                   /* read old register configuration    */
 8002594:	4a07      	ldr	r2, [pc, #28]	; (80025b4 <HAL_NVIC_SetPriorityGrouping+0x20>)
 8002596:	68d3      	ldr	r3, [r2, #12]
  reg_value &= ~((uint32_t)(SCB_AIRCR_VECTKEY_Msk | SCB_AIRCR_PRIGROUP_Msk)); /* clear bits to change               */
 8002598:	f423 63e0 	bic.w	r3, r3, #1792	; 0x700
 800259c:	041b      	lsls	r3, r3, #16
 800259e:	0c1b      	lsrs	r3, r3, #16
 80025a0:	f043 63bf 	orr.w	r3, r3, #100139008	; 0x5f80000
  reg_value  =  (reg_value                                   |
                ((uint32_t)0x5FAUL << SCB_AIRCR_VECTKEY_Pos) |
                (PriorityGroupTmp << 8U)                      );              /* Insert write key and priorty group */
 80025a4:	0200      	lsls	r0, r0, #8
 80025a6:	f443 3300 	orr.w	r3, r3, #131072	; 0x20000
 80025aa:	f400 60e0 	and.w	r0, r0, #1792	; 0x700
  reg_value  =  (reg_value                                   |
 80025ae:	4303      	orrs	r3, r0
  SCB->AIRCR =  reg_value;
 80025b0:	60d3      	str	r3, [r2, #12]
 80025b2:	4770      	bx	lr
 80025b4:	e000ed00 	.word	0xe000ed00

080025b8 <HAL_NVIC_SetPriority>:
  \details Reads the priority grouping field from the NVIC Interrupt Controller.
  \return                Priority grouping field (SCB->AIRCR [10:8] PRIGROUP field).
 */
__STATIC_INLINE uint32_t NVIC_GetPriorityGrouping(void)
{
  return ((uint32_t)((SCB->AIRCR & SCB_AIRCR_PRIGROUP_Msk) >> SCB_AIRCR_PRIGROUP_Pos));
 80025b8:	4b17      	ldr	r3, [pc, #92]	; (8002618 <HAL_NVIC_SetPriority+0x60>)
  *         This parameter can be a value between 0 and 15
  *         A lower priority value indicates a higher priority.          
  * @retval None
  */
void HAL_NVIC_SetPriority(IRQn_Type IRQn, uint32_t PreemptPriority, uint32_t SubPriority)
{ 
 80025ba:	b530      	push	{r4, r5, lr}
 80025bc:	68dc      	ldr	r4, [r3, #12]
 80025be:	f3c4 2402 	ubfx	r4, r4, #8, #3
{
  uint32_t PriorityGroupTmp = (PriorityGroup & (uint32_t)0x07UL);   /* only values 0..7 are used          */
  uint32_t PreemptPriorityBits;
  uint32_t SubPriorityBits;

  PreemptPriorityBits = ((7UL - PriorityGroupTmp) > (uint32_t)(__NVIC_PRIO_BITS)) ? (uint32_t)(__NVIC_PRIO_BITS) : (uint32_t)(7UL - PriorityGroupTmp);
 80025c2:	f1c4 0307 	rsb	r3, r4, #7
  SubPriorityBits     = ((PriorityGroupTmp + (uint32_t)(__NVIC_PRIO_BITS)) < (uint32_t)7UL) ? (uint32_t)0UL : (uint32_t)((PriorityGroupTmp - 7UL) + (uint32_t)(__NVIC_PRIO_BITS));
 80025c6:	1d25      	adds	r5, r4, #4
  PreemptPriorityBits = ((7UL - PriorityGroupTmp) > (uint32_t)(__NVIC_PRIO_BITS)) ? (uint32_t)(__NVIC_PRIO_BITS) : (uint32_t)(7UL - PriorityGroupTmp);
 80025c8:	2b04      	cmp	r3, #4
 80025ca:	bf28      	it	cs
 80025cc:	2304      	movcs	r3, #4
  SubPriorityBits     = ((PriorityGroupTmp + (uint32_t)(__NVIC_PRIO_BITS)) < (uint32_t)7UL) ? (uint32_t)0UL : (uint32_t)((PriorityGroupTmp - 7UL) + (uint32_t)(__NVIC_PRIO_BITS));
 80025ce:	2d06      	cmp	r5, #6

  return (
           ((PreemptPriority & (uint32_t)((1UL << (PreemptPriorityBits)) - 1UL)) << SubPriorityBits) |
 80025d0:	f04f 0501 	mov.w	r5, #1
 80025d4:	fa05 f303 	lsl.w	r3, r5, r3
 80025d8:	f103 33ff 	add.w	r3, r3, #4294967295
  SubPriorityBits     = ((PriorityGroupTmp + (uint32_t)(__NVIC_PRIO_BITS)) < (uint32_t)7UL) ? (uint32_t)0UL : (uint32_t)((PriorityGroupTmp - 7UL) + (uint32_t)(__NVIC_PRIO_BITS));
 80025dc:	bf8c      	ite	hi
 80025de:	3c03      	subhi	r4, #3
 80025e0:	2400      	movls	r4, #0
           ((PreemptPriority & (uint32_t)((1UL << (PreemptPriorityBits)) - 1UL)) << SubPriorityBits) |
 80025e2:	4019      	ands	r1, r3
 80025e4:	40a1      	lsls	r1, r4
           ((SubPriority     & (uint32_t)((1UL << (SubPriorityBits    )) - 1UL)))
 80025e6:	fa05 f404 	lsl.w	r4, r5, r4
 80025ea:	3c01      	subs	r4, #1
 80025ec:	4022      	ands	r2, r4
  if ((int32_t)(IRQn) < 0)
 80025ee:	2800      	cmp	r0, #0
           ((PreemptPriority & (uint32_t)((1UL << (PreemptPriorityBits)) - 1UL)) << SubPriorityBits) |
 80025f0:	ea42 0201 	orr.w	r2, r2, r1
 80025f4:	ea4f 1202 	mov.w	r2, r2, lsl #4
    NVIC->IP[((uint32_t)(int32_t)IRQn)]               = (uint8_t)((priority << (8U - __NVIC_PRIO_BITS)) & (uint32_t)0xFFUL);
 80025f8:	bfaf      	iteee	ge
 80025fa:	f100 4060 	addge.w	r0, r0, #3758096384	; 0xe0000000
    SCB->SHP[(((uint32_t)(int32_t)IRQn) & 0xFUL)-4UL] = (uint8_t)((priority << (8U - __NVIC_PRIO_BITS)) & (uint32_t)0xFFUL);
 80025fe:	f000 000f 	andlt.w	r0, r0, #15
 8002602:	4b06      	ldrlt	r3, [pc, #24]	; (800261c <HAL_NVIC_SetPriority+0x64>)
 8002604:	b2d2      	uxtblt	r2, r2
    NVIC->IP[((uint32_t)(int32_t)IRQn)]               = (uint8_t)((priority << (8U - __NVIC_PRIO_BITS)) & (uint32_t)0xFFUL);
 8002606:	bfa5      	ittet	ge
 8002608:	f500 4061 	addge.w	r0, r0, #57600	; 0xe100
 800260c:	b2d2      	uxtbge	r2, r2
    SCB->SHP[(((uint32_t)(int32_t)IRQn) & 0xFUL)-4UL] = (uint8_t)((priority << (8U - __NVIC_PRIO_BITS)) & (uint32_t)0xFFUL);
 800260e:	541a      	strblt	r2, [r3, r0]
    NVIC->IP[((uint32_t)(int32_t)IRQn)]               = (uint8_t)((priority << (8U - __NVIC_PRIO_BITS)) & (uint32_t)0xFFUL);
 8002610:	f880 2300 	strbge.w	r2, [r0, #768]	; 0x300
 8002614:	bd30      	pop	{r4, r5, pc}
 8002616:	bf00      	nop
 8002618:	e000ed00 	.word	0xe000ed00
 800261c:	e000ed14 	.word	0xe000ed14

08002620 <HAL_NVIC_EnableIRQ>:
  NVIC->ISER[(((uint32_t)(int32_t)IRQn) >> 5UL)] = (uint32_t)(1UL << (((uint32_t)(int32_t)IRQn) & 0x1FUL));
 8002620:	0942      	lsrs	r2, r0, #5
 8002622:	2301      	movs	r3, #1
 8002624:	f000 001f 	and.w	r0, r0, #31
 8002628:	fa03 f000 	lsl.w	r0, r3, r0
 800262c:	4b01      	ldr	r3, [pc, #4]	; (8002634 <HAL_NVIC_EnableIRQ+0x14>)
 800262e:	f843 0022 	str.w	r0, [r3, r2, lsl #2]
 8002632:	4770      	bx	lr
 8002634:	e000e100 	.word	0xe000e100

08002638 <HAL_SYSTICK_Config>:
           function <b>SysTick_Config</b> is not included. In this case, the file <b><i>device</i>.h</b>
           must contain a vendor-specific implementation of this function.
 */
__STATIC_INLINE uint32_t SysTick_Config(uint32_t ticks)
{
  if ((ticks - 1UL) > SysTick_LOAD_RELOAD_Msk)
 8002638:	3801      	subs	r0, #1
 800263a:	f1b0 7f80 	cmp.w	r0, #16777216	; 0x1000000
 800263e:	d20a      	bcs.n	8002656 <HAL_SYSTICK_Config+0x1e>
  {
    return (1UL);                                                   /* Reload value impossible */
  }

  SysTick->LOAD  = (uint32_t)(ticks - 1UL);                         /* set reload register */
 8002640:	4b06      	ldr	r3, [pc, #24]	; (800265c <HAL_SYSTICK_Config+0x24>)
    SCB->SHP[(((uint32_t)(int32_t)IRQn) & 0xFUL)-4UL] = (uint8_t)((priority << (8U - __NVIC_PRIO_BITS)) & (uint32_t)0xFFUL);
 8002642:	4a07      	ldr	r2, [pc, #28]	; (8002660 <HAL_SYSTICK_Config+0x28>)
  SysTick->LOAD  = (uint32_t)(ticks - 1UL);                         /* set reload register */
 8002644:	6058      	str	r0, [r3, #4]
    SCB->SHP[(((uint32_t)(int32_t)IRQn) & 0xFUL)-4UL] = (uint8_t)((priority << (8U - __NVIC_PRIO_BITS)) & (uint32_t)0xFFUL);
 8002646:	21f0      	movs	r1, #240	; 0xf0
 8002648:	f882 1023 	strb.w	r1, [r2, #35]	; 0x23
  NVIC_SetPriority (SysTick_IRQn, (1UL << __NVIC_PRIO_BITS) - 1UL); /* set Priority for Systick Interrupt */
  SysTick->VAL   = 0UL;                                             /* Load the SysTick Counter Value */
 800264c:	2000      	movs	r0, #0
  SysTick->CTRL  = SysTick_CTRL_CLKSOURCE_Msk |
 800264e:	2207      	movs	r2, #7
  SysTick->VAL   = 0UL;                                             /* Load the SysTick Counter Value */
 8002650:	6098      	str	r0, [r3, #8]
  SysTick->CTRL  = SysTick_CTRL_CLKSOURCE_Msk |
 8002652:	601a      	str	r2, [r3, #0]
 8002654:	4770      	bx	lr
    return (1UL);                                                   /* Reload value impossible */
 8002656:	2001      	movs	r0, #1
  *                  - 1  Function failed.
  */
uint32_t HAL_SYSTICK_Config(uint32_t TicksNumb)
{
   return SysTick_Config(TicksNumb);
}
 8002658:	4770      	bx	lr
 800265a:	bf00      	nop
 800265c:	e000e010 	.word	0xe000e010
 8002660:	e000ed00 	.word	0xe000ed00

08002664 <HAL_SYSTICK_CLKSourceConfig>:
  *             @arg SYSTICK_CLKSOURCE_HCLK_DIV8: AHB clock divided by 8 selected as SysTick clock source.
  *             @arg SYSTICK_CLKSOURCE_HCLK: AHB clock selected as SysTick clock source.
  * @retval None
  */
void HAL_SYSTICK_CLKSourceConfig(uint32_t CLKSource)
{
 8002664:	4b04      	ldr	r3, [pc, #16]	; (8002678 <HAL_SYSTICK_CLKSourceConfig+0x14>)
  /* Check the parameters */
  assert_param(IS_SYSTICK_CLK_SOURCE(CLKSource));
  if (CLKSource == SYSTICK_CLKSOURCE_HCLK)
  {
    SysTick->CTRL |= SYSTICK_CLKSOURCE_HCLK;
 8002666:	681a      	ldr	r2, [r3, #0]
  if (CLKSource == SYSTICK_CLKSOURCE_HCLK)
 8002668:	2804      	cmp	r0, #4
    SysTick->CTRL |= SYSTICK_CLKSOURCE_HCLK;
 800266a:	bf0c      	ite	eq
 800266c:	f042 0204 	orreq.w	r2, r2, #4
  }
  else
  {
    SysTick->CTRL &= ~SYSTICK_CLKSOURCE_HCLK;
 8002670:	f022 0204 	bicne.w	r2, r2, #4
 8002674:	601a      	str	r2, [r3, #0]
 8002676:	4770      	bx	lr
 8002678:	e000e010 	.word	0xe000e010

0800267c <DMA_CalcBaseAndBitshift>:
  *                     the configuration information for the specified DMA Stream. 
  * @retval Stream base address
  */
static uint32_t DMA_CalcBaseAndBitshift(DMA_HandleTypeDef *hdma)
{
  uint32_t stream_number = (((uint32_t)hdma->Instance & 0xFFU) - 16U) / 24U;
 800267c:	6803      	ldr	r3, [r0, #0]
 800267e:	b2da      	uxtb	r2, r3
 8002680:	f423 737f 	bic.w	r3, r3, #1020	; 0x3fc
 8002684:	f023 0303 	bic.w	r3, r3, #3
 8002688:	2118      	movs	r1, #24
 800268a:	3a10      	subs	r2, #16
 800268c:	fbb2 f2f1 	udiv	r2, r2, r1
  
  /* lookup table for necessary bitshift of flags within status registers */
  static const uint8_t flagBitshiftOffset[8U] = {0U, 6U, 16U, 22U, 0U, 6U, 16U, 22U};
  hdma->StreamIndex = flagBitshiftOffset[stream_number];
 8002690:	4904      	ldr	r1, [pc, #16]	; (80026a4 <DMA_CalcBaseAndBitshift+0x28>)
  
  if (stream_number > 3U)
 8002692:	2a03      	cmp	r2, #3
  {
    /* return pointer to HISR and HIFCR */
    hdma->StreamBaseAddress = (((uint32_t)hdma->Instance & (uint32_t)(~0x3FFU)) + 4U);
 8002694:	bf88      	it	hi
 8002696:	3304      	addhi	r3, #4
  hdma->StreamIndex = flagBitshiftOffset[stream_number];
 8002698:	5c89      	ldrb	r1, [r1, r2]
  }
  else
  {
    /* return pointer to LISR and LIFCR */
    hdma->StreamBaseAddress = ((uint32_t)hdma->Instance & (uint32_t)(~0x3FFU));
 800269a:	6583      	str	r3, [r0, #88]	; 0x58
  hdma->StreamIndex = flagBitshiftOffset[stream_number];
 800269c:	65c1      	str	r1, [r0, #92]	; 0x5c
  }
  
  return hdma->StreamBaseAddress;
}
 800269e:	6d80      	ldr	r0, [r0, #88]	; 0x58
 80026a0:	4770      	bx	lr
 80026a2:	bf00      	nop
 80026a4:	080076d4 	.word	0x080076d4

080026a8 <HAL_DMA_Init>:
{
 80026a8:	b570      	push	{r4, r5, r6, lr}
 80026aa:	4604      	mov	r4, r0
  uint32_t tickstart = HAL_GetTick();
 80026ac:	f7ff fcc2 	bl	8002034 <HAL_GetTick>
 80026b0:	4605      	mov	r5, r0
  if(hdma == NULL)
 80026b2:	2c00      	cmp	r4, #0
 80026b4:	d071      	beq.n	800279a <HAL_DMA_Init+0xf2>
  __HAL_UNLOCK(hdma);
 80026b6:	2300      	movs	r3, #0
 80026b8:	f884 3034 	strb.w	r3, [r4, #52]	; 0x34
  __HAL_DMA_DISABLE(hdma);
 80026bc:	6822      	ldr	r2, [r4, #0]
  hdma->State = HAL_DMA_STATE_BUSY;
 80026be:	2302      	movs	r3, #2
 80026c0:	f884 3035 	strb.w	r3, [r4, #53]	; 0x35
  __HAL_DMA_DISABLE(hdma);
 80026c4:	6813      	ldr	r3, [r2, #0]
 80026c6:	f023 0301 	bic.w	r3, r3, #1
 80026ca:	6013      	str	r3, [r2, #0]
  while((hdma->Instance->CR & DMA_SxCR_EN) != RESET)
 80026cc:	6821      	ldr	r1, [r4, #0]
 80026ce:	680b      	ldr	r3, [r1, #0]
 80026d0:	07d8      	lsls	r0, r3, #31
 80026d2:	d43c      	bmi.n	800274e <HAL_DMA_Init+0xa6>
  tmp = hdma->Instance->CR;
 80026d4:	680b      	ldr	r3, [r1, #0]
  tmp &= ((uint32_t)~(DMA_SxCR_CHSEL | DMA_SxCR_MBURST | DMA_SxCR_PBURST | \
 80026d6:	4d32      	ldr	r5, [pc, #200]	; (80027a0 <HAL_DMA_Init+0xf8>)
  tmp |=  hdma->Init.Channel             | hdma->Init.Direction        |
 80026d8:	6862      	ldr	r2, [r4, #4]
          hdma->Init.PeriphDataAlignment | hdma->Init.MemDataAlignment |
 80026da:	69a0      	ldr	r0, [r4, #24]
  tmp &= ((uint32_t)~(DMA_SxCR_CHSEL | DMA_SxCR_MBURST | DMA_SxCR_PBURST | \
 80026dc:	401d      	ands	r5, r3
  tmp |=  hdma->Init.Channel             | hdma->Init.Direction        |
 80026de:	68a3      	ldr	r3, [r4, #8]
 80026e0:	4313      	orrs	r3, r2
 80026e2:	68e2      	ldr	r2, [r4, #12]
 80026e4:	4313      	orrs	r3, r2
          hdma->Init.PeriphInc           | hdma->Init.MemInc           |
 80026e6:	6922      	ldr	r2, [r4, #16]
 80026e8:	4313      	orrs	r3, r2
 80026ea:	6962      	ldr	r2, [r4, #20]
 80026ec:	4313      	orrs	r3, r2
          hdma->Init.PeriphDataAlignment | hdma->Init.MemDataAlignment |
 80026ee:	69e2      	ldr	r2, [r4, #28]
 80026f0:	4303      	orrs	r3, r0
 80026f2:	4313      	orrs	r3, r2
          hdma->Init.Mode                | hdma->Init.Priority;
 80026f4:	6a22      	ldr	r2, [r4, #32]
 80026f6:	4313      	orrs	r3, r2
  if(hdma->Init.FIFOMode == DMA_FIFOMODE_ENABLE)
 80026f8:	6a62      	ldr	r2, [r4, #36]	; 0x24
 80026fa:	2a04      	cmp	r2, #4
  tmp |=  hdma->Init.Channel             | hdma->Init.Direction        |
 80026fc:	ea43 0305 	orr.w	r3, r3, r5
    tmp |=  hdma->Init.MemBurst | hdma->Init.PeriphBurst;
 8002700:	bf01      	itttt	eq
 8002702:	6b26      	ldreq	r6, [r4, #48]	; 0x30
 8002704:	6ae5      	ldreq	r5, [r4, #44]	; 0x2c
 8002706:	4335      	orreq	r5, r6
 8002708:	432b      	orreq	r3, r5
  hdma->Instance->CR = tmp;  
 800270a:	600b      	str	r3, [r1, #0]
  tmp = hdma->Instance->FCR;
 800270c:	694b      	ldr	r3, [r1, #20]
  if(hdma->Init.FIFOMode == DMA_FIFOMODE_ENABLE)
 800270e:	2a04      	cmp	r2, #4
  tmp &= (uint32_t)~(DMA_SxFCR_DMDIS | DMA_SxFCR_FTH);
 8002710:	f023 0307 	bic.w	r3, r3, #7
  tmp |= hdma->Init.FIFOMode;
 8002714:	ea43 0302 	orr.w	r3, r3, r2
  if(hdma->Init.FIFOMode == DMA_FIFOMODE_ENABLE)
 8002718:	d10b      	bne.n	8002732 <HAL_DMA_Init+0x8a>
    tmp |= hdma->Init.FIFOThreshold;
 800271a:	6aa2      	ldr	r2, [r4, #40]	; 0x28
    if (hdma->Init.MemBurst != DMA_MBURST_SINGLE)
 800271c:	6ae5      	ldr	r5, [r4, #44]	; 0x2c
    tmp |= hdma->Init.FIFOThreshold;
 800271e:	4313      	orrs	r3, r2
    if (hdma->Init.MemBurst != DMA_MBURST_SINGLE)
 8002720:	b13d      	cbz	r5, 8002732 <HAL_DMA_Init+0x8a>
{
  HAL_StatusTypeDef status = HAL_OK;
  uint32_t tmp = hdma->Init.FIFOThreshold;
  
  /* Memory Data size equal to Byte */
  if(hdma->Init.MemDataAlignment == DMA_MDATAALIGN_BYTE)
 8002722:	b9f8      	cbnz	r0, 8002764 <HAL_DMA_Init+0xbc>
  {
    switch (tmp)
 8002724:	2a01      	cmp	r2, #1
 8002726:	d02d      	beq.n	8002784 <HAL_DMA_Init+0xdc>
 8002728:	d301      	bcc.n	800272e <HAL_DMA_Init+0x86>
 800272a:	2a02      	cmp	r2, #2
  }
  
  /* Memory Data size equal to Word */
  else
  {
    switch (tmp)
 800272c:	d101      	bne.n	8002732 <HAL_DMA_Init+0x8a>
    case DMA_FIFO_THRESHOLD_HALFFULL:
    case DMA_FIFO_THRESHOLD_3QUARTERSFULL:
      status = HAL_ERROR;
      break;
    case DMA_FIFO_THRESHOLD_FULL:
      if ((hdma->Init.MemBurst & DMA_SxCR_MBURST_1) == DMA_SxCR_MBURST_1)
 800272e:	01ea      	lsls	r2, r5, #7
 8002730:	d42b      	bmi.n	800278a <HAL_DMA_Init+0xe2>
  hdma->Instance->FCR = tmp;
 8002732:	614b      	str	r3, [r1, #20]
  regs = (DMA_Base_Registers *)DMA_CalcBaseAndBitshift(hdma);
 8002734:	4620      	mov	r0, r4
 8002736:	f7ff ffa1 	bl	800267c <DMA_CalcBaseAndBitshift>
  regs->IFCR = 0x3FU << hdma->StreamIndex;
 800273a:	6de2      	ldr	r2, [r4, #92]	; 0x5c
 800273c:	233f      	movs	r3, #63	; 0x3f
 800273e:	4093      	lsls	r3, r2
 8002740:	6083      	str	r3, [r0, #8]
  hdma->ErrorCode = HAL_DMA_ERROR_NONE;
 8002742:	2000      	movs	r0, #0
  hdma->State = HAL_DMA_STATE_READY;
 8002744:	2301      	movs	r3, #1
  hdma->ErrorCode = HAL_DMA_ERROR_NONE;
 8002746:	6560      	str	r0, [r4, #84]	; 0x54
  hdma->State = HAL_DMA_STATE_READY;
 8002748:	f884 3035 	strb.w	r3, [r4, #53]	; 0x35
  return HAL_OK;
 800274c:	bd70      	pop	{r4, r5, r6, pc}
    if((HAL_GetTick() - tickstart ) > HAL_TIMEOUT_DMA_ABORT)
 800274e:	f7ff fc71 	bl	8002034 <HAL_GetTick>
 8002752:	1b40      	subs	r0, r0, r5
 8002754:	2805      	cmp	r0, #5
 8002756:	d9b9      	bls.n	80026cc <HAL_DMA_Init+0x24>
      hdma->ErrorCode = HAL_DMA_ERROR_TIMEOUT;
 8002758:	2320      	movs	r3, #32
 800275a:	6563      	str	r3, [r4, #84]	; 0x54
      hdma->State = HAL_DMA_STATE_TIMEOUT;
 800275c:	2003      	movs	r0, #3
        hdma->State = HAL_DMA_STATE_READY;
 800275e:	f884 0035 	strb.w	r0, [r4, #53]	; 0x35
}
 8002762:	bd70      	pop	{r4, r5, r6, pc}
  else if (hdma->Init.MemDataAlignment == DMA_MDATAALIGN_HALFWORD)
 8002764:	f5b0 5f00 	cmp.w	r0, #8192	; 0x2000
 8002768:	d113      	bne.n	8002792 <HAL_DMA_Init+0xea>
    switch (tmp)
 800276a:	2a03      	cmp	r2, #3
 800276c:	d8e1      	bhi.n	8002732 <HAL_DMA_Init+0x8a>
 800276e:	a001      	add	r0, pc, #4	; (adr r0, 8002774 <HAL_DMA_Init+0xcc>)
 8002770:	f850 f022 	ldr.w	pc, [r0, r2, lsl #2]
 8002774:	0800278b 	.word	0x0800278b
 8002778:	0800272f 	.word	0x0800272f
 800277c:	0800278b 	.word	0x0800278b
 8002780:	08002785 	.word	0x08002785
      if (hdma->Init.MemBurst == DMA_MBURST_INC16)
 8002784:	f1b5 7fc0 	cmp.w	r5, #25165824	; 0x1800000
 8002788:	d1d3      	bne.n	8002732 <HAL_DMA_Init+0x8a>
        hdma->ErrorCode = HAL_DMA_ERROR_PARAM;
 800278a:	2340      	movs	r3, #64	; 0x40
 800278c:	6563      	str	r3, [r4, #84]	; 0x54
        hdma->State = HAL_DMA_STATE_READY;
 800278e:	2001      	movs	r0, #1
 8002790:	e7e5      	b.n	800275e <HAL_DMA_Init+0xb6>
    switch (tmp)
 8002792:	2a02      	cmp	r2, #2
 8002794:	d9f9      	bls.n	800278a <HAL_DMA_Init+0xe2>
 8002796:	2a03      	cmp	r2, #3
 8002798:	e7c8      	b.n	800272c <HAL_DMA_Init+0x84>
    return HAL_ERROR;
 800279a:	2001      	movs	r0, #1
 800279c:	bd70      	pop	{r4, r5, r6, pc}
 800279e:	bf00      	nop
 80027a0:	f010803f 	.word	0xf010803f

080027a4 <HAL_DMA_Start_IT>:
{
 80027a4:	b570      	push	{r4, r5, r6, lr}
  __HAL_LOCK(hdma);
 80027a6:	f890 4034 	ldrb.w	r4, [r0, #52]	; 0x34
 80027aa:	2c01      	cmp	r4, #1
 80027ac:	d036      	beq.n	800281c <HAL_DMA_Start_IT+0x78>
 80027ae:	2401      	movs	r4, #1
 80027b0:	f880 4034 	strb.w	r4, [r0, #52]	; 0x34
  if(HAL_DMA_STATE_READY == hdma->State)
 80027b4:	f890 4035 	ldrb.w	r4, [r0, #53]	; 0x35
  DMA_Base_Registers *regs = (DMA_Base_Registers *)hdma->StreamBaseAddress;
 80027b8:	6d86      	ldr	r6, [r0, #88]	; 0x58
  if(HAL_DMA_STATE_READY == hdma->State)
 80027ba:	2c01      	cmp	r4, #1
 80027bc:	f04f 0500 	mov.w	r5, #0
 80027c0:	f04f 0402 	mov.w	r4, #2
 80027c4:	d128      	bne.n	8002818 <HAL_DMA_Start_IT+0x74>
    hdma->State = HAL_DMA_STATE_BUSY;
 80027c6:	f880 4035 	strb.w	r4, [r0, #53]	; 0x35
  hdma->Instance->CR &= (uint32_t)(~DMA_SxCR_DBM);
 80027ca:	6804      	ldr	r4, [r0, #0]
    hdma->ErrorCode = HAL_DMA_ERROR_NONE;
 80027cc:	6545      	str	r5, [r0, #84]	; 0x54
  hdma->Instance->CR &= (uint32_t)(~DMA_SxCR_DBM);
 80027ce:	6825      	ldr	r5, [r4, #0]
 80027d0:	f425 2580 	bic.w	r5, r5, #262144	; 0x40000
 80027d4:	6025      	str	r5, [r4, #0]
  hdma->Instance->NDTR = DataLength;
 80027d6:	6063      	str	r3, [r4, #4]
  if((hdma->Init.Direction) == DMA_MEMORY_TO_PERIPH)
 80027d8:	6883      	ldr	r3, [r0, #8]
 80027da:	2b40      	cmp	r3, #64	; 0x40
    hdma->Instance->PAR = DstAddress;
 80027dc:	bf0e      	itee	eq
 80027de:	60a2      	streq	r2, [r4, #8]
    hdma->Instance->PAR = SrcAddress;
 80027e0:	60a1      	strne	r1, [r4, #8]
    hdma->Instance->M0AR = DstAddress;
 80027e2:	60e2      	strne	r2, [r4, #12]
    regs->IFCR = 0x3FU << hdma->StreamIndex;
 80027e4:	6dc2      	ldr	r2, [r0, #92]	; 0x5c
    hdma->Instance->M0AR = SrcAddress;
 80027e6:	bf08      	it	eq
 80027e8:	60e1      	streq	r1, [r4, #12]
    regs->IFCR = 0x3FU << hdma->StreamIndex;
 80027ea:	233f      	movs	r3, #63	; 0x3f
 80027ec:	4093      	lsls	r3, r2
 80027ee:	60b3      	str	r3, [r6, #8]
    hdma->Instance->CR  |= DMA_IT_TC | DMA_IT_TE | DMA_IT_DME;
 80027f0:	6823      	ldr	r3, [r4, #0]
 80027f2:	f043 0316 	orr.w	r3, r3, #22
 80027f6:	6023      	str	r3, [r4, #0]
    hdma->Instance->FCR |= DMA_IT_FE;
 80027f8:	6963      	ldr	r3, [r4, #20]
 80027fa:	f043 0380 	orr.w	r3, r3, #128	; 0x80
 80027fe:	6163      	str	r3, [r4, #20]
    if(hdma->XferHalfCpltCallback != NULL)
 8002800:	6c03      	ldr	r3, [r0, #64]	; 0x40
 8002802:	b11b      	cbz	r3, 800280c <HAL_DMA_Start_IT+0x68>
      hdma->Instance->CR  |= DMA_IT_HT;
 8002804:	6823      	ldr	r3, [r4, #0]
 8002806:	f043 0308 	orr.w	r3, r3, #8
 800280a:	6023      	str	r3, [r4, #0]
    __HAL_DMA_ENABLE(hdma);
 800280c:	6823      	ldr	r3, [r4, #0]
 800280e:	f043 0301 	orr.w	r3, r3, #1
 8002812:	6023      	str	r3, [r4, #0]
  HAL_StatusTypeDef status = HAL_OK;
 8002814:	2000      	movs	r0, #0
 8002816:	bd70      	pop	{r4, r5, r6, pc}
    __HAL_UNLOCK(hdma);	  
 8002818:	f880 5034 	strb.w	r5, [r0, #52]	; 0x34
  __HAL_LOCK(hdma);
 800281c:	2002      	movs	r0, #2
}
 800281e:	bd70      	pop	{r4, r5, r6, pc}

08002820 <HAL_DMA_IRQHandler>:
{
 8002820:	b5f7      	push	{r0, r1, r2, r4, r5, r6, r7, lr}
  __IO uint32_t count = 0U;
 8002822:	2300      	movs	r3, #0
 8002824:	9301      	str	r3, [sp, #4]
  uint32_t timeout = SystemCoreClock / 9600U;
 8002826:	4b5a      	ldr	r3, [pc, #360]	; (8002990 <HAL_DMA_IRQHandler+0x170>)
  DMA_Base_Registers *regs = (DMA_Base_Registers *)hdma->StreamBaseAddress;
 8002828:	6d85      	ldr	r5, [r0, #88]	; 0x58
  uint32_t timeout = SystemCoreClock / 9600U;
 800282a:	681f      	ldr	r7, [r3, #0]
  if ((tmpisr & (DMA_FLAG_TEIF0_4 << hdma->StreamIndex)) != RESET)
 800282c:	6dc3      	ldr	r3, [r0, #92]	; 0x5c
  tmpisr = regs->ISR;
 800282e:	682e      	ldr	r6, [r5, #0]
  if ((tmpisr & (DMA_FLAG_TEIF0_4 << hdma->StreamIndex)) != RESET)
 8002830:	2208      	movs	r2, #8
 8002832:	409a      	lsls	r2, r3
 8002834:	4216      	tst	r6, r2
{
 8002836:	4604      	mov	r4, r0
  if ((tmpisr & (DMA_FLAG_TEIF0_4 << hdma->StreamIndex)) != RESET)
 8002838:	d00c      	beq.n	8002854 <HAL_DMA_IRQHandler+0x34>
    if(__HAL_DMA_GET_IT_SOURCE(hdma, DMA_IT_TE) != RESET)
 800283a:	6801      	ldr	r1, [r0, #0]
 800283c:	6808      	ldr	r0, [r1, #0]
 800283e:	0740      	lsls	r0, r0, #29
 8002840:	d508      	bpl.n	8002854 <HAL_DMA_IRQHandler+0x34>
      hdma->Instance->CR  &= ~(DMA_IT_TE);
 8002842:	6808      	ldr	r0, [r1, #0]
 8002844:	f020 0004 	bic.w	r0, r0, #4
 8002848:	6008      	str	r0, [r1, #0]
      regs->IFCR = DMA_FLAG_TEIF0_4 << hdma->StreamIndex;
 800284a:	60aa      	str	r2, [r5, #8]
      hdma->ErrorCode |= HAL_DMA_ERROR_TE;
 800284c:	6d62      	ldr	r2, [r4, #84]	; 0x54
 800284e:	f042 0201 	orr.w	r2, r2, #1
 8002852:	6562      	str	r2, [r4, #84]	; 0x54
  if ((tmpisr & (DMA_FLAG_FEIF0_4 << hdma->StreamIndex)) != RESET)
 8002854:	2201      	movs	r2, #1
 8002856:	409a      	lsls	r2, r3
 8002858:	4216      	tst	r6, r2
 800285a:	d008      	beq.n	800286e <HAL_DMA_IRQHandler+0x4e>
    if(__HAL_DMA_GET_IT_SOURCE(hdma, DMA_IT_FE) != RESET)
 800285c:	6821      	ldr	r1, [r4, #0]
 800285e:	6949      	ldr	r1, [r1, #20]
 8002860:	0609      	lsls	r1, r1, #24
      regs->IFCR = DMA_FLAG_FEIF0_4 << hdma->StreamIndex;
 8002862:	bf41      	itttt	mi
 8002864:	60aa      	strmi	r2, [r5, #8]
      hdma->ErrorCode |= HAL_DMA_ERROR_FE;
 8002866:	6d62      	ldrmi	r2, [r4, #84]	; 0x54
 8002868:	f042 0202 	orrmi.w	r2, r2, #2
 800286c:	6562      	strmi	r2, [r4, #84]	; 0x54
  if ((tmpisr & (DMA_FLAG_DMEIF0_4 << hdma->StreamIndex)) != RESET)
 800286e:	2204      	movs	r2, #4
 8002870:	409a      	lsls	r2, r3
 8002872:	4216      	tst	r6, r2
 8002874:	d008      	beq.n	8002888 <HAL_DMA_IRQHandler+0x68>
    if(__HAL_DMA_GET_IT_SOURCE(hdma, DMA_IT_DME) != RESET)
 8002876:	6821      	ldr	r1, [r4, #0]
 8002878:	6809      	ldr	r1, [r1, #0]
 800287a:	0788      	lsls	r0, r1, #30
      regs->IFCR = DMA_FLAG_DMEIF0_4 << hdma->StreamIndex;
 800287c:	bf41      	itttt	mi
 800287e:	60aa      	strmi	r2, [r5, #8]
      hdma->ErrorCode |= HAL_DMA_ERROR_DME;
 8002880:	6d62      	ldrmi	r2, [r4, #84]	; 0x54
 8002882:	f042 0204 	orrmi.w	r2, r2, #4
 8002886:	6562      	strmi	r2, [r4, #84]	; 0x54
  if ((tmpisr & (DMA_FLAG_HTIF0_4 << hdma->StreamIndex)) != RESET)
 8002888:	2210      	movs	r2, #16
 800288a:	409a      	lsls	r2, r3
 800288c:	4216      	tst	r6, r2
 800288e:	d010      	beq.n	80028b2 <HAL_DMA_IRQHandler+0x92>
    if(__HAL_DMA_GET_IT_SOURCE(hdma, DMA_IT_HT) != RESET)
 8002890:	6823      	ldr	r3, [r4, #0]
 8002892:	6819      	ldr	r1, [r3, #0]
 8002894:	0709      	lsls	r1, r1, #28
 8002896:	d50c      	bpl.n	80028b2 <HAL_DMA_IRQHandler+0x92>
      regs->IFCR = DMA_FLAG_HTIF0_4 << hdma->StreamIndex;
 8002898:	60aa      	str	r2, [r5, #8]
      if(((hdma->Instance->CR) & (uint32_t)(DMA_SxCR_DBM)) != RESET)
 800289a:	681a      	ldr	r2, [r3, #0]
 800289c:	0350      	lsls	r0, r2, #13
 800289e:	d535      	bpl.n	800290c <HAL_DMA_IRQHandler+0xec>
        if((hdma->Instance->CR & DMA_SxCR_CT) == RESET)
 80028a0:	681b      	ldr	r3, [r3, #0]
 80028a2:	0319      	lsls	r1, r3, #12
 80028a4:	d401      	bmi.n	80028aa <HAL_DMA_IRQHandler+0x8a>
        if(hdma->XferHalfCpltCallback != NULL)
 80028a6:	6c23      	ldr	r3, [r4, #64]	; 0x40
 80028a8:	e000      	b.n	80028ac <HAL_DMA_IRQHandler+0x8c>
          if(hdma->XferM1HalfCpltCallback != NULL)
 80028aa:	6ca3      	ldr	r3, [r4, #72]	; 0x48
        if(hdma->XferHalfCpltCallback != NULL)
 80028ac:	b10b      	cbz	r3, 80028b2 <HAL_DMA_IRQHandler+0x92>
          hdma->XferHalfCpltCallback(hdma);
 80028ae:	4620      	mov	r0, r4
 80028b0:	4798      	blx	r3
  if ((tmpisr & (DMA_FLAG_TCIF0_4 << hdma->StreamIndex)) != RESET)
 80028b2:	6de1      	ldr	r1, [r4, #92]	; 0x5c
 80028b4:	2220      	movs	r2, #32
 80028b6:	408a      	lsls	r2, r1
 80028b8:	4216      	tst	r6, r2
 80028ba:	d038      	beq.n	800292e <HAL_DMA_IRQHandler+0x10e>
    if(__HAL_DMA_GET_IT_SOURCE(hdma, DMA_IT_TC) != RESET)
 80028bc:	6823      	ldr	r3, [r4, #0]
 80028be:	6818      	ldr	r0, [r3, #0]
 80028c0:	06c6      	lsls	r6, r0, #27
 80028c2:	d534      	bpl.n	800292e <HAL_DMA_IRQHandler+0x10e>
      regs->IFCR = DMA_FLAG_TCIF0_4 << hdma->StreamIndex;
 80028c4:	60aa      	str	r2, [r5, #8]
      if(HAL_DMA_STATE_ABORT == hdma->State)
 80028c6:	f894 2035 	ldrb.w	r2, [r4, #53]	; 0x35
 80028ca:	2a05      	cmp	r2, #5
        hdma->Instance->CR  &= ~(DMA_IT_TC | DMA_IT_TE | DMA_IT_DME);
 80028cc:	681a      	ldr	r2, [r3, #0]
      if(HAL_DMA_STATE_ABORT == hdma->State)
 80028ce:	d125      	bne.n	800291c <HAL_DMA_IRQHandler+0xfc>
        hdma->Instance->CR  &= ~(DMA_IT_TC | DMA_IT_TE | DMA_IT_DME);
 80028d0:	f022 0216 	bic.w	r2, r2, #22
 80028d4:	601a      	str	r2, [r3, #0]
        hdma->Instance->FCR &= ~(DMA_IT_FE);
 80028d6:	695a      	ldr	r2, [r3, #20]
 80028d8:	f022 0280 	bic.w	r2, r2, #128	; 0x80
 80028dc:	615a      	str	r2, [r3, #20]
        if((hdma->XferHalfCpltCallback != NULL) || (hdma->XferM1HalfCpltCallback != NULL))
 80028de:	6c22      	ldr	r2, [r4, #64]	; 0x40
 80028e0:	b90a      	cbnz	r2, 80028e6 <HAL_DMA_IRQHandler+0xc6>
 80028e2:	6ca2      	ldr	r2, [r4, #72]	; 0x48
 80028e4:	b11a      	cbz	r2, 80028ee <HAL_DMA_IRQHandler+0xce>
          hdma->Instance->CR  &= ~(DMA_IT_HT);
 80028e6:	681a      	ldr	r2, [r3, #0]
 80028e8:	f022 0208 	bic.w	r2, r2, #8
 80028ec:	601a      	str	r2, [r3, #0]
        regs->IFCR = 0x3FU << hdma->StreamIndex;
 80028ee:	233f      	movs	r3, #63	; 0x3f
 80028f0:	408b      	lsls	r3, r1
 80028f2:	60ab      	str	r3, [r5, #8]
        __HAL_UNLOCK(hdma);
 80028f4:	2300      	movs	r3, #0
 80028f6:	f884 3034 	strb.w	r3, [r4, #52]	; 0x34
        hdma->State = HAL_DMA_STATE_READY;
 80028fa:	2301      	movs	r3, #1
 80028fc:	f884 3035 	strb.w	r3, [r4, #53]	; 0x35
        if(hdma->XferAbortCallback != NULL)
 8002900:	6d23      	ldr	r3, [r4, #80]	; 0x50
    if(hdma->XferErrorCallback != NULL)
 8002902:	b10b      	cbz	r3, 8002908 <HAL_DMA_IRQHandler+0xe8>
      hdma->XferErrorCallback(hdma);
 8002904:	4620      	mov	r0, r4
 8002906:	4798      	blx	r3
}
 8002908:	b003      	add	sp, #12
 800290a:	bdf0      	pop	{r4, r5, r6, r7, pc}
        if((hdma->Instance->CR & DMA_SxCR_CIRC) == RESET)
 800290c:	681a      	ldr	r2, [r3, #0]
 800290e:	05d2      	lsls	r2, r2, #23
          hdma->Instance->CR  &= ~(DMA_IT_HT);
 8002910:	bf5e      	ittt	pl
 8002912:	681a      	ldrpl	r2, [r3, #0]
 8002914:	f022 0208 	bicpl.w	r2, r2, #8
 8002918:	601a      	strpl	r2, [r3, #0]
 800291a:	e7c4      	b.n	80028a6 <HAL_DMA_IRQHandler+0x86>
      if(((hdma->Instance->CR) & (uint32_t)(DMA_SxCR_DBM)) != RESET)
 800291c:	0350      	lsls	r0, r2, #13
 800291e:	d528      	bpl.n	8002972 <HAL_DMA_IRQHandler+0x152>
        if((hdma->Instance->CR & DMA_SxCR_CT) == RESET)
 8002920:	681b      	ldr	r3, [r3, #0]
 8002922:	0319      	lsls	r1, r3, #12
 8002924:	d432      	bmi.n	800298c <HAL_DMA_IRQHandler+0x16c>
          if(hdma->XferM1CpltCallback != NULL)
 8002926:	6c63      	ldr	r3, [r4, #68]	; 0x44
        if(hdma->XferCpltCallback != NULL)
 8002928:	b10b      	cbz	r3, 800292e <HAL_DMA_IRQHandler+0x10e>
          hdma->XferCpltCallback(hdma);
 800292a:	4620      	mov	r0, r4
 800292c:	4798      	blx	r3
  if(hdma->ErrorCode != HAL_DMA_ERROR_NONE)
 800292e:	6d63      	ldr	r3, [r4, #84]	; 0x54
 8002930:	2b00      	cmp	r3, #0
 8002932:	d0e9      	beq.n	8002908 <HAL_DMA_IRQHandler+0xe8>
    if((hdma->ErrorCode & HAL_DMA_ERROR_TE) != RESET)
 8002934:	6d63      	ldr	r3, [r4, #84]	; 0x54
 8002936:	07da      	lsls	r2, r3, #31
 8002938:	d519      	bpl.n	800296e <HAL_DMA_IRQHandler+0x14e>
      hdma->State = HAL_DMA_STATE_ABORT;
 800293a:	2305      	movs	r3, #5
      __HAL_DMA_DISABLE(hdma);
 800293c:	6822      	ldr	r2, [r4, #0]
      hdma->State = HAL_DMA_STATE_ABORT;
 800293e:	f884 3035 	strb.w	r3, [r4, #53]	; 0x35
      __HAL_DMA_DISABLE(hdma);
 8002942:	6813      	ldr	r3, [r2, #0]
 8002944:	f023 0301 	bic.w	r3, r3, #1
 8002948:	6013      	str	r3, [r2, #0]
  uint32_t timeout = SystemCoreClock / 9600U;
 800294a:	f44f 5316 	mov.w	r3, #9600	; 0x2580
 800294e:	fbb7 f7f3 	udiv	r7, r7, r3
        if (++count > timeout)
 8002952:	9b01      	ldr	r3, [sp, #4]
 8002954:	3301      	adds	r3, #1
 8002956:	429f      	cmp	r7, r3
 8002958:	9301      	str	r3, [sp, #4]
 800295a:	d302      	bcc.n	8002962 <HAL_DMA_IRQHandler+0x142>
      while((hdma->Instance->CR & DMA_SxCR_EN) != RESET);
 800295c:	6813      	ldr	r3, [r2, #0]
 800295e:	07db      	lsls	r3, r3, #31
 8002960:	d4f7      	bmi.n	8002952 <HAL_DMA_IRQHandler+0x132>
      __HAL_UNLOCK(hdma);
 8002962:	2300      	movs	r3, #0
 8002964:	f884 3034 	strb.w	r3, [r4, #52]	; 0x34
      hdma->State = HAL_DMA_STATE_READY;
 8002968:	2301      	movs	r3, #1
 800296a:	f884 3035 	strb.w	r3, [r4, #53]	; 0x35
    if(hdma->XferErrorCallback != NULL)
 800296e:	6ce3      	ldr	r3, [r4, #76]	; 0x4c
 8002970:	e7c7      	b.n	8002902 <HAL_DMA_IRQHandler+0xe2>
        if((hdma->Instance->CR & DMA_SxCR_CIRC) == RESET)
 8002972:	681a      	ldr	r2, [r3, #0]
 8002974:	f412 7280 	ands.w	r2, r2, #256	; 0x100
 8002978:	d108      	bne.n	800298c <HAL_DMA_IRQHandler+0x16c>
          hdma->Instance->CR  &= ~(DMA_IT_TC);
 800297a:	6819      	ldr	r1, [r3, #0]
 800297c:	f021 0110 	bic.w	r1, r1, #16
 8002980:	6019      	str	r1, [r3, #0]
          hdma->State = HAL_DMA_STATE_READY;
 8002982:	2301      	movs	r3, #1
          __HAL_UNLOCK(hdma);
 8002984:	f884 2034 	strb.w	r2, [r4, #52]	; 0x34
          hdma->State = HAL_DMA_STATE_READY;
 8002988:	f884 3035 	strb.w	r3, [r4, #53]	; 0x35
        if(hdma->XferCpltCallback != NULL)
 800298c:	6be3      	ldr	r3, [r4, #60]	; 0x3c
 800298e:	e7cb      	b.n	8002928 <HAL_DMA_IRQHandler+0x108>
 8002990:	20000000 	.word	0x20000000

08002994 <HAL_GPIO_Init>:
  * @param  GPIO_Init pointer to a GPIO_InitTypeDef structure that contains
  *         the configuration information for the specified GPIO peripheral.
  * @retval None
  */
void HAL_GPIO_Init(GPIO_TypeDef  *GPIOx, GPIO_InitTypeDef *GPIO_Init)
{
 8002994:	e92d 4ff0 	stmdb	sp!, {r4, r5, r6, r7, r8, r9, sl, fp, lr}
 8002998:	b085      	sub	sp, #20
  for(position = 0U; position < GPIO_NUMBER; position++)
  {
    /* Get the IO position */
    ioposition = 0x01U << position;
    /* Get the current IO position */
    iocurrent = (uint32_t)(GPIO_Init->Pin) & ioposition;
 800299a:	680b      	ldr	r3, [r1, #0]
      /*--------------------- EXTI Mode Configuration ------------------------*/
      /* Configure the External Interrupt or event for the current IO */
      if((GPIO_Init->Mode & EXTI_MODE) == EXTI_MODE)
      {
        /* Enable SYSCFG Clock */
        __HAL_RCC_SYSCFG_CLK_ENABLE();
 800299c:	f8df 81c4 	ldr.w	r8, [pc, #452]	; 8002b64 <HAL_GPIO_Init+0x1d0>
        temp &= ~(0x0FU << (4U * (position & 0x03U)));
        temp |= ((uint32_t)(GPIO_GET_INDEX(GPIOx)) << (4U * (position & 0x03U)));
        SYSCFG->EXTICR[position >> 2U] = temp;

        /* Clear EXTI line configuration */
        temp = EXTI->IMR;
 80029a0:	4a6e      	ldr	r2, [pc, #440]	; (8002b5c <HAL_GPIO_Init+0x1c8>)
        temp |= ((uint32_t)(GPIO_GET_INDEX(GPIOx)) << (4U * (position & 0x03U)));
 80029a2:	f8df 91c4 	ldr.w	r9, [pc, #452]	; 8002b68 <HAL_GPIO_Init+0x1d4>
    iocurrent = (uint32_t)(GPIO_Init->Pin) & ioposition;
 80029a6:	9301      	str	r3, [sp, #4]
  for(position = 0U; position < GPIO_NUMBER; position++)
 80029a8:	2300      	movs	r3, #0
    ioposition = 0x01U << position;
 80029aa:	f04f 0e01 	mov.w	lr, #1
    iocurrent = (uint32_t)(GPIO_Init->Pin) & ioposition;
 80029ae:	9c01      	ldr	r4, [sp, #4]
    ioposition = 0x01U << position;
 80029b0:	fa0e fe03 	lsl.w	lr, lr, r3
    iocurrent = (uint32_t)(GPIO_Init->Pin) & ioposition;
 80029b4:	ea0e 0604 	and.w	r6, lr, r4
    if(iocurrent == ioposition)
 80029b8:	45b6      	cmp	lr, r6
 80029ba:	f040 80b6 	bne.w	8002b2a <HAL_GPIO_Init+0x196>
      if((GPIO_Init->Mode == GPIO_MODE_AF_PP) || (GPIO_Init->Mode == GPIO_MODE_AF_OD))
 80029be:	684c      	ldr	r4, [r1, #4]
 80029c0:	f024 0710 	bic.w	r7, r4, #16
 80029c4:	2f02      	cmp	r7, #2
 80029c6:	d116      	bne.n	80029f6 <HAL_GPIO_Init+0x62>
        temp = GPIOx->AFR[position >> 3U];
 80029c8:	ea4f 0ad3 	mov.w	sl, r3, lsr #3
 80029cc:	eb00 0a8a 	add.w	sl, r0, sl, lsl #2
        temp &= ~(0xFU << ((uint32_t)(position & 0x07U) * 4U)) ;
 80029d0:	f003 0b07 	and.w	fp, r3, #7
        temp = GPIOx->AFR[position >> 3U];
 80029d4:	f8da 5020 	ldr.w	r5, [sl, #32]
        temp &= ~(0xFU << ((uint32_t)(position & 0x07U) * 4U)) ;
 80029d8:	ea4f 0b8b 	mov.w	fp, fp, lsl #2
 80029dc:	f04f 0c0f 	mov.w	ip, #15
 80029e0:	fa0c fc0b 	lsl.w	ip, ip, fp
 80029e4:	ea25 0c0c 	bic.w	ip, r5, ip
        temp |= ((uint32_t)(GPIO_Init->Alternate) << (((uint32_t)position & 0x07U) * 4U));
 80029e8:	690d      	ldr	r5, [r1, #16]
 80029ea:	fa05 f50b 	lsl.w	r5, r5, fp
 80029ee:	ea45 050c 	orr.w	r5, r5, ip
        GPIOx->AFR[position >> 3U] = temp;
 80029f2:	f8ca 5020 	str.w	r5, [sl, #32]
 80029f6:	ea4f 0a43 	mov.w	sl, r3, lsl #1
      temp &= ~(GPIO_MODER_MODER0 << (position * 2U));
 80029fa:	2503      	movs	r5, #3
      temp = GPIOx->MODER;
 80029fc:	f8d0 b000 	ldr.w	fp, [r0]
      temp &= ~(GPIO_MODER_MODER0 << (position * 2U));
 8002a00:	fa05 f50a 	lsl.w	r5, r5, sl
 8002a04:	43ed      	mvns	r5, r5
      temp |= ((GPIO_Init->Mode & GPIO_MODE) << (position * 2U));
 8002a06:	f004 0c03 	and.w	ip, r4, #3
      temp &= ~(GPIO_MODER_MODER0 << (position * 2U));
 8002a0a:	ea0b 0b05 	and.w	fp, fp, r5
      temp |= ((GPIO_Init->Mode & GPIO_MODE) << (position * 2U));
 8002a0e:	fa0c fc0a 	lsl.w	ip, ip, sl
      if((GPIO_Init->Mode == GPIO_MODE_OUTPUT_PP) || (GPIO_Init->Mode == GPIO_MODE_AF_PP) ||
 8002a12:	3f01      	subs	r7, #1
      temp |= ((GPIO_Init->Mode & GPIO_MODE) << (position * 2U));
 8002a14:	ea4c 0c0b 	orr.w	ip, ip, fp
      if((GPIO_Init->Mode == GPIO_MODE_OUTPUT_PP) || (GPIO_Init->Mode == GPIO_MODE_AF_PP) ||
 8002a18:	2f01      	cmp	r7, #1
      GPIOx->MODER = temp;
 8002a1a:	f8c0 c000 	str.w	ip, [r0]
      if((GPIO_Init->Mode == GPIO_MODE_OUTPUT_PP) || (GPIO_Init->Mode == GPIO_MODE_AF_PP) ||
 8002a1e:	d811      	bhi.n	8002a44 <HAL_GPIO_Init+0xb0>
        temp = GPIOx->OSPEEDR; 
 8002a20:	6887      	ldr	r7, [r0, #8]
        temp &= ~(GPIO_OSPEEDER_OSPEEDR0 << (position * 2U));
 8002a22:	ea07 0b05 	and.w	fp, r7, r5
        temp |= (GPIO_Init->Speed << (position * 2U));
 8002a26:	68cf      	ldr	r7, [r1, #12]
 8002a28:	fa07 fc0a 	lsl.w	ip, r7, sl
 8002a2c:	ea4c 070b 	orr.w	r7, ip, fp
        GPIOx->OSPEEDR = temp;
 8002a30:	6087      	str	r7, [r0, #8]
        temp = GPIOx->OTYPER;
 8002a32:	6847      	ldr	r7, [r0, #4]
        temp &= ~(GPIO_OTYPER_OT_0 << position) ;
 8002a34:	ea27 0e0e 	bic.w	lr, r7, lr
        temp |= (((GPIO_Init->Mode & GPIO_OUTPUT_TYPE) >> 4U) << position);
 8002a38:	f3c4 1700 	ubfx	r7, r4, #4, #1
 8002a3c:	409f      	lsls	r7, r3
 8002a3e:	ea47 070e 	orr.w	r7, r7, lr
        GPIOx->OTYPER = temp;
 8002a42:	6047      	str	r7, [r0, #4]
      temp = GPIOx->PUPDR;
 8002a44:	68c7      	ldr	r7, [r0, #12]
      temp &= ~(GPIO_PUPDR_PUPDR0 << (position * 2U));
 8002a46:	403d      	ands	r5, r7
      temp |= ((GPIO_Init->Pull) << (position * 2U));
 8002a48:	688f      	ldr	r7, [r1, #8]
 8002a4a:	fa07 f70a 	lsl.w	r7, r7, sl
 8002a4e:	433d      	orrs	r5, r7
      GPIOx->PUPDR = temp;
 8002a50:	60c5      	str	r5, [r0, #12]
      if((GPIO_Init->Mode & EXTI_MODE) == EXTI_MODE)
 8002a52:	00e5      	lsls	r5, r4, #3
 8002a54:	d569      	bpl.n	8002b2a <HAL_GPIO_Init+0x196>
        __HAL_RCC_SYSCFG_CLK_ENABLE();
 8002a56:	f04f 0b00 	mov.w	fp, #0
 8002a5a:	f8cd b00c 	str.w	fp, [sp, #12]
 8002a5e:	f8d8 7044 	ldr.w	r7, [r8, #68]	; 0x44
        temp |= ((uint32_t)(GPIO_GET_INDEX(GPIOx)) << (4U * (position & 0x03U)));
 8002a62:	4d3f      	ldr	r5, [pc, #252]	; (8002b60 <HAL_GPIO_Init+0x1cc>)
        __HAL_RCC_SYSCFG_CLK_ENABLE();
 8002a64:	f447 4780 	orr.w	r7, r7, #16384	; 0x4000
 8002a68:	f8c8 7044 	str.w	r7, [r8, #68]	; 0x44
 8002a6c:	f8d8 7044 	ldr.w	r7, [r8, #68]	; 0x44
 8002a70:	f407 4780 	and.w	r7, r7, #16384	; 0x4000
 8002a74:	9703      	str	r7, [sp, #12]
 8002a76:	9f03      	ldr	r7, [sp, #12]
 8002a78:	f023 0703 	bic.w	r7, r3, #3
 8002a7c:	f107 4780 	add.w	r7, r7, #1073741824	; 0x40000000
 8002a80:	f507 379c 	add.w	r7, r7, #79872	; 0x13800
        temp &= ~(0x0FU << (4U * (position & 0x03U)));
 8002a84:	f003 0c03 	and.w	ip, r3, #3
        temp = SYSCFG->EXTICR[position >> 2U];
 8002a88:	f8d7 a008 	ldr.w	sl, [r7, #8]
        temp &= ~(0x0FU << (4U * (position & 0x03U)));
 8002a8c:	ea4f 0c8c 	mov.w	ip, ip, lsl #2
 8002a90:	f04f 0e0f 	mov.w	lr, #15
 8002a94:	fa0e fe0c 	lsl.w	lr, lr, ip
        temp |= ((uint32_t)(GPIO_GET_INDEX(GPIOx)) << (4U * (position & 0x03U)));
 8002a98:	42a8      	cmp	r0, r5
        temp &= ~(0x0FU << (4U * (position & 0x03U)));
 8002a9a:	ea2a 0e0e 	bic.w	lr, sl, lr
        temp |= ((uint32_t)(GPIO_GET_INDEX(GPIOx)) << (4U * (position & 0x03U)));
 8002a9e:	d04b      	beq.n	8002b38 <HAL_GPIO_Init+0x1a4>
 8002aa0:	f505 6580 	add.w	r5, r5, #1024	; 0x400
 8002aa4:	42a8      	cmp	r0, r5
 8002aa6:	d049      	beq.n	8002b3c <HAL_GPIO_Init+0x1a8>
 8002aa8:	f505 6580 	add.w	r5, r5, #1024	; 0x400
 8002aac:	42a8      	cmp	r0, r5
 8002aae:	d047      	beq.n	8002b40 <HAL_GPIO_Init+0x1ac>
 8002ab0:	f505 6580 	add.w	r5, r5, #1024	; 0x400
 8002ab4:	42a8      	cmp	r0, r5
 8002ab6:	d045      	beq.n	8002b44 <HAL_GPIO_Init+0x1b0>
 8002ab8:	f505 6580 	add.w	r5, r5, #1024	; 0x400
 8002abc:	42a8      	cmp	r0, r5
 8002abe:	d043      	beq.n	8002b48 <HAL_GPIO_Init+0x1b4>
 8002ac0:	4548      	cmp	r0, r9
 8002ac2:	d043      	beq.n	8002b4c <HAL_GPIO_Init+0x1b8>
 8002ac4:	f505 6500 	add.w	r5, r5, #2048	; 0x800
 8002ac8:	42a8      	cmp	r0, r5
 8002aca:	d041      	beq.n	8002b50 <HAL_GPIO_Init+0x1bc>
 8002acc:	f505 6580 	add.w	r5, r5, #1024	; 0x400
 8002ad0:	42a8      	cmp	r0, r5
 8002ad2:	d03f      	beq.n	8002b54 <HAL_GPIO_Init+0x1c0>
 8002ad4:	f505 6580 	add.w	r5, r5, #1024	; 0x400
 8002ad8:	42a8      	cmp	r0, r5
 8002ada:	d03d      	beq.n	8002b58 <HAL_GPIO_Init+0x1c4>
 8002adc:	f505 6580 	add.w	r5, r5, #1024	; 0x400
 8002ae0:	42a8      	cmp	r0, r5
 8002ae2:	bf14      	ite	ne
 8002ae4:	250a      	movne	r5, #10
 8002ae6:	2509      	moveq	r5, #9
 8002ae8:	fa05 f50c 	lsl.w	r5, r5, ip
 8002aec:	ea45 050e 	orr.w	r5, r5, lr
        SYSCFG->EXTICR[position >> 2U] = temp;
 8002af0:	60bd      	str	r5, [r7, #8]
        temp = EXTI->IMR;
 8002af2:	6815      	ldr	r5, [r2, #0]
        temp &= ~((uint32_t)iocurrent);
 8002af4:	43f7      	mvns	r7, r6
        if((GPIO_Init->Mode & GPIO_MODE_IT) == GPIO_MODE_IT)
 8002af6:	f414 3f80 	tst.w	r4, #65536	; 0x10000
        temp &= ~((uint32_t)iocurrent);
 8002afa:	bf0c      	ite	eq
 8002afc:	403d      	andeq	r5, r7
        {
          temp |= iocurrent;
 8002afe:	4335      	orrne	r5, r6
        }
        EXTI->IMR = temp;
 8002b00:	6015      	str	r5, [r2, #0]

        temp = EXTI->EMR;
 8002b02:	6855      	ldr	r5, [r2, #4]
        temp &= ~((uint32_t)iocurrent);
        if((GPIO_Init->Mode & GPIO_MODE_EVT) == GPIO_MODE_EVT)
 8002b04:	f414 3f00 	tst.w	r4, #131072	; 0x20000
        temp &= ~((uint32_t)iocurrent);
 8002b08:	bf0c      	ite	eq
 8002b0a:	403d      	andeq	r5, r7
        {
          temp |= iocurrent;
 8002b0c:	4335      	orrne	r5, r6
        }
        EXTI->EMR = temp;
 8002b0e:	6055      	str	r5, [r2, #4]

        /* Clear Rising Falling edge configuration */
        temp = EXTI->RTSR;
 8002b10:	6895      	ldr	r5, [r2, #8]
        temp &= ~((uint32_t)iocurrent);
        if((GPIO_Init->Mode & RISING_EDGE) == RISING_EDGE)
 8002b12:	f414 1f80 	tst.w	r4, #1048576	; 0x100000
        temp &= ~((uint32_t)iocurrent);
 8002b16:	bf0c      	ite	eq
 8002b18:	403d      	andeq	r5, r7
        {
          temp |= iocurrent;
 8002b1a:	4335      	orrne	r5, r6
        }
        EXTI->RTSR = temp;
 8002b1c:	6095      	str	r5, [r2, #8]

        temp = EXTI->FTSR;
 8002b1e:	68d5      	ldr	r5, [r2, #12]
        temp &= ~((uint32_t)iocurrent);
        if((GPIO_Init->Mode & FALLING_EDGE) == FALLING_EDGE)
 8002b20:	02a4      	lsls	r4, r4, #10
        temp &= ~((uint32_t)iocurrent);
 8002b22:	bf54      	ite	pl
 8002b24:	403d      	andpl	r5, r7
        {
          temp |= iocurrent;
 8002b26:	4335      	orrmi	r5, r6
        }
        EXTI->FTSR = temp;
 8002b28:	60d5      	str	r5, [r2, #12]
  for(position = 0U; position < GPIO_NUMBER; position++)
 8002b2a:	3301      	adds	r3, #1
 8002b2c:	2b10      	cmp	r3, #16
 8002b2e:	f47f af3c 	bne.w	80029aa <HAL_GPIO_Init+0x16>
      }
    }
  }
}
 8002b32:	b005      	add	sp, #20
 8002b34:	e8bd 8ff0 	ldmia.w	sp!, {r4, r5, r6, r7, r8, r9, sl, fp, pc}
        temp |= ((uint32_t)(GPIO_GET_INDEX(GPIOx)) << (4U * (position & 0x03U)));
 8002b38:	465d      	mov	r5, fp
 8002b3a:	e7d5      	b.n	8002ae8 <HAL_GPIO_Init+0x154>
 8002b3c:	2501      	movs	r5, #1
 8002b3e:	e7d3      	b.n	8002ae8 <HAL_GPIO_Init+0x154>
 8002b40:	2502      	movs	r5, #2
 8002b42:	e7d1      	b.n	8002ae8 <HAL_GPIO_Init+0x154>
 8002b44:	2503      	movs	r5, #3
 8002b46:	e7cf      	b.n	8002ae8 <HAL_GPIO_Init+0x154>
 8002b48:	2504      	movs	r5, #4
 8002b4a:	e7cd      	b.n	8002ae8 <HAL_GPIO_Init+0x154>
 8002b4c:	2505      	movs	r5, #5
 8002b4e:	e7cb      	b.n	8002ae8 <HAL_GPIO_Init+0x154>
 8002b50:	2506      	movs	r5, #6
 8002b52:	e7c9      	b.n	8002ae8 <HAL_GPIO_Init+0x154>
 8002b54:	2507      	movs	r5, #7
 8002b56:	e7c7      	b.n	8002ae8 <HAL_GPIO_Init+0x154>
 8002b58:	2508      	movs	r5, #8
 8002b5a:	e7c5      	b.n	8002ae8 <HAL_GPIO_Init+0x154>
 8002b5c:	40013c00 	.word	0x40013c00
 8002b60:	40020000 	.word	0x40020000
 8002b64:	40023800 	.word	0x40023800
 8002b68:	40021400 	.word	0x40021400

08002b6c <HAL_GPIO_WritePin>:
{
  /* Check the parameters */
  assert_param(IS_GPIO_PIN(GPIO_Pin));
  assert_param(IS_GPIO_PIN_ACTION(PinState));

  if(PinState != GPIO_PIN_RESET)
 8002b6c:	b10a      	cbz	r2, 8002b72 <HAL_GPIO_WritePin+0x6>
  {
    GPIOx->BSRR = GPIO_Pin;
  }
  else
  {
    GPIOx->BSRR = (uint32_t)GPIO_Pin << 16U;
 8002b6e:	6181      	str	r1, [r0, #24]
 8002b70:	4770      	bx	lr
 8002b72:	0409      	lsls	r1, r1, #16
 8002b74:	e7fb      	b.n	8002b6e <HAL_GPIO_WritePin+0x2>

08002b76 <HAL_PCD_Init>:
  *         parameters in the PCD_InitTypeDef and initialize the associated handle.
  * @param  hpcd PCD handle
  * @retval HAL status
  */
HAL_StatusTypeDef HAL_PCD_Init(PCD_HandleTypeDef *hpcd)
{ 
 8002b76:	b5f0      	push	{r4, r5, r6, r7, lr}
  uint32_t i = 0U;
  
  /* Check the PCD handle allocation */
  if(hpcd == NULL)
 8002b78:	4606      	mov	r6, r0
{ 
 8002b7a:	b08b      	sub	sp, #44	; 0x2c
  if(hpcd == NULL)
 8002b7c:	2800      	cmp	r0, #0
 8002b7e:	d064      	beq.n	8002c4a <HAL_PCD_Init+0xd4>
  }
  
  /* Check the parameters */
  assert_param(IS_PCD_ALL_INSTANCE(hpcd->Instance));

  hpcd->State = HAL_PCD_STATE_BUSY;
 8002b80:	2303      	movs	r3, #3
  
  /* Init the low level hardware : GPIO, CLOCK, NVIC... */
  HAL_PCD_MspInit(hpcd);

  /* Disable the Interrupts */
 __HAL_PCD_DISABLE(hpcd);
 8002b82:	4634      	mov	r4, r6
  hpcd->State = HAL_PCD_STATE_BUSY;
 8002b84:	f880 33b9 	strb.w	r3, [r0, #953]	; 0x3b9
  HAL_PCD_MspInit(hpcd);
 8002b88:	f001 ff66 	bl	8004a58 <HAL_PCD_MspInit>
 __HAL_PCD_DISABLE(hpcd);
 8002b8c:	f854 0b10 	ldr.w	r0, [r4], #16
 8002b90:	f001 fa0a 	bl	8003fa8 <USB_DisableGlobalInt>
 
 /*Init the Core (common init.) */
 USB_CoreInit(hpcd->Instance, hpcd->Init);
 8002b94:	cc0f      	ldmia	r4!, {r0, r1, r2, r3}
 8002b96:	466d      	mov	r5, sp
 8002b98:	c50f      	stmia	r5!, {r0, r1, r2, r3}
 8002b9a:	cc0f      	ldmia	r4!, {r0, r1, r2, r3}
 8002b9c:	c50f      	stmia	r5!, {r0, r1, r2, r3}
 8002b9e:	e894 0003 	ldmia.w	r4, {r0, r1}
 8002ba2:	e885 0003 	stmia.w	r5, {r0, r1}
 8002ba6:	1d37      	adds	r7, r6, #4
 8002ba8:	e897 000e 	ldmia.w	r7, {r1, r2, r3}
 8002bac:	6830      	ldr	r0, [r6, #0]
 8002bae:	f001 f9bb 	bl	8003f28 <USB_CoreInit>
 
 /* Force Device Mode*/
 USB_SetCurrentMode(hpcd->Instance , USB_OTG_DEVICE_MODE);
 8002bb2:	2100      	movs	r1, #0
 8002bb4:	6830      	ldr	r0, [r6, #0]
 8002bb6:	f001 f9fd 	bl	8003fb4 <USB_SetCurrentMode>
 
 /* Init endpoints structures */
 for (i = 0U; i < 15U; i++)
 8002bba:	2100      	movs	r1, #0
 8002bbc:	4633      	mov	r3, r6
 USB_SetCurrentMode(hpcd->Instance , USB_OTG_DEVICE_MODE);
 8002bbe:	4632      	mov	r2, r6
 8002bc0:	f106 0410 	add.w	r4, r6, #16
 {
   /* Init ep structure */
   hpcd->IN_ep[i].is_in = 1U;
 8002bc4:	2501      	movs	r5, #1
   hpcd->IN_ep[i].num = i;
   hpcd->IN_ep[i].tx_fifo_num = i;
   /* Control until ep is activated */
   hpcd->IN_ep[i].type = EP_TYPE_CTRL;
 8002bc6:	4608      	mov	r0, r1
   hpcd->IN_ep[i].num = i;
 8002bc8:	f882 1038 	strb.w	r1, [r2, #56]	; 0x38
   hpcd->IN_ep[i].tx_fifo_num = i;
 8002bcc:	87d1      	strh	r1, [r2, #62]	; 0x3e
 for (i = 0U; i < 15U; i++)
 8002bce:	3101      	adds	r1, #1
 8002bd0:	290f      	cmp	r1, #15
   hpcd->IN_ep[i].is_in = 1U;
 8002bd2:	f882 5039 	strb.w	r5, [r2, #57]	; 0x39
   hpcd->IN_ep[i].type = EP_TYPE_CTRL;
 8002bd6:	f882 003b 	strb.w	r0, [r2, #59]	; 0x3b
   hpcd->IN_ep[i].maxpacket = 0U;
 8002bda:	6410      	str	r0, [r2, #64]	; 0x40
   hpcd->IN_ep[i].xfer_buff = 0U;
 8002bdc:	6450      	str	r0, [r2, #68]	; 0x44
   hpcd->IN_ep[i].xfer_len = 0U;
 8002bde:	64d0      	str	r0, [r2, #76]	; 0x4c
 8002be0:	f102 021c 	add.w	r2, r2, #28
 for (i = 0U; i < 15U; i++)
 8002be4:	d1f0      	bne.n	8002bc8 <HAL_PCD_Init+0x52>
   hpcd->OUT_ep[i].type = EP_TYPE_CTRL;
   hpcd->OUT_ep[i].maxpacket = 0U;
   hpcd->OUT_ep[i].xfer_buff = 0U;
   hpcd->OUT_ep[i].xfer_len = 0U;
   
   hpcd->Instance->DIEPTXF[i] = 0U;
 8002be6:	2200      	movs	r2, #0
 8002be8:	f8d6 e000 	ldr.w	lr, [r6]
   hpcd->OUT_ep[i].is_in = 0U;
 8002bec:	4611      	mov	r1, r2
   hpcd->Instance->DIEPTXF[i] = 0U;
 8002bee:	f102 0040 	add.w	r0, r2, #64	; 0x40
   hpcd->OUT_ep[i].num = i;
 8002bf2:	f883 21f8 	strb.w	r2, [r3, #504]	; 0x1f8
   hpcd->IN_ep[i].tx_fifo_num = i;
 8002bf6:	87da      	strh	r2, [r3, #62]	; 0x3e
   hpcd->Instance->DIEPTXF[i] = 0U;
 8002bf8:	eb0e 0080 	add.w	r0, lr, r0, lsl #2
 for (i = 0U; i < 15U; i++)
 8002bfc:	3201      	adds	r2, #1
 8002bfe:	2a0f      	cmp	r2, #15
   hpcd->OUT_ep[i].is_in = 0U;
 8002c00:	f883 11f9 	strb.w	r1, [r3, #505]	; 0x1f9
   hpcd->OUT_ep[i].type = EP_TYPE_CTRL;
 8002c04:	f883 11fb 	strb.w	r1, [r3, #507]	; 0x1fb
   hpcd->OUT_ep[i].maxpacket = 0U;
 8002c08:	f8c3 1200 	str.w	r1, [r3, #512]	; 0x200
   hpcd->OUT_ep[i].xfer_buff = 0U;
 8002c0c:	f8c3 1204 	str.w	r1, [r3, #516]	; 0x204
   hpcd->OUT_ep[i].xfer_len = 0U;
 8002c10:	f8c3 120c 	str.w	r1, [r3, #524]	; 0x20c
   hpcd->Instance->DIEPTXF[i] = 0U;
 8002c14:	6041      	str	r1, [r0, #4]
 8002c16:	f103 031c 	add.w	r3, r3, #28
 for (i = 0U; i < 15U; i++)
 8002c1a:	d1e8      	bne.n	8002bee <HAL_PCD_Init+0x78>
 }
 
 /* Init Device */
 USB_DevInit(hpcd->Instance, hpcd->Init);
 8002c1c:	cc0f      	ldmia	r4!, {r0, r1, r2, r3}
 8002c1e:	466d      	mov	r5, sp
 8002c20:	c50f      	stmia	r5!, {r0, r1, r2, r3}
 8002c22:	cc0f      	ldmia	r4!, {r0, r1, r2, r3}
 8002c24:	c50f      	stmia	r5!, {r0, r1, r2, r3}
 8002c26:	e894 0003 	ldmia.w	r4, {r0, r1}
 8002c2a:	e885 0003 	stmia.w	r5, {r0, r1}
 8002c2e:	4670      	mov	r0, lr
 8002c30:	e897 000e 	ldmia.w	r7, {r1, r2, r3}
 8002c34:	f001 f9d6 	bl	8003fe4 <USB_DevInit>
 
 hpcd->State= HAL_PCD_STATE_READY;
 8002c38:	2301      	movs	r3, #1
 8002c3a:	f886 33b9 	strb.w	r3, [r6, #953]	; 0x3b9
 {
   HAL_PCDEx_ActivateBCD(hpcd);
 }
#endif /* USB_OTG_GCCFG_BCDEN */
 
 USB_DevDisconnect (hpcd->Instance);  
 8002c3e:	6830      	ldr	r0, [r6, #0]
 8002c40:	f001 fcf3 	bl	800462a <USB_DevDisconnect>
 return HAL_OK;
 8002c44:	2000      	movs	r0, #0
}
 8002c46:	b00b      	add	sp, #44	; 0x2c
 8002c48:	bdf0      	pop	{r4, r5, r6, r7, pc}
    return HAL_ERROR;
 8002c4a:	2001      	movs	r0, #1
 8002c4c:	e7fb      	b.n	8002c46 <HAL_PCD_Init+0xd0>

08002c4e <HAL_PCD_Start>:
  * @param  hpcd PCD handle
  * @retval HAL status
  */
HAL_StatusTypeDef HAL_PCD_Start(PCD_HandleTypeDef *hpcd)
{ 
  __HAL_LOCK(hpcd); 
 8002c4e:	f890 33b8 	ldrb.w	r3, [r0, #952]	; 0x3b8
 8002c52:	2b01      	cmp	r3, #1
{ 
 8002c54:	b510      	push	{r4, lr}
 8002c56:	4604      	mov	r4, r0
  __HAL_LOCK(hpcd); 
 8002c58:	d00c      	beq.n	8002c74 <HAL_PCD_Start+0x26>
 8002c5a:	2301      	movs	r3, #1
 8002c5c:	f880 33b8 	strb.w	r3, [r0, #952]	; 0x3b8
  USB_DevConnect (hpcd->Instance);  
 8002c60:	6800      	ldr	r0, [r0, #0]
 8002c62:	f001 fcd6 	bl	8004612 <USB_DevConnect>
  __HAL_PCD_ENABLE(hpcd);
 8002c66:	6820      	ldr	r0, [r4, #0]
 8002c68:	f001 f998 	bl	8003f9c <USB_EnableGlobalInt>
  __HAL_UNLOCK(hpcd); 
 8002c6c:	2000      	movs	r0, #0
 8002c6e:	f884 03b8 	strb.w	r0, [r4, #952]	; 0x3b8
  return HAL_OK;
 8002c72:	bd10      	pop	{r4, pc}
  __HAL_LOCK(hpcd); 
 8002c74:	2002      	movs	r0, #2
}
 8002c76:	bd10      	pop	{r4, pc}

08002c78 <HAL_PCD_IRQHandler>:
  * @brief  Handles PCD interrupt request.
  * @param  hpcd PCD handle
  * @retval HAL status
  */
void HAL_PCD_IRQHandler(PCD_HandleTypeDef *hpcd)
{
 8002c78:	e92d 4ff0 	stmdb	sp!, {r4, r5, r6, r7, r8, r9, sl, fp, lr}
  USB_OTG_GlobalTypeDef *USBx = hpcd->Instance;
 8002c7c:	f8d0 9000 	ldr.w	r9, [r0]
{
 8002c80:	b087      	sub	sp, #28
 8002c82:	4604      	mov	r4, r0
  uint32_t fifoemptymsk = 0U, temp = 0U;
  USB_OTG_EPTypeDef *ep;
  uint32_t hclk = 180000000U;
  
  /* ensure that we are in device mode */
  if (USB_GetMode(hpcd->Instance) == USB_OTG_MODE_DEVICE)
 8002c84:	4648      	mov	r0, r9
 8002c86:	f001 fd0a 	bl	800469e <USB_GetMode>
 8002c8a:	9002      	str	r0, [sp, #8]
 8002c8c:	2800      	cmp	r0, #0
 8002c8e:	f040 812e 	bne.w	8002eee <HAL_PCD_IRQHandler+0x276>
  {    
    /* avoid spurious interrupt */
    if(__HAL_PCD_IS_INVALID_INTERRUPT(hpcd)) 
 8002c92:	6820      	ldr	r0, [r4, #0]
 8002c94:	f001 fcd5 	bl	8004642 <USB_ReadInterrupts>
 8002c98:	2800      	cmp	r0, #0
 8002c9a:	f000 8128 	beq.w	8002eee <HAL_PCD_IRQHandler+0x276>
    {
      return;
    }
    
    if(__HAL_PCD_GET_FLAG(hpcd, USB_OTG_GINTSTS_MMIS))
 8002c9e:	6820      	ldr	r0, [r4, #0]
 8002ca0:	f001 fccf 	bl	8004642 <USB_ReadInterrupts>
 8002ca4:	0785      	lsls	r5, r0, #30
    {
     /* incorrect mode, acknowledge the interrupt */
      __HAL_PCD_CLEAR_FLAG(hpcd, USB_OTG_GINTSTS_MMIS);
 8002ca6:	bf48      	it	mi
 8002ca8:	6822      	ldrmi	r2, [r4, #0]
    }
    
    if(__HAL_PCD_GET_FLAG(hpcd, USB_OTG_GINTSTS_OEPINT))
 8002caa:	6820      	ldr	r0, [r4, #0]
      __HAL_PCD_CLEAR_FLAG(hpcd, USB_OTG_GINTSTS_MMIS);
 8002cac:	bf42      	ittt	mi
 8002cae:	6953      	ldrmi	r3, [r2, #20]
 8002cb0:	f003 0302 	andmi.w	r3, r3, #2
 8002cb4:	6153      	strmi	r3, [r2, #20]
    if(__HAL_PCD_GET_FLAG(hpcd, USB_OTG_GINTSTS_OEPINT))
 8002cb6:	f001 fcc4 	bl	8004642 <USB_ReadInterrupts>
 8002cba:	f410 2500 	ands.w	r5, r0, #524288	; 0x80000
 8002cbe:	d00a      	beq.n	8002cd6 <HAL_PCD_IRQHandler+0x5e>
    {
      epnum = 0U;
      
      /* Read in the device interrupt bits */
      ep_intr = USB_ReadDevAllOutEpInterrupt(hpcd->Instance);
 8002cc0:	6820      	ldr	r0, [r4, #0]
 8002cc2:	f001 fcc2 	bl	800464a <USB_ReadDevAllOutEpInterrupt>
 8002cc6:	f509 6630 	add.w	r6, r9, #2816	; 0xb00
 8002cca:	4607      	mov	r7, r0
 8002ccc:	46a2      	mov	sl, r4
      epnum = 0U;
 8002cce:	2500      	movs	r5, #0
      
      while ( ep_intr )
 8002cd0:	2f00      	cmp	r7, #0
 8002cd2:	f040 810f 	bne.w	8002ef4 <HAL_PCD_IRQHandler+0x27c>
        epnum++;
        ep_intr >>= 1U;
      }
    }
    
    if(__HAL_PCD_GET_FLAG(hpcd, USB_OTG_GINTSTS_IEPINT))
 8002cd6:	6820      	ldr	r0, [r4, #0]
 8002cd8:	f001 fcb3 	bl	8004642 <USB_ReadInterrupts>
 8002cdc:	0341      	lsls	r1, r0, #13
 8002cde:	d50b      	bpl.n	8002cf8 <HAL_PCD_IRQHandler+0x80>
    {
      /* Read in the device interrupt bits */
      ep_intr = USB_ReadDevAllInEpInterrupt(hpcd->Instance);
 8002ce0:	6820      	ldr	r0, [r4, #0]
 8002ce2:	f001 fcba 	bl	800465a <USB_ReadDevAllInEpInterrupt>
 8002ce6:	4626      	mov	r6, r4
 8002ce8:	9003      	str	r0, [sp, #12]
 8002cea:	f509 6810 	add.w	r8, r9, #2304	; 0x900
      
      epnum = 0U;
 8002cee:	2500      	movs	r5, #0
      
      while ( ep_intr )
 8002cf0:	9b03      	ldr	r3, [sp, #12]
 8002cf2:	2b00      	cmp	r3, #0
 8002cf4:	f040 813f 	bne.w	8002f76 <HAL_PCD_IRQHandler+0x2fe>
        ep_intr >>= 1U;
      }
    }
    
    /* Handle Resume Interrupt */
    if(__HAL_PCD_GET_FLAG(hpcd, USB_OTG_GINTSTS_WKUINT))
 8002cf8:	6820      	ldr	r0, [r4, #0]
 8002cfa:	f001 fca2 	bl	8004642 <USB_ReadInterrupts>
 8002cfe:	2800      	cmp	r0, #0
 8002d00:	da0d      	bge.n	8002d1e <HAL_PCD_IRQHandler+0xa6>
    {    
      /* Clear the Remote Wake-up Signaling */
      USBx_DEVICE->DCTL &= ~USB_OTG_DCTL_RWUSIG;
 8002d02:	f8d9 3804 	ldr.w	r3, [r9, #2052]	; 0x804
 8002d06:	f023 0301 	bic.w	r3, r3, #1
 8002d0a:	f8c9 3804 	str.w	r3, [r9, #2052]	; 0x804
        HAL_PCDEx_LPM_Callback(hpcd, PCD_LPM_L0_ACTIVE);
      }
      else
#endif /* USB_OTG_GLPMCFG_LPMEN */
      {
        HAL_PCD_ResumeCallback(hpcd);
 8002d0e:	4620      	mov	r0, r4
 8002d10:	f001 ff18 	bl	8004b44 <HAL_PCD_ResumeCallback>
      }
      
      __HAL_PCD_CLEAR_FLAG(hpcd, USB_OTG_GINTSTS_WKUINT);
 8002d14:	6822      	ldr	r2, [r4, #0]
 8002d16:	6953      	ldr	r3, [r2, #20]
 8002d18:	f003 4300 	and.w	r3, r3, #2147483648	; 0x80000000
 8002d1c:	6153      	str	r3, [r2, #20]
    }
    
    /* Handle Suspend Interrupt */
    if(__HAL_PCD_GET_FLAG(hpcd, USB_OTG_GINTSTS_USBSUSP))
 8002d1e:	6820      	ldr	r0, [r4, #0]
 8002d20:	f001 fc8f 	bl	8004642 <USB_ReadInterrupts>
 8002d24:	0506      	lsls	r6, r0, #20
 8002d26:	d50b      	bpl.n	8002d40 <HAL_PCD_IRQHandler+0xc8>
    {
      if((USBx_DEVICE->DSTS & USB_OTG_DSTS_SUSPSTS) == USB_OTG_DSTS_SUSPSTS)
 8002d28:	f8d9 3808 	ldr.w	r3, [r9, #2056]	; 0x808
 8002d2c:	07d8      	lsls	r0, r3, #31
 8002d2e:	d502      	bpl.n	8002d36 <HAL_PCD_IRQHandler+0xbe>
      {
        
        HAL_PCD_SuspendCallback(hpcd);
 8002d30:	4620      	mov	r0, r4
 8002d32:	f001 feef 	bl	8004b14 <HAL_PCD_SuspendCallback>
      }
      __HAL_PCD_CLEAR_FLAG(hpcd, USB_OTG_GINTSTS_USBSUSP);
 8002d36:	6822      	ldr	r2, [r4, #0]
 8002d38:	6953      	ldr	r3, [r2, #20]
 8002d3a:	f403 6300 	and.w	r3, r3, #2048	; 0x800
 8002d3e:	6153      	str	r3, [r2, #20]
      }
    }
#endif /* USB_OTG_GLPMCFG_LPMEN */

    /* Handle Reset Interrupt */
    if(__HAL_PCD_GET_FLAG(hpcd, USB_OTG_GINTSTS_USBRST))
 8002d40:	6820      	ldr	r0, [r4, #0]
 8002d42:	f001 fc7e 	bl	8004642 <USB_ReadInterrupts>
 8002d46:	04c1      	lsls	r1, r0, #19
 8002d48:	d537      	bpl.n	8002dba <HAL_PCD_IRQHandler+0x142>
    {
      USBx_DEVICE->DCTL &= ~USB_OTG_DCTL_RWUSIG; 
 8002d4a:	f509 6600 	add.w	r6, r9, #2048	; 0x800
 8002d4e:	6873      	ldr	r3, [r6, #4]
      USB_FlushTxFifo(hpcd->Instance , 0x10U);
 8002d50:	6820      	ldr	r0, [r4, #0]
      USBx_DEVICE->DCTL &= ~USB_OTG_DCTL_RWUSIG; 
 8002d52:	f023 0301 	bic.w	r3, r3, #1
 8002d56:	6073      	str	r3, [r6, #4]
      USB_FlushTxFifo(hpcd->Instance , 0x10U);
 8002d58:	2110      	movs	r1, #16
 8002d5a:	f001 f9df 	bl	800411c <USB_FlushTxFifo>
      
      for (i = 0U; i < hpcd->Init.dev_endpoints; i++)
 8002d5e:	6861      	ldr	r1, [r4, #4]
 8002d60:	f509 6310 	add.w	r3, r9, #2304	; 0x900
      {
        USBx_INEP(i)->DIEPINT = 0xFFU;
 8002d64:	22ff      	movs	r2, #255	; 0xff
      for (i = 0U; i < hpcd->Init.dev_endpoints; i++)
 8002d66:	9802      	ldr	r0, [sp, #8]
 8002d68:	4288      	cmp	r0, r1
 8002d6a:	f040 8192 	bne.w	8003092 <HAL_PCD_IRQHandler+0x41a>
        USBx_OUTEP(i)->DOEPINT = 0xFFU;
      }
      USBx_DEVICE->DAINT = 0xFFFFFFFFU;
 8002d6e:	f04f 33ff 	mov.w	r3, #4294967295
 8002d72:	61b3      	str	r3, [r6, #24]
      USBx_DEVICE->DAINTMSK |= 0x10001U;
 8002d74:	69f3      	ldr	r3, [r6, #28]
 8002d76:	f043 1301 	orr.w	r3, r3, #65537	; 0x10001
 8002d7a:	61f3      	str	r3, [r6, #28]
      
      if(hpcd->Init.use_dedicated_ep1)
 8002d7c:	6b23      	ldr	r3, [r4, #48]	; 0x30
 8002d7e:	2b00      	cmp	r3, #0
 8002d80:	f000 818f 	beq.w	80030a2 <HAL_PCD_IRQHandler+0x42a>
      {
        USBx_DEVICE->DOUTEP1MSK |= (USB_OTG_DOEPMSK_STUPM | USB_OTG_DOEPMSK_XFRCM | USB_OTG_DOEPMSK_EPDM); 
 8002d84:	f8d6 3084 	ldr.w	r3, [r6, #132]	; 0x84
 8002d88:	f043 030b 	orr.w	r3, r3, #11
 8002d8c:	f8c6 3084 	str.w	r3, [r6, #132]	; 0x84
        USBx_DEVICE->DINEP1MSK |= (USB_OTG_DIEPMSK_TOM | USB_OTG_DIEPMSK_XFRCM | USB_OTG_DIEPMSK_EPDM);  
 8002d90:	6c73      	ldr	r3, [r6, #68]	; 0x44
 8002d92:	f043 030b 	orr.w	r3, r3, #11
 8002d96:	6473      	str	r3, [r6, #68]	; 0x44
#endif /* USB_OTG_DOEPINT_OTEPSPR */
        USBx_DEVICE->DIEPMSK |= (USB_OTG_DIEPMSK_TOM | USB_OTG_DIEPMSK_XFRCM | USB_OTG_DIEPMSK_EPDM);
      }
      
      /* Set Default Address to 0 */
      USBx_DEVICE->DCFG &= ~USB_OTG_DCFG_DAD;
 8002d98:	f8d9 3800 	ldr.w	r3, [r9, #2048]	; 0x800
      
      /* setup EP0 to receive SETUP packets */
      USB_EP0_OutStart(hpcd->Instance, hpcd->Init.dma_enable, (uint8_t *)hpcd->Setup);
 8002d9c:	7c21      	ldrb	r1, [r4, #16]
 8002d9e:	6820      	ldr	r0, [r4, #0]
      USBx_DEVICE->DCFG &= ~USB_OTG_DCFG_DAD;
 8002da0:	f423 63fe 	bic.w	r3, r3, #2032	; 0x7f0
 8002da4:	f8c9 3800 	str.w	r3, [r9, #2048]	; 0x800
      USB_EP0_OutStart(hpcd->Instance, hpcd->Init.dma_enable, (uint8_t *)hpcd->Setup);
 8002da8:	f504 726f 	add.w	r2, r4, #956	; 0x3bc
 8002dac:	f001 fc96 	bl	80046dc <USB_EP0_OutStart>
        
      __HAL_PCD_CLEAR_FLAG(hpcd, USB_OTG_GINTSTS_USBRST);
 8002db0:	6822      	ldr	r2, [r4, #0]
 8002db2:	6953      	ldr	r3, [r2, #20]
 8002db4:	f403 5380 	and.w	r3, r3, #4096	; 0x1000
 8002db8:	6153      	str	r3, [r2, #20]
    }
    
    /* Handle Enumeration done Interrupt */
    if(__HAL_PCD_GET_FLAG(hpcd, USB_OTG_GINTSTS_ENUMDNE))
 8002dba:	6820      	ldr	r0, [r4, #0]
 8002dbc:	f001 fc41 	bl	8004642 <USB_ReadInterrupts>
 8002dc0:	0482      	lsls	r2, r0, #18
 8002dc2:	d51d      	bpl.n	8002e00 <HAL_PCD_IRQHandler+0x188>
    {
      USB_ActivateSetup(hpcd->Instance);
 8002dc4:	6820      	ldr	r0, [r4, #0]
 8002dc6:	f001 fc6e 	bl	80046a6 <USB_ActivateSetup>
      hpcd->Instance->GUSBCFG &= ~USB_OTG_GUSBCFG_TRDT;
 8002dca:	6820      	ldr	r0, [r4, #0]
 8002dcc:	68c3      	ldr	r3, [r0, #12]
 8002dce:	f423 5370 	bic.w	r3, r3, #15360	; 0x3c00
 8002dd2:	60c3      	str	r3, [r0, #12]
      
      if ( USB_GetDevSpeed(hpcd->Instance) == USB_OTG_SPEED_HIGH)
 8002dd4:	f001 f9cb 	bl	800416e <USB_GetDevSpeed>
 8002dd8:	2800      	cmp	r0, #0
 8002dda:	f040 816b 	bne.w	80030b4 <HAL_PCD_IRQHandler+0x43c>
      {
        hpcd->Init.speed            = USB_OTG_SPEED_HIGH;
        hpcd->Init.ep0_mps          = USB_OTG_HS_MAX_PACKET_SIZE ;    
        hpcd->Instance->GUSBCFG |= (uint32_t)((USBD_HS_TRDT_VALUE << 10U) & USB_OTG_GUSBCFG_TRDT);
 8002dde:	6822      	ldr	r2, [r4, #0]
        hpcd->Init.speed            = USB_OTG_SPEED_HIGH;
 8002de0:	60e0      	str	r0, [r4, #12]
        hpcd->Init.ep0_mps          = USB_OTG_HS_MAX_PACKET_SIZE ;    
 8002de2:	f44f 7300 	mov.w	r3, #512	; 0x200
 8002de6:	6163      	str	r3, [r4, #20]
        hpcd->Instance->GUSBCFG |= (uint32_t)((USBD_HS_TRDT_VALUE << 10U) & USB_OTG_GUSBCFG_TRDT);
 8002de8:	68d3      	ldr	r3, [r2, #12]
 8002dea:	f443 5310 	orr.w	r3, r3, #9216	; 0x2400
 8002dee:	60d3      	str	r3, [r2, #12]
          /* hclk Clock Range between 32-180 MHz */
          hpcd->Instance->GUSBCFG |= (uint32_t)((0x6U << 10U) & USB_OTG_GUSBCFG_TRDT);
        }  
      }
      
      HAL_PCD_ResetCallback(hpcd);
 8002df0:	4620      	mov	r0, r4
 8002df2:	f001 fe7e 	bl	8004af2 <HAL_PCD_ResetCallback>
      
      __HAL_PCD_CLEAR_FLAG(hpcd, USB_OTG_GINTSTS_ENUMDNE);
 8002df6:	6822      	ldr	r2, [r4, #0]
 8002df8:	6953      	ldr	r3, [r2, #20]
 8002dfa:	f403 5300 	and.w	r3, r3, #8192	; 0x2000
 8002dfe:	6153      	str	r3, [r2, #20]
    }

    /* Handle RxQLevel Interrupt */
    if(__HAL_PCD_GET_FLAG(hpcd, USB_OTG_GINTSTS_RXFLVL))
 8002e00:	6820      	ldr	r0, [r4, #0]
 8002e02:	f001 fc1e 	bl	8004642 <USB_ReadInterrupts>
 8002e06:	06c3      	lsls	r3, r0, #27
 8002e08:	d52b      	bpl.n	8002e62 <HAL_PCD_IRQHandler+0x1ea>
    {
      USB_MASK_INTERRUPT(hpcd->Instance, USB_OTG_GINTSTS_RXFLVL);
 8002e0a:	6822      	ldr	r2, [r4, #0]
 8002e0c:	6993      	ldr	r3, [r2, #24]
 8002e0e:	f023 0310 	bic.w	r3, r3, #16
 8002e12:	6193      	str	r3, [r2, #24]
      
      temp = USBx->GRXSTSP;
 8002e14:	f8d9 6020 	ldr.w	r6, [r9, #32]
      
      ep = &hpcd->OUT_ep[temp & USB_OTG_GRXSTSP_EPNUM];
      
      if(((temp & USB_OTG_GRXSTSP_PKTSTS) >> 17U) ==  STS_DATA_UPDT)
 8002e18:	f3c6 4343 	ubfx	r3, r6, #17, #4
 8002e1c:	2b02      	cmp	r3, #2
      ep = &hpcd->OUT_ep[temp & USB_OTG_GRXSTSP_EPNUM];
 8002e1e:	f006 080f 	and.w	r8, r6, #15
      if(((temp & USB_OTG_GRXSTSP_PKTSTS) >> 17U) ==  STS_DATA_UPDT)
 8002e22:	f040 81a8 	bne.w	8003176 <HAL_PCD_IRQHandler+0x4fe>
      {
        if((temp & USB_OTG_GRXSTSP_BCNT) != 0U)
 8002e26:	f647 73f0 	movw	r3, #32752	; 0x7ff0
 8002e2a:	421e      	tst	r6, r3
 8002e2c:	d014      	beq.n	8002e58 <HAL_PCD_IRQHandler+0x1e0>
        {
          USB_ReadPacket(USBx, ep->xfer_buff, (temp & USB_OTG_GRXSTSP_BCNT) >> 4U);
 8002e2e:	271c      	movs	r7, #28
 8002e30:	fb07 4708 	mla	r7, r7, r8, r4
 8002e34:	f3c6 160a 	ubfx	r6, r6, #4, #11
 8002e38:	4632      	mov	r2, r6
 8002e3a:	f8d7 1204 	ldr.w	r1, [r7, #516]	; 0x204
 8002e3e:	4648      	mov	r0, r9
 8002e40:	f001 fb91 	bl	8004566 <USB_ReadPacket>
          ep->xfer_buff += (temp & USB_OTG_GRXSTSP_BCNT) >> 4U;
 8002e44:	f8d7 3204 	ldr.w	r3, [r7, #516]	; 0x204
 8002e48:	4433      	add	r3, r6
 8002e4a:	f8c7 3204 	str.w	r3, [r7, #516]	; 0x204
        }
      }
      else if (((temp & USB_OTG_GRXSTSP_PKTSTS) >> 17U) ==  STS_SETUP_UPDT)
      {
        USB_ReadPacket(USBx, (uint8_t *)hpcd->Setup, 8U);
        ep->xfer_count += (temp & USB_OTG_GRXSTSP_BCNT) >> 4U;
 8002e4e:	f8d7 3210 	ldr.w	r3, [r7, #528]	; 0x210
 8002e52:	441e      	add	r6, r3
 8002e54:	f8c7 6210 	str.w	r6, [r7, #528]	; 0x210
      }
      USB_UNMASK_INTERRUPT(hpcd->Instance, USB_OTG_GINTSTS_RXFLVL);
 8002e58:	6822      	ldr	r2, [r4, #0]
 8002e5a:	6993      	ldr	r3, [r2, #24]
 8002e5c:	f043 0310 	orr.w	r3, r3, #16
 8002e60:	6193      	str	r3, [r2, #24]
    }
    
    /* Handle SOF Interrupt */
    if(__HAL_PCD_GET_FLAG(hpcd, USB_OTG_GINTSTS_SOF))
 8002e62:	6820      	ldr	r0, [r4, #0]
 8002e64:	f001 fbed 	bl	8004642 <USB_ReadInterrupts>
 8002e68:	0707      	lsls	r7, r0, #28
 8002e6a:	d507      	bpl.n	8002e7c <HAL_PCD_IRQHandler+0x204>
    {
      HAL_PCD_SOFCallback(hpcd);
 8002e6c:	4620      	mov	r0, r4
 8002e6e:	f001 fe3c 	bl	8004aea <HAL_PCD_SOFCallback>
      __HAL_PCD_CLEAR_FLAG(hpcd, USB_OTG_GINTSTS_SOF);
 8002e72:	6822      	ldr	r2, [r4, #0]
 8002e74:	6953      	ldr	r3, [r2, #20]
 8002e76:	f003 0308 	and.w	r3, r3, #8
 8002e7a:	6153      	str	r3, [r2, #20]
    }
    
    /* Handle Incomplete ISO IN Interrupt */
    if(__HAL_PCD_GET_FLAG(hpcd, USB_OTG_GINTSTS_IISOIXFR))
 8002e7c:	6820      	ldr	r0, [r4, #0]
 8002e7e:	f001 fbe0 	bl	8004642 <USB_ReadInterrupts>
 8002e82:	02c6      	lsls	r6, r0, #11
 8002e84:	d508      	bpl.n	8002e98 <HAL_PCD_IRQHandler+0x220>
    {
      HAL_PCD_ISOINIncompleteCallback(hpcd, epnum);
 8002e86:	b2e9      	uxtb	r1, r5
 8002e88:	4620      	mov	r0, r4
 8002e8a:	f001 fe63 	bl	8004b54 <HAL_PCD_ISOINIncompleteCallback>
      __HAL_PCD_CLEAR_FLAG(hpcd, USB_OTG_GINTSTS_IISOIXFR);
 8002e8e:	6822      	ldr	r2, [r4, #0]
 8002e90:	6953      	ldr	r3, [r2, #20]
 8002e92:	f403 1380 	and.w	r3, r3, #1048576	; 0x100000
 8002e96:	6153      	str	r3, [r2, #20]
    } 
    
    /* Handle Incomplete ISO OUT Interrupt */
    if(__HAL_PCD_GET_FLAG(hpcd, USB_OTG_GINTSTS_PXFR_INCOMPISOOUT))
 8002e98:	6820      	ldr	r0, [r4, #0]
 8002e9a:	f001 fbd2 	bl	8004642 <USB_ReadInterrupts>
 8002e9e:	0280      	lsls	r0, r0, #10
 8002ea0:	d508      	bpl.n	8002eb4 <HAL_PCD_IRQHandler+0x23c>
    {
      HAL_PCD_ISOOUTIncompleteCallback(hpcd, epnum);
 8002ea2:	b2e9      	uxtb	r1, r5
 8002ea4:	4620      	mov	r0, r4
 8002ea6:	f001 fe51 	bl	8004b4c <HAL_PCD_ISOOUTIncompleteCallback>
      __HAL_PCD_CLEAR_FLAG(hpcd, USB_OTG_GINTSTS_PXFR_INCOMPISOOUT);
 8002eaa:	6822      	ldr	r2, [r4, #0]
 8002eac:	6953      	ldr	r3, [r2, #20]
 8002eae:	f403 1300 	and.w	r3, r3, #2097152	; 0x200000
 8002eb2:	6153      	str	r3, [r2, #20]
    } 
    
    /* Handle Connection event Interrupt */
    if(__HAL_PCD_GET_FLAG(hpcd, USB_OTG_GINTSTS_SRQINT))
 8002eb4:	6820      	ldr	r0, [r4, #0]
 8002eb6:	f001 fbc4 	bl	8004642 <USB_ReadInterrupts>
 8002eba:	0041      	lsls	r1, r0, #1
 8002ebc:	d507      	bpl.n	8002ece <HAL_PCD_IRQHandler+0x256>
    {
      HAL_PCD_ConnectCallback(hpcd);
 8002ebe:	4620      	mov	r0, r4
 8002ec0:	f001 fe4c 	bl	8004b5c <HAL_PCD_ConnectCallback>
      __HAL_PCD_CLEAR_FLAG(hpcd, USB_OTG_GINTSTS_SRQINT);
 8002ec4:	6822      	ldr	r2, [r4, #0]
 8002ec6:	6953      	ldr	r3, [r2, #20]
 8002ec8:	f003 4380 	and.w	r3, r3, #1073741824	; 0x40000000
 8002ecc:	6153      	str	r3, [r2, #20]
    } 
    
    /* Handle Disconnection event Interrupt */
    if(__HAL_PCD_GET_FLAG(hpcd, USB_OTG_GINTSTS_OTGINT))
 8002ece:	6820      	ldr	r0, [r4, #0]
 8002ed0:	f001 fbb7 	bl	8004642 <USB_ReadInterrupts>
 8002ed4:	0742      	lsls	r2, r0, #29
 8002ed6:	d50a      	bpl.n	8002eee <HAL_PCD_IRQHandler+0x276>
    {
      temp = hpcd->Instance->GOTGINT;
 8002ed8:	6823      	ldr	r3, [r4, #0]
 8002eda:	685d      	ldr	r5, [r3, #4]
      
      if((temp & USB_OTG_GOTGINT_SEDET) == USB_OTG_GOTGINT_SEDET)
 8002edc:	076b      	lsls	r3, r5, #29
 8002ede:	d502      	bpl.n	8002ee6 <HAL_PCD_IRQHandler+0x26e>
      {
        HAL_PCD_DisconnectCallback(hpcd);
 8002ee0:	4620      	mov	r0, r4
 8002ee2:	f001 fe3f 	bl	8004b64 <HAL_PCD_DisconnectCallback>
      }
      hpcd->Instance->GOTGINT |= temp;
 8002ee6:	6823      	ldr	r3, [r4, #0]
 8002ee8:	685a      	ldr	r2, [r3, #4]
 8002eea:	4315      	orrs	r5, r2
 8002eec:	605d      	str	r5, [r3, #4]
    }
  }
}
 8002eee:	b007      	add	sp, #28
 8002ef0:	e8bd 8ff0 	ldmia.w	sp!, {r4, r5, r6, r7, r8, r9, sl, fp, pc}
        if (ep_intr & 0x1U)
 8002ef4:	07f8      	lsls	r0, r7, #31
 8002ef6:	d538      	bpl.n	8002f6a <HAL_PCD_IRQHandler+0x2f2>
          epint = USB_ReadDevOutEPInterrupt(hpcd->Instance, epnum);
 8002ef8:	fa5f fb85 	uxtb.w	fp, r5
 8002efc:	4659      	mov	r1, fp
 8002efe:	6820      	ldr	r0, [r4, #0]
 8002f00:	f001 fbb3 	bl	800466a <USB_ReadDevOutEPInterrupt>
          if(( epint & USB_OTG_DOEPINT_XFRC) == USB_OTG_DOEPINT_XFRC)
 8002f04:	f010 0f01 	tst.w	r0, #1
          epint = USB_ReadDevOutEPInterrupt(hpcd->Instance, epnum);
 8002f08:	4680      	mov	r8, r0
          if(( epint & USB_OTG_DOEPINT_XFRC) == USB_OTG_DOEPINT_XFRC)
 8002f0a:	d021      	beq.n	8002f50 <HAL_PCD_IRQHandler+0x2d8>
            if(hpcd->Init.dma_enable == 1U)
 8002f0c:	6921      	ldr	r1, [r4, #16]
            CLEAR_OUT_EP_INTR(epnum, USB_OTG_DOEPINT_XFRC);
 8002f0e:	2301      	movs	r3, #1
            if(hpcd->Init.dma_enable == 1U)
 8002f10:	4299      	cmp	r1, r3
            CLEAR_OUT_EP_INTR(epnum, USB_OTG_DOEPINT_XFRC);
 8002f12:	60b3      	str	r3, [r6, #8]
            if(hpcd->Init.dma_enable == 1U)
 8002f14:	d10c      	bne.n	8002f30 <HAL_PCD_IRQHandler+0x2b8>
              hpcd->OUT_ep[epnum].xfer_count = hpcd->OUT_ep[epnum].maxpacket- (USBx_OUTEP(epnum)->DOEPTSIZ & USB_OTG_DOEPTSIZ_XFRSIZ); 
 8002f16:	6931      	ldr	r1, [r6, #16]
 8002f18:	f8da 0200 	ldr.w	r0, [sl, #512]	; 0x200
 8002f1c:	f3c1 0112 	ubfx	r1, r1, #0, #19
 8002f20:	1a41      	subs	r1, r0, r1
 8002f22:	f8ca 1210 	str.w	r1, [sl, #528]	; 0x210
              hpcd->OUT_ep[epnum].xfer_buff += hpcd->OUT_ep[epnum].maxpacket;            
 8002f26:	f8da 1204 	ldr.w	r1, [sl, #516]	; 0x204
 8002f2a:	4408      	add	r0, r1
 8002f2c:	f8ca 0204 	str.w	r0, [sl, #516]	; 0x204
            HAL_PCD_DataOutStageCallback(hpcd, epnum);
 8002f30:	4659      	mov	r1, fp
 8002f32:	4620      	mov	r0, r4
 8002f34:	f001 fdc8 	bl	8004ac8 <HAL_PCD_DataOutStageCallback>
            if(hpcd->Init.dma_enable == 1U)
 8002f38:	6921      	ldr	r1, [r4, #16]
 8002f3a:	2901      	cmp	r1, #1
 8002f3c:	d108      	bne.n	8002f50 <HAL_PCD_IRQHandler+0x2d8>
              if((epnum == 0U) && (hpcd->OUT_ep[epnum].xfer_len == 0U))
 8002f3e:	b93d      	cbnz	r5, 8002f50 <HAL_PCD_IRQHandler+0x2d8>
 8002f40:	f8d4 220c 	ldr.w	r2, [r4, #524]	; 0x20c
 8002f44:	b922      	cbnz	r2, 8002f50 <HAL_PCD_IRQHandler+0x2d8>
                USB_EP0_OutStart(hpcd->Instance, 1U, (uint8_t *)hpcd->Setup);
 8002f46:	f504 726f 	add.w	r2, r4, #956	; 0x3bc
 8002f4a:	6820      	ldr	r0, [r4, #0]
 8002f4c:	f001 fbc6 	bl	80046dc <USB_EP0_OutStart>
          if(( epint & USB_OTG_DOEPINT_STUP) == USB_OTG_DOEPINT_STUP)
 8002f50:	f018 0f08 	tst.w	r8, #8
 8002f54:	d004      	beq.n	8002f60 <HAL_PCD_IRQHandler+0x2e8>
            HAL_PCD_SetupStageCallback(hpcd);
 8002f56:	4620      	mov	r0, r4
 8002f58:	f001 fdb0 	bl	8004abc <HAL_PCD_SetupStageCallback>
            CLEAR_OUT_EP_INTR(epnum, USB_OTG_DOEPINT_STUP);
 8002f5c:	2308      	movs	r3, #8
 8002f5e:	60b3      	str	r3, [r6, #8]
          if(( epint & USB_OTG_DOEPINT_OTEPDIS) == USB_OTG_DOEPINT_OTEPDIS)
 8002f60:	f018 0f10 	tst.w	r8, #16
            CLEAR_OUT_EP_INTR(epnum, USB_OTG_DOEPINT_OTEPDIS);
 8002f64:	bf1c      	itt	ne
 8002f66:	2310      	movne	r3, #16
 8002f68:	60b3      	strne	r3, [r6, #8]
        epnum++;
 8002f6a:	3501      	adds	r5, #1
        ep_intr >>= 1U;
 8002f6c:	087f      	lsrs	r7, r7, #1
 8002f6e:	3620      	adds	r6, #32
 8002f70:	f10a 0a1c 	add.w	sl, sl, #28
 8002f74:	e6ac      	b.n	8002cd0 <HAL_PCD_IRQHandler+0x58>
        if (ep_intr & 0x1U) /* In ITR */
 8002f76:	9b03      	ldr	r3, [sp, #12]
 8002f78:	07da      	lsls	r2, r3, #31
 8002f7a:	d558      	bpl.n	800302e <HAL_PCD_IRQHandler+0x3b6>
          epint = USB_ReadDevInEPInterrupt(hpcd->Instance, epnum);
 8002f7c:	fa5f fb85 	uxtb.w	fp, r5
 8002f80:	4659      	mov	r1, fp
 8002f82:	6820      	ldr	r0, [r4, #0]
 8002f84:	f001 fb7b 	bl	800467e <USB_ReadDevInEPInterrupt>
           if(( epint & USB_OTG_DIEPINT_XFRC) == USB_OTG_DIEPINT_XFRC)
 8002f88:	07c3      	lsls	r3, r0, #31
          epint = USB_ReadDevInEPInterrupt(hpcd->Instance, epnum);
 8002f8a:	4607      	mov	r7, r0
           if(( epint & USB_OTG_DIEPINT_XFRC) == USB_OTG_DIEPINT_XFRC)
 8002f8c:	d520      	bpl.n	8002fd0 <HAL_PCD_IRQHandler+0x358>
            USBx_DEVICE->DIEPEMPMSK &= ~fifoemptymsk;
 8002f8e:	f8d9 3834 	ldr.w	r3, [r9, #2100]	; 0x834
            fifoemptymsk = 0x1U << epnum;
 8002f92:	2101      	movs	r1, #1
 8002f94:	40a9      	lsls	r1, r5
            USBx_DEVICE->DIEPEMPMSK &= ~fifoemptymsk;
 8002f96:	ea23 0301 	bic.w	r3, r3, r1
 8002f9a:	f8c9 3834 	str.w	r3, [r9, #2100]	; 0x834
            CLEAR_IN_EP_INTR(epnum, USB_OTG_DIEPINT_XFRC);
 8002f9e:	2301      	movs	r3, #1
 8002fa0:	f8c8 3008 	str.w	r3, [r8, #8]
            if (hpcd->Init.dma_enable == 1U)
 8002fa4:	6923      	ldr	r3, [r4, #16]
 8002fa6:	2b01      	cmp	r3, #1
              hpcd->IN_ep[epnum].xfer_buff += hpcd->IN_ep[epnum].maxpacket; 
 8002fa8:	bf01      	itttt	eq
 8002faa:	6c73      	ldreq	r3, [r6, #68]	; 0x44
 8002fac:	6c32      	ldreq	r2, [r6, #64]	; 0x40
 8002fae:	189b      	addeq	r3, r3, r2
 8002fb0:	6473      	streq	r3, [r6, #68]	; 0x44
            HAL_PCD_DataInStageCallback(hpcd, epnum);
 8002fb2:	4659      	mov	r1, fp
 8002fb4:	4620      	mov	r0, r4
 8002fb6:	f001 fd90 	bl	8004ada <HAL_PCD_DataInStageCallback>
            if (hpcd->Init.dma_enable == 1U)
 8002fba:	6921      	ldr	r1, [r4, #16]
 8002fbc:	2901      	cmp	r1, #1
 8002fbe:	d107      	bne.n	8002fd0 <HAL_PCD_IRQHandler+0x358>
              if((epnum == 0U) && (hpcd->IN_ep[epnum].xfer_len == 0U))
 8002fc0:	b935      	cbnz	r5, 8002fd0 <HAL_PCD_IRQHandler+0x358>
 8002fc2:	6ce3      	ldr	r3, [r4, #76]	; 0x4c
 8002fc4:	b923      	cbnz	r3, 8002fd0 <HAL_PCD_IRQHandler+0x358>
                USB_EP0_OutStart(hpcd->Instance, 1U, (uint8_t *)hpcd->Setup);
 8002fc6:	f504 726f 	add.w	r2, r4, #956	; 0x3bc
 8002fca:	6820      	ldr	r0, [r4, #0]
 8002fcc:	f001 fb86 	bl	80046dc <USB_EP0_OutStart>
           if(( epint & USB_OTG_DIEPINT_TOC) == USB_OTG_DIEPINT_TOC)
 8002fd0:	0738      	lsls	r0, r7, #28
            CLEAR_IN_EP_INTR(epnum, USB_OTG_DIEPINT_TOC);
 8002fd2:	bf44      	itt	mi
 8002fd4:	2308      	movmi	r3, #8
 8002fd6:	f8c8 3008 	strmi.w	r3, [r8, #8]
          if(( epint & USB_OTG_DIEPINT_ITTXFE) == USB_OTG_DIEPINT_ITTXFE)
 8002fda:	06f9      	lsls	r1, r7, #27
            CLEAR_IN_EP_INTR(epnum, USB_OTG_DIEPINT_ITTXFE);
 8002fdc:	bf44      	itt	mi
 8002fde:	2310      	movmi	r3, #16
 8002fe0:	f8c8 3008 	strmi.w	r3, [r8, #8]
          if(( epint & USB_OTG_DIEPINT_INEPNE) == USB_OTG_DIEPINT_INEPNE)
 8002fe4:	067a      	lsls	r2, r7, #25
            CLEAR_IN_EP_INTR(epnum, USB_OTG_DIEPINT_INEPNE);
 8002fe6:	bf44      	itt	mi
 8002fe8:	2340      	movmi	r3, #64	; 0x40
 8002fea:	f8c8 3008 	strmi.w	r3, [r8, #8]
          if(( epint & USB_OTG_DIEPINT_EPDISD) == USB_OTG_DIEPINT_EPDISD)
 8002fee:	07bb      	lsls	r3, r7, #30
            CLEAR_IN_EP_INTR(epnum, USB_OTG_DIEPINT_EPDISD);
 8002ff0:	bf44      	itt	mi
 8002ff2:	2302      	movmi	r3, #2
 8002ff4:	f8c8 3008 	strmi.w	r3, [r8, #8]
          if(( epint & USB_OTG_DIEPINT_TXFE) == USB_OTG_DIEPINT_TXFE)
 8002ff8:	063f      	lsls	r7, r7, #24
 8002ffa:	d518      	bpl.n	800302e <HAL_PCD_IRQHandler+0x3b6>
  * @param  epnum  endpoint number   
  * @retval HAL status
  */
static HAL_StatusTypeDef PCD_WriteEmptyTxFifo(PCD_HandleTypeDef *hpcd, uint32_t epnum)
{
  USB_OTG_GlobalTypeDef *USBx = hpcd->Instance;  
 8002ffc:	6823      	ldr	r3, [r4, #0]
 8002ffe:	9304      	str	r3, [sp, #16]
  int32_t len = 0U;
  uint32_t len32b;
  uint32_t fifoemptymsk = 0U;

  ep = &hpcd->IN_ep[epnum];
  len = ep->xfer_len - ep->xfer_count;
 8003000:	6cf7      	ldr	r7, [r6, #76]	; 0x4c
 8003002:	6d33      	ldr	r3, [r6, #80]	; 0x50
 8003004:	1aff      	subs	r7, r7, r3
 8003006:	6c33      	ldr	r3, [r6, #64]	; 0x40
 8003008:	429f      	cmp	r7, r3
 800300a:	bf28      	it	cs
 800300c:	461f      	movcs	r7, r3
  }
  
  
  len32b = (len + 3U) / 4U;
 
  while  (((USBx_INEP(epnum)->DTXFSTS & USB_OTG_DTXFSTS_INEPTFSAV) > len32b) &&
 800300e:	9b04      	ldr	r3, [sp, #16]
 8003010:	f503 6310 	add.w	r3, r3, #2304	; 0x900
  len32b = (len + 3U) / 4U;
 8003014:	f107 0a03 	add.w	sl, r7, #3
  while  (((USBx_INEP(epnum)->DTXFSTS & USB_OTG_DTXFSTS_INEPTFSAV) > len32b) &&
 8003018:	eb03 1345 	add.w	r3, r3, r5, lsl #5
  len32b = (len + 3U) / 4U;
 800301c:	ea4f 0a9a 	mov.w	sl, sl, lsr #2
  while  (((USBx_INEP(epnum)->DTXFSTS & USB_OTG_DTXFSTS_INEPTFSAV) > len32b) &&
 8003020:	9305      	str	r3, [sp, #20]
 8003022:	9b05      	ldr	r3, [sp, #20]
 8003024:	699b      	ldr	r3, [r3, #24]
 8003026:	b29b      	uxth	r3, r3
 8003028:	4553      	cmp	r3, sl
 800302a:	d808      	bhi.n	800303e <HAL_PCD_IRQHandler+0x3c6>
    
    ep->xfer_buff  += len;
    ep->xfer_count += len;
  }
  
  if(len <= 0U)
 800302c:	b32f      	cbz	r7, 800307a <HAL_PCD_IRQHandler+0x402>
        ep_intr >>= 1U;
 800302e:	9b03      	ldr	r3, [sp, #12]
 8003030:	085b      	lsrs	r3, r3, #1
        epnum++;
 8003032:	3501      	adds	r5, #1
        ep_intr >>= 1U;
 8003034:	9303      	str	r3, [sp, #12]
 8003036:	361c      	adds	r6, #28
 8003038:	f108 0820 	add.w	r8, r8, #32
 800303c:	e658      	b.n	8002cf0 <HAL_PCD_IRQHandler+0x78>
          (ep->xfer_count < ep->xfer_len) &&
 800303e:	6d32      	ldr	r2, [r6, #80]	; 0x50
 8003040:	6cf3      	ldr	r3, [r6, #76]	; 0x4c
  while  (((USBx_INEP(epnum)->DTXFSTS & USB_OTG_DTXFSTS_INEPTFSAV) > len32b) &&
 8003042:	4293      	cmp	r3, r2
 8003044:	d9f2      	bls.n	800302c <HAL_PCD_IRQHandler+0x3b4>
          (ep->xfer_count < ep->xfer_len) &&
 8003046:	2b00      	cmp	r3, #0
 8003048:	d0f0      	beq.n	800302c <HAL_PCD_IRQHandler+0x3b4>
 800304a:	6c37      	ldr	r7, [r6, #64]	; 0x40
    USB_WritePacket(USBx, ep->xfer_buff, epnum, len, hpcd->Init.dma_enable); 
 800304c:	9804      	ldr	r0, [sp, #16]
    len = ep->xfer_len - ep->xfer_count;
 800304e:	1a9b      	subs	r3, r3, r2
 8003050:	429f      	cmp	r7, r3
 8003052:	bf28      	it	cs
 8003054:	461f      	movcs	r7, r3
    USB_WritePacket(USBx, ep->xfer_buff, epnum, len, hpcd->Init.dma_enable); 
 8003056:	7c23      	ldrb	r3, [r4, #16]
 8003058:	9300      	str	r3, [sp, #0]
 800305a:	465a      	mov	r2, fp
 800305c:	b2bb      	uxth	r3, r7
 800305e:	6c71      	ldr	r1, [r6, #68]	; 0x44
 8003060:	f001 fa6d 	bl	800453e <USB_WritePacket>
    ep->xfer_buff  += len;
 8003064:	6c73      	ldr	r3, [r6, #68]	; 0x44
 8003066:	443b      	add	r3, r7
 8003068:	6473      	str	r3, [r6, #68]	; 0x44
    ep->xfer_count += len;
 800306a:	6d33      	ldr	r3, [r6, #80]	; 0x50
    len32b = (len + 3U) / 4U;
 800306c:	f107 0a03 	add.w	sl, r7, #3
    ep->xfer_count += len;
 8003070:	443b      	add	r3, r7
    len32b = (len + 3U) / 4U;
 8003072:	ea4f 0a9a 	mov.w	sl, sl, lsr #2
    ep->xfer_count += len;
 8003076:	6533      	str	r3, [r6, #80]	; 0x50
 8003078:	e7d3      	b.n	8003022 <HAL_PCD_IRQHandler+0x3aa>
  {
    fifoemptymsk = 0x1U << epnum;
    USBx_DEVICE->DIEPEMPMSK &= ~fifoemptymsk;
 800307a:	9b04      	ldr	r3, [sp, #16]
    fifoemptymsk = 0x1U << epnum;
 800307c:	2201      	movs	r2, #1
    USBx_DEVICE->DIEPEMPMSK &= ~fifoemptymsk;
 800307e:	f503 6b00 	add.w	fp, r3, #2048	; 0x800
 8003082:	f8d3 3834 	ldr.w	r3, [r3, #2100]	; 0x834
    fifoemptymsk = 0x1U << epnum;
 8003086:	40aa      	lsls	r2, r5
    USBx_DEVICE->DIEPEMPMSK &= ~fifoemptymsk;
 8003088:	ea23 0302 	bic.w	r3, r3, r2
 800308c:	f8cb 3034 	str.w	r3, [fp, #52]	; 0x34
 8003090:	e7cd      	b.n	800302e <HAL_PCD_IRQHandler+0x3b6>
      for (i = 0U; i < hpcd->Init.dev_endpoints; i++)
 8003092:	9802      	ldr	r0, [sp, #8]
        USBx_INEP(i)->DIEPINT = 0xFFU;
 8003094:	609a      	str	r2, [r3, #8]
      for (i = 0U; i < hpcd->Init.dev_endpoints; i++)
 8003096:	3001      	adds	r0, #1
        USBx_OUTEP(i)->DOEPINT = 0xFFU;
 8003098:	f8c3 2208 	str.w	r2, [r3, #520]	; 0x208
      for (i = 0U; i < hpcd->Init.dev_endpoints; i++)
 800309c:	9002      	str	r0, [sp, #8]
 800309e:	3320      	adds	r3, #32
 80030a0:	e661      	b.n	8002d66 <HAL_PCD_IRQHandler+0xee>
        USBx_DEVICE->DOEPMSK |= (USB_OTG_DOEPMSK_STUPM | USB_OTG_DOEPMSK_XFRCM | USB_OTG_DOEPMSK_EPDM);
 80030a2:	6973      	ldr	r3, [r6, #20]
 80030a4:	f043 030b 	orr.w	r3, r3, #11
 80030a8:	6173      	str	r3, [r6, #20]
        USBx_DEVICE->DIEPMSK |= (USB_OTG_DIEPMSK_TOM | USB_OTG_DIEPMSK_XFRCM | USB_OTG_DIEPMSK_EPDM);
 80030aa:	6933      	ldr	r3, [r6, #16]
 80030ac:	f043 030b 	orr.w	r3, r3, #11
 80030b0:	6133      	str	r3, [r6, #16]
 80030b2:	e671      	b.n	8002d98 <HAL_PCD_IRQHandler+0x120>
        hpcd->Init.speed            = USB_OTG_SPEED_FULL;
 80030b4:	2303      	movs	r3, #3
 80030b6:	60e3      	str	r3, [r4, #12]
        hpcd->Init.ep0_mps          = USB_OTG_FS_MAX_PACKET_SIZE ;  
 80030b8:	2340      	movs	r3, #64	; 0x40
 80030ba:	6163      	str	r3, [r4, #20]
        hclk = HAL_RCC_GetHCLKFreq();
 80030bc:	f000 fc44 	bl	8003948 <HAL_RCC_GetHCLKFreq>
        if((hclk >= 14200000U)&&(hclk < 15000000U))
 80030c0:	4b34      	ldr	r3, [pc, #208]	; (8003194 <HAL_PCD_IRQHandler+0x51c>)
 80030c2:	4a35      	ldr	r2, [pc, #212]	; (8003198 <HAL_PCD_IRQHandler+0x520>)
 80030c4:	4403      	add	r3, r0
 80030c6:	4293      	cmp	r3, r2
 80030c8:	6823      	ldr	r3, [r4, #0]
 80030ca:	d804      	bhi.n	80030d6 <HAL_PCD_IRQHandler+0x45e>
          hpcd->Instance->GUSBCFG |= (uint32_t)((0xFU << 10U) & USB_OTG_GUSBCFG_TRDT);
 80030cc:	68da      	ldr	r2, [r3, #12]
 80030ce:	f442 5270 	orr.w	r2, r2, #15360	; 0x3c00
          hpcd->Instance->GUSBCFG |= (uint32_t)((0x6U << 10U) & USB_OTG_GUSBCFG_TRDT);
 80030d2:	60da      	str	r2, [r3, #12]
 80030d4:	e68c      	b.n	8002df0 <HAL_PCD_IRQHandler+0x178>
        else if((hclk >= 15000000U)&&(hclk < 16000000U))
 80030d6:	4a31      	ldr	r2, [pc, #196]	; (800319c <HAL_PCD_IRQHandler+0x524>)
 80030d8:	4931      	ldr	r1, [pc, #196]	; (80031a0 <HAL_PCD_IRQHandler+0x528>)
 80030da:	4402      	add	r2, r0
 80030dc:	428a      	cmp	r2, r1
 80030de:	d803      	bhi.n	80030e8 <HAL_PCD_IRQHandler+0x470>
          hpcd->Instance->GUSBCFG |= (uint32_t)((0xEU << 10U) & USB_OTG_GUSBCFG_TRDT);
 80030e0:	68da      	ldr	r2, [r3, #12]
 80030e2:	f442 5260 	orr.w	r2, r2, #14336	; 0x3800
 80030e6:	e7f4      	b.n	80030d2 <HAL_PCD_IRQHandler+0x45a>
        else if((hclk >= 16000000U)&&(hclk < 17200000U))
 80030e8:	f5a0 0274 	sub.w	r2, r0, #15990784	; 0xf40000
 80030ec:	492d      	ldr	r1, [pc, #180]	; (80031a4 <HAL_PCD_IRQHandler+0x52c>)
 80030ee:	f5a2 5210 	sub.w	r2, r2, #9216	; 0x2400
 80030f2:	428a      	cmp	r2, r1
 80030f4:	d803      	bhi.n	80030fe <HAL_PCD_IRQHandler+0x486>
          hpcd->Instance->GUSBCFG |= (uint32_t)((0xDU << 10U) & USB_OTG_GUSBCFG_TRDT);
 80030f6:	68da      	ldr	r2, [r3, #12]
 80030f8:	f442 5250 	orr.w	r2, r2, #13312	; 0x3400
 80030fc:	e7e9      	b.n	80030d2 <HAL_PCD_IRQHandler+0x45a>
        else if((hclk >= 17200000U)&&(hclk < 18500000U))
 80030fe:	f1a0 7283 	sub.w	r2, r0, #17170432	; 0x1060000
 8003102:	4929      	ldr	r1, [pc, #164]	; (80031a8 <HAL_PCD_IRQHandler+0x530>)
 8003104:	f5a2 42e7 	sub.w	r2, r2, #29568	; 0x7380
 8003108:	428a      	cmp	r2, r1
 800310a:	d803      	bhi.n	8003114 <HAL_PCD_IRQHandler+0x49c>
          hpcd->Instance->GUSBCFG |= (uint32_t)((0xCU << 10U) & USB_OTG_GUSBCFG_TRDT);
 800310c:	68da      	ldr	r2, [r3, #12]
 800310e:	f442 5240 	orr.w	r2, r2, #12288	; 0x3000
 8003112:	e7de      	b.n	80030d2 <HAL_PCD_IRQHandler+0x45a>
        else if((hclk >= 18500000U)&&(hclk < 20000000U))
 8003114:	4a25      	ldr	r2, [pc, #148]	; (80031ac <HAL_PCD_IRQHandler+0x534>)
 8003116:	4926      	ldr	r1, [pc, #152]	; (80031b0 <HAL_PCD_IRQHandler+0x538>)
 8003118:	4402      	add	r2, r0
 800311a:	428a      	cmp	r2, r1
 800311c:	d803      	bhi.n	8003126 <HAL_PCD_IRQHandler+0x4ae>
          hpcd->Instance->GUSBCFG |= (uint32_t)((0xBU << 10U) & USB_OTG_GUSBCFG_TRDT);
 800311e:	68da      	ldr	r2, [r3, #12]
 8003120:	f442 5230 	orr.w	r2, r2, #11264	; 0x2c00
 8003124:	e7d5      	b.n	80030d2 <HAL_PCD_IRQHandler+0x45a>
        else if((hclk >= 20000000U)&&(hclk < 21800000U))
 8003126:	4a23      	ldr	r2, [pc, #140]	; (80031b4 <HAL_PCD_IRQHandler+0x53c>)
 8003128:	4923      	ldr	r1, [pc, #140]	; (80031b8 <HAL_PCD_IRQHandler+0x540>)
 800312a:	4402      	add	r2, r0
 800312c:	428a      	cmp	r2, r1
 800312e:	d803      	bhi.n	8003138 <HAL_PCD_IRQHandler+0x4c0>
          hpcd->Instance->GUSBCFG |= (uint32_t)((0xAU << 10U) & USB_OTG_GUSBCFG_TRDT);
 8003130:	68da      	ldr	r2, [r3, #12]
 8003132:	f442 5220 	orr.w	r2, r2, #10240	; 0x2800
 8003136:	e7cc      	b.n	80030d2 <HAL_PCD_IRQHandler+0x45a>
        else if((hclk >= 21800000U)&&(hclk < 24000000U))
 8003138:	4a20      	ldr	r2, [pc, #128]	; (80031bc <HAL_PCD_IRQHandler+0x544>)
 800313a:	4921      	ldr	r1, [pc, #132]	; (80031c0 <HAL_PCD_IRQHandler+0x548>)
 800313c:	4402      	add	r2, r0
 800313e:	428a      	cmp	r2, r1
 8003140:	d803      	bhi.n	800314a <HAL_PCD_IRQHandler+0x4d2>
          hpcd->Instance->GUSBCFG |= (uint32_t)((0x9U << 10U) & USB_OTG_GUSBCFG_TRDT);
 8003142:	68da      	ldr	r2, [r3, #12]
 8003144:	f442 5210 	orr.w	r2, r2, #9216	; 0x2400
 8003148:	e7c3      	b.n	80030d2 <HAL_PCD_IRQHandler+0x45a>
        else if((hclk >= 24000000U)&&(hclk < 27700000U))
 800314a:	f1a0 72b7 	sub.w	r2, r0, #23986176	; 0x16e0000
 800314e:	491d      	ldr	r1, [pc, #116]	; (80031c4 <HAL_PCD_IRQHandler+0x54c>)
 8003150:	f5a2 5258 	sub.w	r2, r2, #13824	; 0x3600
 8003154:	428a      	cmp	r2, r1
 8003156:	d803      	bhi.n	8003160 <HAL_PCD_IRQHandler+0x4e8>
          hpcd->Instance->GUSBCFG |= (uint32_t)((0x8U << 10U) & USB_OTG_GUSBCFG_TRDT);
 8003158:	68da      	ldr	r2, [r3, #12]
 800315a:	f442 5200 	orr.w	r2, r2, #8192	; 0x2000
 800315e:	e7b8      	b.n	80030d2 <HAL_PCD_IRQHandler+0x45a>
        else if((hclk >= 27700000U)&&(hclk < 32000000U))
 8003160:	4a19      	ldr	r2, [pc, #100]	; (80031c8 <HAL_PCD_IRQHandler+0x550>)
 8003162:	491a      	ldr	r1, [pc, #104]	; (80031cc <HAL_PCD_IRQHandler+0x554>)
 8003164:	4402      	add	r2, r0
 8003166:	428a      	cmp	r2, r1
          hpcd->Instance->GUSBCFG |= (uint32_t)((0x7U << 10U) & USB_OTG_GUSBCFG_TRDT);
 8003168:	68da      	ldr	r2, [r3, #12]
 800316a:	bf94      	ite	ls
 800316c:	f442 52e0 	orrls.w	r2, r2, #7168	; 0x1c00
          hpcd->Instance->GUSBCFG |= (uint32_t)((0x6U << 10U) & USB_OTG_GUSBCFG_TRDT);
 8003170:	f442 52c0 	orrhi.w	r2, r2, #6144	; 0x1800
 8003174:	e7ad      	b.n	80030d2 <HAL_PCD_IRQHandler+0x45a>
      else if (((temp & USB_OTG_GRXSTSP_PKTSTS) >> 17U) ==  STS_SETUP_UPDT)
 8003176:	2b06      	cmp	r3, #6
 8003178:	f47f ae6e 	bne.w	8002e58 <HAL_PCD_IRQHandler+0x1e0>
        USB_ReadPacket(USBx, (uint8_t *)hpcd->Setup, 8U);
 800317c:	2208      	movs	r2, #8
 800317e:	f504 716f 	add.w	r1, r4, #956	; 0x3bc
 8003182:	4648      	mov	r0, r9
        ep->xfer_count += (temp & USB_OTG_GRXSTSP_BCNT) >> 4U;
 8003184:	271c      	movs	r7, #28
        USB_ReadPacket(USBx, (uint8_t *)hpcd->Setup, 8U);
 8003186:	f001 f9ee 	bl	8004566 <USB_ReadPacket>
        ep->xfer_count += (temp & USB_OTG_GRXSTSP_BCNT) >> 4U;
 800318a:	fb07 4708 	mla	r7, r7, r8, r4
 800318e:	f3c6 160a 	ubfx	r6, r6, #4, #11
 8003192:	e65c      	b.n	8002e4e <HAL_PCD_IRQHandler+0x1d6>
 8003194:	ff275340 	.word	0xff275340
 8003198:	000c34ff 	.word	0x000c34ff
 800319c:	ff1b1e40 	.word	0xff1b1e40
 80031a0:	000f423f 	.word	0x000f423f
 80031a4:	00124f7f 	.word	0x00124f7f
 80031a8:	0013d61f 	.word	0x0013d61f
 80031ac:	fee5b660 	.word	0xfee5b660
 80031b0:	0016e35f 	.word	0x0016e35f
 80031b4:	feced300 	.word	0xfeced300
 80031b8:	001b773f 	.word	0x001b773f
 80031bc:	feb35bc0 	.word	0xfeb35bc0
 80031c0:	002191bf 	.word	0x002191bf
 80031c4:	0038751f 	.word	0x0038751f
 80031c8:	fe5954e0 	.word	0xfe5954e0
 80031cc:	00419cdf 	.word	0x00419cdf

080031d0 <HAL_PCD_SetAddress>:
  __HAL_LOCK(hpcd); 
 80031d0:	f890 33b8 	ldrb.w	r3, [r0, #952]	; 0x3b8
 80031d4:	2b01      	cmp	r3, #1
{
 80031d6:	b510      	push	{r4, lr}
 80031d8:	4604      	mov	r4, r0
  __HAL_LOCK(hpcd); 
 80031da:	d009      	beq.n	80031f0 <HAL_PCD_SetAddress+0x20>
 80031dc:	2301      	movs	r3, #1
 80031de:	f880 33b8 	strb.w	r3, [r0, #952]	; 0x3b8
  USB_SetDevAddress(hpcd->Instance, address);
 80031e2:	6800      	ldr	r0, [r0, #0]
 80031e4:	f001 fa05 	bl	80045f2 <USB_SetDevAddress>
  __HAL_UNLOCK(hpcd);   
 80031e8:	2000      	movs	r0, #0
 80031ea:	f884 03b8 	strb.w	r0, [r4, #952]	; 0x3b8
  return HAL_OK;
 80031ee:	bd10      	pop	{r4, pc}
  __HAL_LOCK(hpcd); 
 80031f0:	2002      	movs	r0, #2
}
 80031f2:	bd10      	pop	{r4, pc}

080031f4 <HAL_PCD_EP_Open>:
{
 80031f4:	b570      	push	{r4, r5, r6, lr}
  if ((ep_addr & 0x80) == 0x80)
 80031f6:	b24e      	sxtb	r6, r1
 80031f8:	2e00      	cmp	r6, #0
{
 80031fa:	4604      	mov	r4, r0
 80031fc:	f04f 051c 	mov.w	r5, #28
 8003200:	f001 007f 	and.w	r0, r1, #127	; 0x7f
    ep = &hpcd->IN_ep[ep_addr & 0x7F];
 8003204:	bfb5      	itete	lt
 8003206:	fb05 4100 	mlalt	r1, r5, r0, r4
    ep = &hpcd->OUT_ep[ep_addr & 0x7F];
 800320a:	fb05 4101 	mlage	r1, r5, r1, r4
    ep = &hpcd->IN_ep[ep_addr & 0x7F];
 800320e:	3138      	addlt	r1, #56	; 0x38
    ep = &hpcd->OUT_ep[ep_addr & 0x7F];
 8003210:	f501 71fc 	addge.w	r1, r1, #504	; 0x1f8
  ep->num   = ep_addr & 0x7F;
 8003214:	b2c0      	uxtb	r0, r0
  if (ep->is_in)
 8003216:	2e00      	cmp	r6, #0
    ep->tx_fifo_num = ep->num;
 8003218:	bfb8      	it	lt
 800321a:	80c8      	strhlt	r0, [r1, #6]
  if (ep_type == EP_TYPE_BULK )
 800321c:	2b02      	cmp	r3, #2
  ep->type = ep_type;
 800321e:	70cb      	strb	r3, [r1, #3]
  ep->is_in = (0x80 & ep_addr) != 0;
 8003220:	ea4f 75d6 	mov.w	r5, r6, lsr #31
    ep->data_pid_start = 0U;
 8003224:	bf04      	itt	eq
 8003226:	2300      	moveq	r3, #0
 8003228:	710b      	strbeq	r3, [r1, #4]
  ep->num   = ep_addr & 0x7F;
 800322a:	7008      	strb	r0, [r1, #0]
  ep->is_in = (0x80 & ep_addr) != 0;
 800322c:	704d      	strb	r5, [r1, #1]
  __HAL_LOCK(hpcd); 
 800322e:	f894 33b8 	ldrb.w	r3, [r4, #952]	; 0x3b8
  ep->maxpacket = ep_mps;
 8003232:	608a      	str	r2, [r1, #8]
  __HAL_LOCK(hpcd); 
 8003234:	2b01      	cmp	r3, #1
 8003236:	d009      	beq.n	800324c <HAL_PCD_EP_Open+0x58>
 8003238:	2301      	movs	r3, #1
 800323a:	f884 33b8 	strb.w	r3, [r4, #952]	; 0x3b8
  USB_ActivateEndpoint(hpcd->Instance , ep);
 800323e:	6820      	ldr	r0, [r4, #0]
 8003240:	f000 ffb0 	bl	80041a4 <USB_ActivateEndpoint>
  __HAL_UNLOCK(hpcd);   
 8003244:	2000      	movs	r0, #0
 8003246:	f884 03b8 	strb.w	r0, [r4, #952]	; 0x3b8
  return ret;
 800324a:	bd70      	pop	{r4, r5, r6, pc}
  __HAL_LOCK(hpcd); 
 800324c:	2002      	movs	r0, #2
}
 800324e:	bd70      	pop	{r4, r5, r6, pc}

08003250 <HAL_PCD_EP_Close>:
  if ((ep_addr & 0x80) == 0x80)
 8003250:	b24b      	sxtb	r3, r1
 8003252:	2b00      	cmp	r3, #0
{  
 8003254:	b510      	push	{r4, lr}
 8003256:	f04f 021c 	mov.w	r2, #28
 800325a:	4604      	mov	r4, r0
 800325c:	f001 007f 	and.w	r0, r1, #127	; 0x7f
    ep = &hpcd->IN_ep[ep_addr & 0x7F];
 8003260:	bfb5      	itete	lt
 8003262:	fb02 4100 	mlalt	r1, r2, r0, r4
    ep = &hpcd->OUT_ep[ep_addr & 0x7F];
 8003266:	fb02 4101 	mlage	r1, r2, r1, r4
    ep = &hpcd->IN_ep[ep_addr & 0x7F];
 800326a:	3138      	addlt	r1, #56	; 0x38
    ep = &hpcd->OUT_ep[ep_addr & 0x7F];
 800326c:	f501 71fc 	addge.w	r1, r1, #504	; 0x1f8
  ep->is_in = (0x80 & ep_addr) != 0;
 8003270:	0fdb      	lsrs	r3, r3, #31
  ep->num   = ep_addr & 0x7F;
 8003272:	7008      	strb	r0, [r1, #0]
  ep->is_in = (0x80 & ep_addr) != 0;
 8003274:	704b      	strb	r3, [r1, #1]
  __HAL_LOCK(hpcd); 
 8003276:	f894 33b8 	ldrb.w	r3, [r4, #952]	; 0x3b8
 800327a:	2b01      	cmp	r3, #1
 800327c:	d009      	beq.n	8003292 <HAL_PCD_EP_Close+0x42>
 800327e:	2301      	movs	r3, #1
 8003280:	f884 33b8 	strb.w	r3, [r4, #952]	; 0x3b8
  USB_DeactivateEndpoint(hpcd->Instance , ep);
 8003284:	6820      	ldr	r0, [r4, #0]
 8003286:	f000 ffcc 	bl	8004222 <USB_DeactivateEndpoint>
  __HAL_UNLOCK(hpcd);   
 800328a:	2000      	movs	r0, #0
 800328c:	f884 03b8 	strb.w	r0, [r4, #952]	; 0x3b8
  return HAL_OK;
 8003290:	bd10      	pop	{r4, pc}
  __HAL_LOCK(hpcd); 
 8003292:	2002      	movs	r0, #2
}
 8003294:	bd10      	pop	{r4, pc}

08003296 <HAL_PCD_EP_Receive>:
{
 8003296:	b538      	push	{r3, r4, r5, lr}
 8003298:	f001 057f 	and.w	r5, r1, #127	; 0x7f
  ep = &hpcd->OUT_ep[ep_addr & 0x7F];
 800329c:	241c      	movs	r4, #28
 800329e:	fb04 0105 	mla	r1, r4, r5, r0
  ep->xfer_buff = pBuf;  
 80032a2:	fb04 0405 	mla	r4, r4, r5, r0
  ep = &hpcd->OUT_ep[ep_addr & 0x7F];
 80032a6:	f501 71fc 	add.w	r1, r1, #504	; 0x1f8
  ep->xfer_len = len;
 80032aa:	f8c4 320c 	str.w	r3, [r4, #524]	; 0x20c
  ep->xfer_count = 0U;
 80032ae:	2300      	movs	r3, #0
  ep->xfer_buff = pBuf;  
 80032b0:	f8c4 2204 	str.w	r2, [r4, #516]	; 0x204
  ep->xfer_count = 0U;
 80032b4:	f8c4 3210 	str.w	r3, [r4, #528]	; 0x210
  ep->is_in = 0U;
 80032b8:	f884 31f9 	strb.w	r3, [r4, #505]	; 0x1f9
  ep->num = ep_addr & 0x7F;
 80032bc:	f884 51f8 	strb.w	r5, [r4, #504]	; 0x1f8
  if (hpcd->Init.dma_enable == 1U)
 80032c0:	6903      	ldr	r3, [r0, #16]
    USB_EP0StartXfer(hpcd->Instance , ep, hpcd->Init.dma_enable);
 80032c2:	6800      	ldr	r0, [r0, #0]
  if (hpcd->Init.dma_enable == 1U)
 80032c4:	2b01      	cmp	r3, #1
    ep->dma_addr = (uint32_t)pBuf;  
 80032c6:	bf08      	it	eq
 80032c8:	f8c4 2208 	streq.w	r2, [r4, #520]	; 0x208
 80032cc:	b2da      	uxtb	r2, r3
  if ((ep_addr & 0x7F) == 0)
 80032ce:	b91d      	cbnz	r5, 80032d8 <HAL_PCD_EP_Receive+0x42>
    USB_EP0StartXfer(hpcd->Instance , ep, hpcd->Init.dma_enable);
 80032d0:	f001 f8c8 	bl	8004464 <USB_EP0StartXfer>
}
 80032d4:	2000      	movs	r0, #0
 80032d6:	bd38      	pop	{r3, r4, r5, pc}
    USB_EPStartXfer(hpcd->Instance , ep, hpcd->Init.dma_enable);
 80032d8:	f000 fffe 	bl	80042d8 <USB_EPStartXfer>
 80032dc:	e7fa      	b.n	80032d4 <HAL_PCD_EP_Receive+0x3e>

080032de <HAL_PCD_EP_GetRxCount>:
  return hpcd->OUT_ep[ep_addr & 0xF].xfer_count;
 80032de:	231c      	movs	r3, #28
 80032e0:	f001 010f 	and.w	r1, r1, #15
 80032e4:	fb03 0101 	mla	r1, r3, r1, r0
}
 80032e8:	f8b1 0210 	ldrh.w	r0, [r1, #528]	; 0x210
 80032ec:	4770      	bx	lr

080032ee <HAL_PCD_EP_Transmit>:
{
 80032ee:	b538      	push	{r3, r4, r5, lr}
 80032f0:	f001 057f 	and.w	r5, r1, #127	; 0x7f
  ep = &hpcd->IN_ep[ep_addr & 0x7F];
 80032f4:	241c      	movs	r4, #28
 80032f6:	fb04 0105 	mla	r1, r4, r5, r0
  ep->xfer_buff = pBuf;  
 80032fa:	fb04 0405 	mla	r4, r4, r5, r0
  ep = &hpcd->IN_ep[ep_addr & 0x7F];
 80032fe:	3138      	adds	r1, #56	; 0x38
  ep->xfer_len = len;
 8003300:	64e3      	str	r3, [r4, #76]	; 0x4c
  ep->xfer_count = 0U;
 8003302:	2300      	movs	r3, #0
 8003304:	6523      	str	r3, [r4, #80]	; 0x50
  ep->is_in = 1U;
 8003306:	2301      	movs	r3, #1
  ep->xfer_buff = pBuf;  
 8003308:	6462      	str	r2, [r4, #68]	; 0x44
  ep->is_in = 1U;
 800330a:	f884 3039 	strb.w	r3, [r4, #57]	; 0x39
  ep->num = ep_addr & 0x7F;
 800330e:	f884 5038 	strb.w	r5, [r4, #56]	; 0x38
  if (hpcd->Init.dma_enable == 1U)
 8003312:	6903      	ldr	r3, [r0, #16]
    USB_EP0StartXfer(hpcd->Instance , ep, hpcd->Init.dma_enable);
 8003314:	6800      	ldr	r0, [r0, #0]
  if (hpcd->Init.dma_enable == 1U)
 8003316:	2b01      	cmp	r3, #1
    ep->dma_addr = (uint32_t)pBuf;  
 8003318:	bf08      	it	eq
 800331a:	64a2      	streq	r2, [r4, #72]	; 0x48
 800331c:	b2da      	uxtb	r2, r3
  if ((ep_addr & 0x7F) == 0)
 800331e:	b91d      	cbnz	r5, 8003328 <HAL_PCD_EP_Transmit+0x3a>
    USB_EP0StartXfer(hpcd->Instance , ep, hpcd->Init.dma_enable);
 8003320:	f001 f8a0 	bl	8004464 <USB_EP0StartXfer>
}
 8003324:	2000      	movs	r0, #0
 8003326:	bd38      	pop	{r3, r4, r5, pc}
    USB_EPStartXfer(hpcd->Instance , ep, hpcd->Init.dma_enable);
 8003328:	f000 ffd6 	bl	80042d8 <USB_EPStartXfer>
 800332c:	e7fa      	b.n	8003324 <HAL_PCD_EP_Transmit+0x36>

0800332e <HAL_PCD_EP_SetStall>:
{
 800332e:	b538      	push	{r3, r4, r5, lr}
  if ((0x80 & ep_addr) == 0x80)
 8003330:	b24b      	sxtb	r3, r1
 8003332:	2b00      	cmp	r3, #0
 8003334:	f001 057f 	and.w	r5, r1, #127	; 0x7f
 8003338:	f04f 021c 	mov.w	r2, #28
    ep = &hpcd->IN_ep[ep_addr & 0x7F];
 800333c:	bfb5      	itete	lt
 800333e:	fb02 0105 	mlalt	r1, r2, r5, r0
    ep = &hpcd->OUT_ep[ep_addr];
 8003342:	fb02 0101 	mlage	r1, r2, r1, r0
    ep = &hpcd->IN_ep[ep_addr & 0x7F];
 8003346:	3138      	addlt	r1, #56	; 0x38
    ep = &hpcd->OUT_ep[ep_addr];
 8003348:	f501 71fc 	addge.w	r1, r1, #504	; 0x1f8
  ep->is_stall = 1U;
 800334c:	2201      	movs	r2, #1
  ep->is_in = ((ep_addr & 0x80) == 0x80);
 800334e:	0fdb      	lsrs	r3, r3, #31
  ep->num   = ep_addr & 0x7F;
 8003350:	b2ed      	uxtb	r5, r5
  ep->is_stall = 1U;
 8003352:	708a      	strb	r2, [r1, #2]
  ep->num   = ep_addr & 0x7F;
 8003354:	700d      	strb	r5, [r1, #0]
  ep->is_in = ((ep_addr & 0x80) == 0x80);
 8003356:	704b      	strb	r3, [r1, #1]
  __HAL_LOCK(hpcd); 
 8003358:	f890 33b8 	ldrb.w	r3, [r0, #952]	; 0x3b8
 800335c:	4293      	cmp	r3, r2
{
 800335e:	4604      	mov	r4, r0
  __HAL_LOCK(hpcd); 
 8003360:	d00f      	beq.n	8003382 <HAL_PCD_EP_SetStall+0x54>
 8003362:	f880 23b8 	strb.w	r2, [r0, #952]	; 0x3b8
  USB_EPSetStall(hpcd->Instance , ep);
 8003366:	6800      	ldr	r0, [r0, #0]
 8003368:	f001 f90b 	bl	8004582 <USB_EPSetStall>
  if((ep_addr & 0x7F) == 0)
 800336c:	b92d      	cbnz	r5, 800337a <HAL_PCD_EP_SetStall+0x4c>
    USB_EP0_OutStart(hpcd->Instance, hpcd->Init.dma_enable, (uint8_t *)hpcd->Setup);
 800336e:	f504 726f 	add.w	r2, r4, #956	; 0x3bc
 8003372:	7c21      	ldrb	r1, [r4, #16]
 8003374:	6820      	ldr	r0, [r4, #0]
 8003376:	f001 f9b1 	bl	80046dc <USB_EP0_OutStart>
  __HAL_UNLOCK(hpcd); 
 800337a:	2000      	movs	r0, #0
 800337c:	f884 03b8 	strb.w	r0, [r4, #952]	; 0x3b8
  return HAL_OK;
 8003380:	bd38      	pop	{r3, r4, r5, pc}
  __HAL_LOCK(hpcd); 
 8003382:	2002      	movs	r0, #2
}
 8003384:	bd38      	pop	{r3, r4, r5, pc}

08003386 <HAL_PCD_EP_ClrStall>:
{
 8003386:	b538      	push	{r3, r4, r5, lr}
  if ((0x80 & ep_addr) == 0x80)
 8003388:	b24b      	sxtb	r3, r1
 800338a:	2b00      	cmp	r3, #0
{
 800338c:	4605      	mov	r5, r0
 800338e:	f04f 021c 	mov.w	r2, #28
 8003392:	f001 007f 	and.w	r0, r1, #127	; 0x7f
    ep = &hpcd->IN_ep[ep_addr & 0x7F];
 8003396:	bfb5      	itete	lt
 8003398:	fb02 5100 	mlalt	r1, r2, r0, r5
    ep = &hpcd->OUT_ep[ep_addr];
 800339c:	fb02 5101 	mlage	r1, r2, r1, r5
    ep = &hpcd->IN_ep[ep_addr & 0x7F];
 80033a0:	3138      	addlt	r1, #56	; 0x38
    ep = &hpcd->OUT_ep[ep_addr];
 80033a2:	f501 71fc 	addge.w	r1, r1, #504	; 0x1f8
  ep->is_in = ((ep_addr & 0x80) == 0x80);
 80033a6:	0fdb      	lsrs	r3, r3, #31
  ep->is_stall = 0U;
 80033a8:	2400      	movs	r4, #0
 80033aa:	708c      	strb	r4, [r1, #2]
  ep->num   = ep_addr & 0x7F;
 80033ac:	7008      	strb	r0, [r1, #0]
  ep->is_in = ((ep_addr & 0x80) == 0x80);
 80033ae:	704b      	strb	r3, [r1, #1]
  __HAL_LOCK(hpcd); 
 80033b0:	f895 33b8 	ldrb.w	r3, [r5, #952]	; 0x3b8
 80033b4:	2b01      	cmp	r3, #1
 80033b6:	d009      	beq.n	80033cc <HAL_PCD_EP_ClrStall+0x46>
 80033b8:	2301      	movs	r3, #1
 80033ba:	f885 33b8 	strb.w	r3, [r5, #952]	; 0x3b8
  USB_EPClearStall(hpcd->Instance , ep);
 80033be:	6828      	ldr	r0, [r5, #0]
 80033c0:	f001 f8fe 	bl	80045c0 <USB_EPClearStall>
  __HAL_UNLOCK(hpcd); 
 80033c4:	f885 43b8 	strb.w	r4, [r5, #952]	; 0x3b8
  return HAL_OK;
 80033c8:	4620      	mov	r0, r4
 80033ca:	bd38      	pop	{r3, r4, r5, pc}
  __HAL_LOCK(hpcd); 
 80033cc:	2002      	movs	r0, #2
}
 80033ce:	bd38      	pop	{r3, r4, r5, pc}

080033d0 <HAL_PCDEx_SetTxFiFo>:
         --> Txn should be configured with the minimum space of 16 words
     The FIFO is used optimally when used TxFIFOs are allocated in the top 
         of the FIFO.Ex: use EP1 and EP2 as IN instead of EP1 and EP3 as IN ones.
     When DMA is used 3n * FIFO locations should be reserved for internal DMA registers */
  
  Tx_Offset = hpcd->Instance->GRXFSIZ;
 80033d0:	6800      	ldr	r0, [r0, #0]
{
 80033d2:	b570      	push	{r4, r5, r6, lr}
  Tx_Offset = hpcd->Instance->GRXFSIZ;
 80033d4:	6a43      	ldr	r3, [r0, #36]	; 0x24
  
  if(fifo == 0)
 80033d6:	b921      	cbnz	r1, 80033e2 <HAL_PCDEx_SetTxFiFo+0x12>
  {
    hpcd->Instance->DIEPTXF0_HNPTXFSIZ = (uint32_t)(((uint32_t)size << 16U) | Tx_Offset);
 80033d8:	ea43 4302 	orr.w	r3, r3, r2, lsl #16
 80033dc:	6283      	str	r3, [r0, #40]	; 0x28
    /* Multiply Tx_Size by 2 to get higher performance */
    hpcd->Instance->DIEPTXF[fifo - 1] = (uint32_t)(((uint32_t)size << 16U) | Tx_Offset);        
  }
  
  return HAL_OK;
}
 80033de:	2000      	movs	r0, #0
 80033e0:	bd70      	pop	{r4, r5, r6, pc}
    Tx_Offset += (hpcd->Instance->DIEPTXF0_HNPTXFSIZ) >> 16U;
 80033e2:	6a84      	ldr	r4, [r0, #40]	; 0x28
    for (i = 0; i < (fifo - 1); i++)
 80033e4:	2500      	movs	r5, #0
    Tx_Offset += (hpcd->Instance->DIEPTXF0_HNPTXFSIZ) >> 16U;
 80033e6:	eb03 4314 	add.w	r3, r3, r4, lsr #16
    for (i = 0; i < (fifo - 1); i++)
 80033ea:	1e4e      	subs	r6, r1, #1
 80033ec:	b2ec      	uxtb	r4, r5
 80033ee:	42b4      	cmp	r4, r6
 80033f0:	f105 0501 	add.w	r5, r5, #1
 80033f4:	db06      	blt.n	8003404 <HAL_PCDEx_SetTxFiFo+0x34>
    hpcd->Instance->DIEPTXF[fifo - 1] = (uint32_t)(((uint32_t)size << 16U) | Tx_Offset);        
 80033f6:	313f      	adds	r1, #63	; 0x3f
 80033f8:	eb00 0081 	add.w	r0, r0, r1, lsl #2
 80033fc:	ea43 4302 	orr.w	r3, r3, r2, lsl #16
 8003400:	6043      	str	r3, [r0, #4]
 8003402:	e7ec      	b.n	80033de <HAL_PCDEx_SetTxFiFo+0xe>
      Tx_Offset += (hpcd->Instance->DIEPTXF[i] >> 16U);
 8003404:	3440      	adds	r4, #64	; 0x40
 8003406:	eb00 0484 	add.w	r4, r0, r4, lsl #2
 800340a:	6864      	ldr	r4, [r4, #4]
 800340c:	eb03 4314 	add.w	r3, r3, r4, lsr #16
 8003410:	e7ec      	b.n	80033ec <HAL_PCDEx_SetTxFiFo+0x1c>

08003412 <HAL_PCDEx_SetRxFiFo>:
  * @param  size Size of Rx fifo
  * @retval HAL status
  */
HAL_StatusTypeDef HAL_PCDEx_SetRxFiFo(PCD_HandleTypeDef *hpcd, uint16_t size)
{
  hpcd->Instance->GRXFSIZ = size;
 8003412:	6803      	ldr	r3, [r0, #0]
  
  return HAL_OK;
}
 8003414:	2000      	movs	r0, #0
  hpcd->Instance->GRXFSIZ = size;
 8003416:	6259      	str	r1, [r3, #36]	; 0x24
}
 8003418:	4770      	bx	lr
	...

0800341c <HAL_RCC_OscConfig>:
  *         supported by this API. User should request a transition to HSE Off
  *         first and then HSE On or HSE Bypass.
  * @retval HAL status
  */
__weak HAL_StatusTypeDef HAL_RCC_OscConfig(RCC_OscInitTypeDef  *RCC_OscInitStruct)
{
 800341c:	e92d 41f3 	stmdb	sp!, {r0, r1, r4, r5, r6, r7, r8, lr}
  uint32_t tickstart;

  /* Check Null pointer */
  if(RCC_OscInitStruct == NULL)
 8003420:	4604      	mov	r4, r0
 8003422:	b918      	cbnz	r0, 800342c <HAL_RCC_OscConfig+0x10>
  {
    return HAL_ERROR;
 8003424:	2001      	movs	r0, #1
    {
      return HAL_ERROR;
    }
  }
  return HAL_OK;
}
 8003426:	b002      	add	sp, #8
 8003428:	e8bd 81f0 	ldmia.w	sp!, {r4, r5, r6, r7, r8, pc}
  if(((RCC_OscInitStruct->OscillatorType) & RCC_OSCILLATORTYPE_HSE) == RCC_OSCILLATORTYPE_HSE)
 800342c:	6803      	ldr	r3, [r0, #0]
 800342e:	07dd      	lsls	r5, r3, #31
 8003430:	d410      	bmi.n	8003454 <HAL_RCC_OscConfig+0x38>
  if(((RCC_OscInitStruct->OscillatorType) & RCC_OSCILLATORTYPE_HSI) == RCC_OSCILLATORTYPE_HSI)
 8003432:	6823      	ldr	r3, [r4, #0]
 8003434:	0798      	lsls	r0, r3, #30
 8003436:	d458      	bmi.n	80034ea <HAL_RCC_OscConfig+0xce>
  if(((RCC_OscInitStruct->OscillatorType) & RCC_OSCILLATORTYPE_LSI) == RCC_OSCILLATORTYPE_LSI)
 8003438:	6823      	ldr	r3, [r4, #0]
 800343a:	071a      	lsls	r2, r3, #28
 800343c:	f100 809a 	bmi.w	8003574 <HAL_RCC_OscConfig+0x158>
  if(((RCC_OscInitStruct->OscillatorType) & RCC_OSCILLATORTYPE_LSE) == RCC_OSCILLATORTYPE_LSE)
 8003440:	6823      	ldr	r3, [r4, #0]
 8003442:	075b      	lsls	r3, r3, #29
 8003444:	f100 80b8 	bmi.w	80035b8 <HAL_RCC_OscConfig+0x19c>
  if ((RCC_OscInitStruct->PLL.PLLState) != RCC_PLL_NONE)
 8003448:	69a2      	ldr	r2, [r4, #24]
 800344a:	2a00      	cmp	r2, #0
 800344c:	f040 8119 	bne.w	8003682 <HAL_RCC_OscConfig+0x266>
  return HAL_OK;
 8003450:	2000      	movs	r0, #0
 8003452:	e7e8      	b.n	8003426 <HAL_RCC_OscConfig+0xa>
    if((__HAL_RCC_GET_SYSCLK_SOURCE() == RCC_CFGR_SWS_HSE) ||\
 8003454:	4ba6      	ldr	r3, [pc, #664]	; (80036f0 <HAL_RCC_OscConfig+0x2d4>)
 8003456:	689a      	ldr	r2, [r3, #8]
 8003458:	f002 020c 	and.w	r2, r2, #12
 800345c:	2a04      	cmp	r2, #4
 800345e:	d007      	beq.n	8003470 <HAL_RCC_OscConfig+0x54>
      ((__HAL_RCC_GET_SYSCLK_SOURCE() == RCC_CFGR_SWS_PLL) && ((RCC->PLLCFGR & RCC_PLLCFGR_PLLSRC) == RCC_PLLCFGR_PLLSRC_HSE)))
 8003460:	689a      	ldr	r2, [r3, #8]
 8003462:	f002 020c 	and.w	r2, r2, #12
    if((__HAL_RCC_GET_SYSCLK_SOURCE() == RCC_CFGR_SWS_HSE) ||\
 8003466:	2a08      	cmp	r2, #8
 8003468:	d10a      	bne.n	8003480 <HAL_RCC_OscConfig+0x64>
      ((__HAL_RCC_GET_SYSCLK_SOURCE() == RCC_CFGR_SWS_PLL) && ((RCC->PLLCFGR & RCC_PLLCFGR_PLLSRC) == RCC_PLLCFGR_PLLSRC_HSE)))
 800346a:	685b      	ldr	r3, [r3, #4]
 800346c:	0259      	lsls	r1, r3, #9
 800346e:	d507      	bpl.n	8003480 <HAL_RCC_OscConfig+0x64>
      if((__HAL_RCC_GET_FLAG(RCC_FLAG_HSERDY) != RESET) && (RCC_OscInitStruct->HSEState == RCC_HSE_OFF))
 8003470:	4b9f      	ldr	r3, [pc, #636]	; (80036f0 <HAL_RCC_OscConfig+0x2d4>)
 8003472:	681b      	ldr	r3, [r3, #0]
 8003474:	039a      	lsls	r2, r3, #14
 8003476:	d5dc      	bpl.n	8003432 <HAL_RCC_OscConfig+0x16>
 8003478:	6863      	ldr	r3, [r4, #4]
 800347a:	2b00      	cmp	r3, #0
 800347c:	d1d9      	bne.n	8003432 <HAL_RCC_OscConfig+0x16>
 800347e:	e7d1      	b.n	8003424 <HAL_RCC_OscConfig+0x8>
      __HAL_RCC_HSE_CONFIG(RCC_OscInitStruct->HSEState);
 8003480:	6863      	ldr	r3, [r4, #4]
 8003482:	4d9b      	ldr	r5, [pc, #620]	; (80036f0 <HAL_RCC_OscConfig+0x2d4>)
 8003484:	f5b3 3f80 	cmp.w	r3, #65536	; 0x10000
 8003488:	d111      	bne.n	80034ae <HAL_RCC_OscConfig+0x92>
 800348a:	682b      	ldr	r3, [r5, #0]
 800348c:	f443 3380 	orr.w	r3, r3, #65536	; 0x10000
 8003490:	602b      	str	r3, [r5, #0]
        tickstart = HAL_GetTick();
 8003492:	f7fe fdcf 	bl	8002034 <HAL_GetTick>
        while(__HAL_RCC_GET_FLAG(RCC_FLAG_HSERDY) == RESET)
 8003496:	4d96      	ldr	r5, [pc, #600]	; (80036f0 <HAL_RCC_OscConfig+0x2d4>)
        tickstart = HAL_GetTick();
 8003498:	4606      	mov	r6, r0
        while(__HAL_RCC_GET_FLAG(RCC_FLAG_HSERDY) == RESET)
 800349a:	682b      	ldr	r3, [r5, #0]
 800349c:	039b      	lsls	r3, r3, #14
 800349e:	d4c8      	bmi.n	8003432 <HAL_RCC_OscConfig+0x16>
          if((HAL_GetTick() - tickstart ) > HSE_TIMEOUT_VALUE)
 80034a0:	f7fe fdc8 	bl	8002034 <HAL_GetTick>
 80034a4:	1b80      	subs	r0, r0, r6
 80034a6:	2864      	cmp	r0, #100	; 0x64
 80034a8:	d9f7      	bls.n	800349a <HAL_RCC_OscConfig+0x7e>
            return HAL_TIMEOUT;
 80034aa:	2003      	movs	r0, #3
 80034ac:	e7bb      	b.n	8003426 <HAL_RCC_OscConfig+0xa>
      __HAL_RCC_HSE_CONFIG(RCC_OscInitStruct->HSEState);
 80034ae:	f5b3 2fa0 	cmp.w	r3, #327680	; 0x50000
 80034b2:	d104      	bne.n	80034be <HAL_RCC_OscConfig+0xa2>
 80034b4:	682b      	ldr	r3, [r5, #0]
 80034b6:	f443 2380 	orr.w	r3, r3, #262144	; 0x40000
 80034ba:	602b      	str	r3, [r5, #0]
 80034bc:	e7e5      	b.n	800348a <HAL_RCC_OscConfig+0x6e>
 80034be:	682a      	ldr	r2, [r5, #0]
 80034c0:	f422 3280 	bic.w	r2, r2, #65536	; 0x10000
 80034c4:	602a      	str	r2, [r5, #0]
 80034c6:	682a      	ldr	r2, [r5, #0]
 80034c8:	f422 2280 	bic.w	r2, r2, #262144	; 0x40000
 80034cc:	602a      	str	r2, [r5, #0]
      if((RCC_OscInitStruct->HSEState) != RCC_HSE_OFF)
 80034ce:	2b00      	cmp	r3, #0
 80034d0:	d1df      	bne.n	8003492 <HAL_RCC_OscConfig+0x76>
        tickstart = HAL_GetTick();
 80034d2:	f7fe fdaf 	bl	8002034 <HAL_GetTick>
 80034d6:	4606      	mov	r6, r0
        while(__HAL_RCC_GET_FLAG(RCC_FLAG_HSERDY) != RESET)
 80034d8:	682b      	ldr	r3, [r5, #0]
 80034da:	039f      	lsls	r7, r3, #14
 80034dc:	d5a9      	bpl.n	8003432 <HAL_RCC_OscConfig+0x16>
          if((HAL_GetTick() - tickstart ) > HSE_TIMEOUT_VALUE)
 80034de:	f7fe fda9 	bl	8002034 <HAL_GetTick>
 80034e2:	1b80      	subs	r0, r0, r6
 80034e4:	2864      	cmp	r0, #100	; 0x64
 80034e6:	d9f7      	bls.n	80034d8 <HAL_RCC_OscConfig+0xbc>
 80034e8:	e7df      	b.n	80034aa <HAL_RCC_OscConfig+0x8e>
    if((__HAL_RCC_GET_SYSCLK_SOURCE() == RCC_CFGR_SWS_HSI) ||\
 80034ea:	4b81      	ldr	r3, [pc, #516]	; (80036f0 <HAL_RCC_OscConfig+0x2d4>)
 80034ec:	689a      	ldr	r2, [r3, #8]
 80034ee:	f012 0f0c 	tst.w	r2, #12
 80034f2:	d007      	beq.n	8003504 <HAL_RCC_OscConfig+0xe8>
      ((__HAL_RCC_GET_SYSCLK_SOURCE() == RCC_CFGR_SWS_PLL) && ((RCC->PLLCFGR & RCC_PLLCFGR_PLLSRC) == RCC_PLLCFGR_PLLSRC_HSI)))
 80034f4:	689a      	ldr	r2, [r3, #8]
 80034f6:	f002 020c 	and.w	r2, r2, #12
    if((__HAL_RCC_GET_SYSCLK_SOURCE() == RCC_CFGR_SWS_HSI) ||\
 80034fa:	2a08      	cmp	r2, #8
 80034fc:	d111      	bne.n	8003522 <HAL_RCC_OscConfig+0x106>
      ((__HAL_RCC_GET_SYSCLK_SOURCE() == RCC_CFGR_SWS_PLL) && ((RCC->PLLCFGR & RCC_PLLCFGR_PLLSRC) == RCC_PLLCFGR_PLLSRC_HSI)))
 80034fe:	685b      	ldr	r3, [r3, #4]
 8003500:	025e      	lsls	r6, r3, #9
 8003502:	d40e      	bmi.n	8003522 <HAL_RCC_OscConfig+0x106>
      if((__HAL_RCC_GET_FLAG(RCC_FLAG_HSIRDY) != RESET) && (RCC_OscInitStruct->HSIState != RCC_HSI_ON))
 8003504:	4b7a      	ldr	r3, [pc, #488]	; (80036f0 <HAL_RCC_OscConfig+0x2d4>)
 8003506:	681a      	ldr	r2, [r3, #0]
 8003508:	0795      	lsls	r5, r2, #30
 800350a:	d502      	bpl.n	8003512 <HAL_RCC_OscConfig+0xf6>
 800350c:	68e2      	ldr	r2, [r4, #12]
 800350e:	2a01      	cmp	r2, #1
 8003510:	d188      	bne.n	8003424 <HAL_RCC_OscConfig+0x8>
        __HAL_RCC_HSI_CALIBRATIONVALUE_ADJUST(RCC_OscInitStruct->HSICalibrationValue);
 8003512:	681a      	ldr	r2, [r3, #0]
 8003514:	6921      	ldr	r1, [r4, #16]
 8003516:	f022 02f8 	bic.w	r2, r2, #248	; 0xf8
 800351a:	ea42 02c1 	orr.w	r2, r2, r1, lsl #3
 800351e:	601a      	str	r2, [r3, #0]
      if((__HAL_RCC_GET_FLAG(RCC_FLAG_HSIRDY) != RESET) && (RCC_OscInitStruct->HSIState != RCC_HSI_ON))
 8003520:	e78a      	b.n	8003438 <HAL_RCC_OscConfig+0x1c>
      if((RCC_OscInitStruct->HSIState)!= RCC_HSI_OFF)
 8003522:	68e2      	ldr	r2, [r4, #12]
 8003524:	4b73      	ldr	r3, [pc, #460]	; (80036f4 <HAL_RCC_OscConfig+0x2d8>)
 8003526:	b1b2      	cbz	r2, 8003556 <HAL_RCC_OscConfig+0x13a>
        __HAL_RCC_HSI_ENABLE();
 8003528:	2201      	movs	r2, #1
 800352a:	601a      	str	r2, [r3, #0]
        tickstart = HAL_GetTick();
 800352c:	f7fe fd82 	bl	8002034 <HAL_GetTick>
        while(__HAL_RCC_GET_FLAG(RCC_FLAG_HSIRDY) == RESET)
 8003530:	4d6f      	ldr	r5, [pc, #444]	; (80036f0 <HAL_RCC_OscConfig+0x2d4>)
        tickstart = HAL_GetTick();
 8003532:	4606      	mov	r6, r0
        while(__HAL_RCC_GET_FLAG(RCC_FLAG_HSIRDY) == RESET)
 8003534:	682b      	ldr	r3, [r5, #0]
 8003536:	0798      	lsls	r0, r3, #30
 8003538:	d507      	bpl.n	800354a <HAL_RCC_OscConfig+0x12e>
        __HAL_RCC_HSI_CALIBRATIONVALUE_ADJUST(RCC_OscInitStruct->HSICalibrationValue);
 800353a:	682b      	ldr	r3, [r5, #0]
 800353c:	6922      	ldr	r2, [r4, #16]
 800353e:	f023 03f8 	bic.w	r3, r3, #248	; 0xf8
 8003542:	ea43 03c2 	orr.w	r3, r3, r2, lsl #3
 8003546:	602b      	str	r3, [r5, #0]
 8003548:	e776      	b.n	8003438 <HAL_RCC_OscConfig+0x1c>
          if((HAL_GetTick() - tickstart ) > HSI_TIMEOUT_VALUE)
 800354a:	f7fe fd73 	bl	8002034 <HAL_GetTick>
 800354e:	1b80      	subs	r0, r0, r6
 8003550:	2802      	cmp	r0, #2
 8003552:	d9ef      	bls.n	8003534 <HAL_RCC_OscConfig+0x118>
 8003554:	e7a9      	b.n	80034aa <HAL_RCC_OscConfig+0x8e>
        __HAL_RCC_HSI_DISABLE();
 8003556:	601a      	str	r2, [r3, #0]
        tickstart = HAL_GetTick();
 8003558:	f7fe fd6c 	bl	8002034 <HAL_GetTick>
        while(__HAL_RCC_GET_FLAG(RCC_FLAG_HSIRDY) != RESET)
 800355c:	4d64      	ldr	r5, [pc, #400]	; (80036f0 <HAL_RCC_OscConfig+0x2d4>)
        tickstart = HAL_GetTick();
 800355e:	4606      	mov	r6, r0
        while(__HAL_RCC_GET_FLAG(RCC_FLAG_HSIRDY) != RESET)
 8003560:	682b      	ldr	r3, [r5, #0]
 8003562:	0799      	lsls	r1, r3, #30
 8003564:	f57f af68 	bpl.w	8003438 <HAL_RCC_OscConfig+0x1c>
          if((HAL_GetTick() - tickstart ) > HSI_TIMEOUT_VALUE)
 8003568:	f7fe fd64 	bl	8002034 <HAL_GetTick>
 800356c:	1b80      	subs	r0, r0, r6
 800356e:	2802      	cmp	r0, #2
 8003570:	d9f6      	bls.n	8003560 <HAL_RCC_OscConfig+0x144>
 8003572:	e79a      	b.n	80034aa <HAL_RCC_OscConfig+0x8e>
    if((RCC_OscInitStruct->LSIState)!= RCC_LSI_OFF)
 8003574:	6962      	ldr	r2, [r4, #20]
 8003576:	4b60      	ldr	r3, [pc, #384]	; (80036f8 <HAL_RCC_OscConfig+0x2dc>)
 8003578:	b17a      	cbz	r2, 800359a <HAL_RCC_OscConfig+0x17e>
      __HAL_RCC_LSI_ENABLE();
 800357a:	2201      	movs	r2, #1
 800357c:	601a      	str	r2, [r3, #0]
      tickstart = HAL_GetTick();
 800357e:	f7fe fd59 	bl	8002034 <HAL_GetTick>
      while(__HAL_RCC_GET_FLAG(RCC_FLAG_LSIRDY) == RESET)
 8003582:	4d5b      	ldr	r5, [pc, #364]	; (80036f0 <HAL_RCC_OscConfig+0x2d4>)
      tickstart = HAL_GetTick();
 8003584:	4606      	mov	r6, r0
      while(__HAL_RCC_GET_FLAG(RCC_FLAG_LSIRDY) == RESET)
 8003586:	6f6b      	ldr	r3, [r5, #116]	; 0x74
 8003588:	079f      	lsls	r7, r3, #30
 800358a:	f53f af59 	bmi.w	8003440 <HAL_RCC_OscConfig+0x24>
        if((HAL_GetTick() - tickstart ) > LSI_TIMEOUT_VALUE)
 800358e:	f7fe fd51 	bl	8002034 <HAL_GetTick>
 8003592:	1b80      	subs	r0, r0, r6
 8003594:	2802      	cmp	r0, #2
 8003596:	d9f6      	bls.n	8003586 <HAL_RCC_OscConfig+0x16a>
 8003598:	e787      	b.n	80034aa <HAL_RCC_OscConfig+0x8e>
      __HAL_RCC_LSI_DISABLE();
 800359a:	601a      	str	r2, [r3, #0]
      tickstart = HAL_GetTick();
 800359c:	f7fe fd4a 	bl	8002034 <HAL_GetTick>
      while(__HAL_RCC_GET_FLAG(RCC_FLAG_LSIRDY) != RESET)
 80035a0:	4d53      	ldr	r5, [pc, #332]	; (80036f0 <HAL_RCC_OscConfig+0x2d4>)
      tickstart = HAL_GetTick();
 80035a2:	4606      	mov	r6, r0
      while(__HAL_RCC_GET_FLAG(RCC_FLAG_LSIRDY) != RESET)
 80035a4:	6f6b      	ldr	r3, [r5, #116]	; 0x74
 80035a6:	0798      	lsls	r0, r3, #30
 80035a8:	f57f af4a 	bpl.w	8003440 <HAL_RCC_OscConfig+0x24>
        if((HAL_GetTick() - tickstart ) > LSI_TIMEOUT_VALUE)
 80035ac:	f7fe fd42 	bl	8002034 <HAL_GetTick>
 80035b0:	1b80      	subs	r0, r0, r6
 80035b2:	2802      	cmp	r0, #2
 80035b4:	d9f6      	bls.n	80035a4 <HAL_RCC_OscConfig+0x188>
 80035b6:	e778      	b.n	80034aa <HAL_RCC_OscConfig+0x8e>
    if(__HAL_RCC_PWR_IS_CLK_DISABLED())
 80035b8:	4b4d      	ldr	r3, [pc, #308]	; (80036f0 <HAL_RCC_OscConfig+0x2d4>)
 80035ba:	6c1a      	ldr	r2, [r3, #64]	; 0x40
 80035bc:	f012 5280 	ands.w	r2, r2, #268435456	; 0x10000000
 80035c0:	d128      	bne.n	8003614 <HAL_RCC_OscConfig+0x1f8>
      __HAL_RCC_PWR_CLK_ENABLE();
 80035c2:	9201      	str	r2, [sp, #4]
 80035c4:	6c1a      	ldr	r2, [r3, #64]	; 0x40
 80035c6:	f042 5280 	orr.w	r2, r2, #268435456	; 0x10000000
 80035ca:	641a      	str	r2, [r3, #64]	; 0x40
 80035cc:	6c1b      	ldr	r3, [r3, #64]	; 0x40
 80035ce:	f003 5380 	and.w	r3, r3, #268435456	; 0x10000000
 80035d2:	9301      	str	r3, [sp, #4]
 80035d4:	9b01      	ldr	r3, [sp, #4]
      pwrclkchanged = SET;
 80035d6:	2601      	movs	r6, #1
    if(HAL_IS_BIT_CLR(PWR->CR, PWR_CR_DBP))
 80035d8:	4d48      	ldr	r5, [pc, #288]	; (80036fc <HAL_RCC_OscConfig+0x2e0>)
 80035da:	682b      	ldr	r3, [r5, #0]
 80035dc:	05d9      	lsls	r1, r3, #23
 80035de:	d51b      	bpl.n	8003618 <HAL_RCC_OscConfig+0x1fc>
    __HAL_RCC_LSE_CONFIG(RCC_OscInitStruct->LSEState);
 80035e0:	68a3      	ldr	r3, [r4, #8]
 80035e2:	4d43      	ldr	r5, [pc, #268]	; (80036f0 <HAL_RCC_OscConfig+0x2d4>)
 80035e4:	2b01      	cmp	r3, #1
 80035e6:	d127      	bne.n	8003638 <HAL_RCC_OscConfig+0x21c>
 80035e8:	6f2b      	ldr	r3, [r5, #112]	; 0x70
 80035ea:	f043 0301 	orr.w	r3, r3, #1
 80035ee:	672b      	str	r3, [r5, #112]	; 0x70
      tickstart = HAL_GetTick();
 80035f0:	f7fe fd20 	bl	8002034 <HAL_GetTick>
      while(__HAL_RCC_GET_FLAG(RCC_FLAG_LSERDY) == RESET)
 80035f4:	4d3e      	ldr	r5, [pc, #248]	; (80036f0 <HAL_RCC_OscConfig+0x2d4>)
      tickstart = HAL_GetTick();
 80035f6:	4607      	mov	r7, r0
        if((HAL_GetTick() - tickstart ) > RCC_LSE_TIMEOUT_VALUE)
 80035f8:	f241 3888 	movw	r8, #5000	; 0x1388
      while(__HAL_RCC_GET_FLAG(RCC_FLAG_LSERDY) == RESET)
 80035fc:	6f2b      	ldr	r3, [r5, #112]	; 0x70
 80035fe:	079b      	lsls	r3, r3, #30
 8003600:	d539      	bpl.n	8003676 <HAL_RCC_OscConfig+0x25a>
    if(pwrclkchanged == SET)
 8003602:	2e00      	cmp	r6, #0
 8003604:	f43f af20 	beq.w	8003448 <HAL_RCC_OscConfig+0x2c>
      __HAL_RCC_PWR_CLK_DISABLE();
 8003608:	4a39      	ldr	r2, [pc, #228]	; (80036f0 <HAL_RCC_OscConfig+0x2d4>)
 800360a:	6c13      	ldr	r3, [r2, #64]	; 0x40
 800360c:	f023 5380 	bic.w	r3, r3, #268435456	; 0x10000000
 8003610:	6413      	str	r3, [r2, #64]	; 0x40
 8003612:	e719      	b.n	8003448 <HAL_RCC_OscConfig+0x2c>
    FlagStatus       pwrclkchanged = RESET;
 8003614:	2600      	movs	r6, #0
 8003616:	e7df      	b.n	80035d8 <HAL_RCC_OscConfig+0x1bc>
      SET_BIT(PWR->CR, PWR_CR_DBP);
 8003618:	682b      	ldr	r3, [r5, #0]
 800361a:	f443 7380 	orr.w	r3, r3, #256	; 0x100
 800361e:	602b      	str	r3, [r5, #0]
      tickstart = HAL_GetTick();
 8003620:	f7fe fd08 	bl	8002034 <HAL_GetTick>
 8003624:	4607      	mov	r7, r0
      while(HAL_IS_BIT_CLR(PWR->CR, PWR_CR_DBP))
 8003626:	682b      	ldr	r3, [r5, #0]
 8003628:	05da      	lsls	r2, r3, #23
 800362a:	d4d9      	bmi.n	80035e0 <HAL_RCC_OscConfig+0x1c4>
        if((HAL_GetTick() - tickstart) > RCC_DBP_TIMEOUT_VALUE)
 800362c:	f7fe fd02 	bl	8002034 <HAL_GetTick>
 8003630:	1bc0      	subs	r0, r0, r7
 8003632:	2802      	cmp	r0, #2
 8003634:	d9f7      	bls.n	8003626 <HAL_RCC_OscConfig+0x20a>
 8003636:	e738      	b.n	80034aa <HAL_RCC_OscConfig+0x8e>
    __HAL_RCC_LSE_CONFIG(RCC_OscInitStruct->LSEState);
 8003638:	2b05      	cmp	r3, #5
 800363a:	d104      	bne.n	8003646 <HAL_RCC_OscConfig+0x22a>
 800363c:	6f2b      	ldr	r3, [r5, #112]	; 0x70
 800363e:	f043 0304 	orr.w	r3, r3, #4
 8003642:	672b      	str	r3, [r5, #112]	; 0x70
 8003644:	e7d0      	b.n	80035e8 <HAL_RCC_OscConfig+0x1cc>
 8003646:	6f2a      	ldr	r2, [r5, #112]	; 0x70
 8003648:	f022 0201 	bic.w	r2, r2, #1
 800364c:	672a      	str	r2, [r5, #112]	; 0x70
 800364e:	6f2a      	ldr	r2, [r5, #112]	; 0x70
 8003650:	f022 0204 	bic.w	r2, r2, #4
 8003654:	672a      	str	r2, [r5, #112]	; 0x70
    if((RCC_OscInitStruct->LSEState) != RCC_LSE_OFF)
 8003656:	2b00      	cmp	r3, #0
 8003658:	d1ca      	bne.n	80035f0 <HAL_RCC_OscConfig+0x1d4>
      tickstart = HAL_GetTick();
 800365a:	f7fe fceb 	bl	8002034 <HAL_GetTick>
        if((HAL_GetTick() - tickstart ) > RCC_LSE_TIMEOUT_VALUE)
 800365e:	f241 3888 	movw	r8, #5000	; 0x1388
      tickstart = HAL_GetTick();
 8003662:	4607      	mov	r7, r0
      while(__HAL_RCC_GET_FLAG(RCC_FLAG_LSERDY) != RESET)
 8003664:	6f2b      	ldr	r3, [r5, #112]	; 0x70
 8003666:	0798      	lsls	r0, r3, #30
 8003668:	d5cb      	bpl.n	8003602 <HAL_RCC_OscConfig+0x1e6>
        if((HAL_GetTick() - tickstart ) > RCC_LSE_TIMEOUT_VALUE)
 800366a:	f7fe fce3 	bl	8002034 <HAL_GetTick>
 800366e:	1bc0      	subs	r0, r0, r7
 8003670:	4540      	cmp	r0, r8
 8003672:	d9f7      	bls.n	8003664 <HAL_RCC_OscConfig+0x248>
 8003674:	e719      	b.n	80034aa <HAL_RCC_OscConfig+0x8e>
        if((HAL_GetTick() - tickstart ) > RCC_LSE_TIMEOUT_VALUE)
 8003676:	f7fe fcdd 	bl	8002034 <HAL_GetTick>
 800367a:	1bc0      	subs	r0, r0, r7
 800367c:	4540      	cmp	r0, r8
 800367e:	d9bd      	bls.n	80035fc <HAL_RCC_OscConfig+0x1e0>
 8003680:	e713      	b.n	80034aa <HAL_RCC_OscConfig+0x8e>
    if(__HAL_RCC_GET_SYSCLK_SOURCE() != RCC_CFGR_SWS_PLL)
 8003682:	4d1b      	ldr	r5, [pc, #108]	; (80036f0 <HAL_RCC_OscConfig+0x2d4>)
 8003684:	68ab      	ldr	r3, [r5, #8]
 8003686:	f003 030c 	and.w	r3, r3, #12
 800368a:	2b08      	cmp	r3, #8
 800368c:	f43f aeca 	beq.w	8003424 <HAL_RCC_OscConfig+0x8>
 8003690:	4e1b      	ldr	r6, [pc, #108]	; (8003700 <HAL_RCC_OscConfig+0x2e4>)
 8003692:	2300      	movs	r3, #0
      if((RCC_OscInitStruct->PLL.PLLState) == RCC_PLL_ON)
 8003694:	2a02      	cmp	r2, #2
        __HAL_RCC_PLL_DISABLE();
 8003696:	6033      	str	r3, [r6, #0]
      if((RCC_OscInitStruct->PLL.PLLState) == RCC_PLL_ON)
 8003698:	d134      	bne.n	8003704 <HAL_RCC_OscConfig+0x2e8>
        tickstart = HAL_GetTick();
 800369a:	f7fe fccb 	bl	8002034 <HAL_GetTick>
 800369e:	4607      	mov	r7, r0
        while(__HAL_RCC_GET_FLAG(RCC_FLAG_PLLRDY) != RESET)
 80036a0:	682b      	ldr	r3, [r5, #0]
 80036a2:	0199      	lsls	r1, r3, #6
 80036a4:	d41e      	bmi.n	80036e4 <HAL_RCC_OscConfig+0x2c8>
        WRITE_REG(RCC->PLLCFGR, (RCC_OscInitStruct->PLL.PLLSource                                            | \
 80036a6:	6a22      	ldr	r2, [r4, #32]
 80036a8:	69e3      	ldr	r3, [r4, #28]
 80036aa:	4313      	orrs	r3, r2
 80036ac:	6a62      	ldr	r2, [r4, #36]	; 0x24
 80036ae:	ea43 1382 	orr.w	r3, r3, r2, lsl #6
 80036b2:	6ae2      	ldr	r2, [r4, #44]	; 0x2c
 80036b4:	ea43 6302 	orr.w	r3, r3, r2, lsl #24
 80036b8:	6aa2      	ldr	r2, [r4, #40]	; 0x28
        while(__HAL_RCC_GET_FLAG(RCC_FLAG_PLLRDY) == RESET)
 80036ba:	4c0d      	ldr	r4, [pc, #52]	; (80036f0 <HAL_RCC_OscConfig+0x2d4>)
        WRITE_REG(RCC->PLLCFGR, (RCC_OscInitStruct->PLL.PLLSource                                            | \
 80036bc:	0852      	lsrs	r2, r2, #1
 80036be:	3a01      	subs	r2, #1
 80036c0:	ea43 4302 	orr.w	r3, r3, r2, lsl #16
 80036c4:	606b      	str	r3, [r5, #4]
        __HAL_RCC_PLL_ENABLE();
 80036c6:	2301      	movs	r3, #1
 80036c8:	6033      	str	r3, [r6, #0]
        tickstart = HAL_GetTick();
 80036ca:	f7fe fcb3 	bl	8002034 <HAL_GetTick>
 80036ce:	4605      	mov	r5, r0
        while(__HAL_RCC_GET_FLAG(RCC_FLAG_PLLRDY) == RESET)
 80036d0:	6823      	ldr	r3, [r4, #0]
 80036d2:	019a      	lsls	r2, r3, #6
 80036d4:	f53f aebc 	bmi.w	8003450 <HAL_RCC_OscConfig+0x34>
          if((HAL_GetTick() - tickstart ) > PLL_TIMEOUT_VALUE)
 80036d8:	f7fe fcac 	bl	8002034 <HAL_GetTick>
 80036dc:	1b40      	subs	r0, r0, r5
 80036de:	2802      	cmp	r0, #2
 80036e0:	d9f6      	bls.n	80036d0 <HAL_RCC_OscConfig+0x2b4>
 80036e2:	e6e2      	b.n	80034aa <HAL_RCC_OscConfig+0x8e>
          if((HAL_GetTick() - tickstart ) > PLL_TIMEOUT_VALUE)
 80036e4:	f7fe fca6 	bl	8002034 <HAL_GetTick>
 80036e8:	1bc0      	subs	r0, r0, r7
 80036ea:	2802      	cmp	r0, #2
 80036ec:	d9d8      	bls.n	80036a0 <HAL_RCC_OscConfig+0x284>
 80036ee:	e6dc      	b.n	80034aa <HAL_RCC_OscConfig+0x8e>
 80036f0:	40023800 	.word	0x40023800
 80036f4:	42470000 	.word	0x42470000
 80036f8:	42470e80 	.word	0x42470e80
 80036fc:	40007000 	.word	0x40007000
 8003700:	42470060 	.word	0x42470060
        tickstart = HAL_GetTick();
 8003704:	f7fe fc96 	bl	8002034 <HAL_GetTick>
 8003708:	4604      	mov	r4, r0
        while(__HAL_RCC_GET_FLAG(RCC_FLAG_PLLRDY) != RESET)
 800370a:	682b      	ldr	r3, [r5, #0]
 800370c:	019b      	lsls	r3, r3, #6
 800370e:	f57f ae9f 	bpl.w	8003450 <HAL_RCC_OscConfig+0x34>
          if((HAL_GetTick() - tickstart ) > PLL_TIMEOUT_VALUE)
 8003712:	f7fe fc8f 	bl	8002034 <HAL_GetTick>
 8003716:	1b00      	subs	r0, r0, r4
 8003718:	2802      	cmp	r0, #2
 800371a:	d9f6      	bls.n	800370a <HAL_RCC_OscConfig+0x2ee>
 800371c:	e6c5      	b.n	80034aa <HAL_RCC_OscConfig+0x8e>
 800371e:	bf00      	nop

08003720 <HAL_RCC_MCOConfig>:
  * @note  For STM32F410Rx devices to output I2SCLK clock on MCO2 you should have
  *        at last one of the SPI clocks enabled (SPI1, SPI2 or SPI5).
  * @retval None
  */
void HAL_RCC_MCOConfig(uint32_t RCC_MCOx, uint32_t RCC_MCOSource, uint32_t RCC_MCODiv)
{
 8003720:	b570      	push	{r4, r5, r6, lr}
 8003722:	460d      	mov	r5, r1
 8003724:	b088      	sub	sp, #32
 8003726:	4616      	mov	r6, r2
 8003728:	4c20      	ldr	r4, [pc, #128]	; (80037ac <HAL_RCC_MCOConfig+0x8c>)
  GPIO_InitTypeDef GPIO_InitStruct;
  /* Check the parameters */
  assert_param(IS_RCC_MCO(RCC_MCOx));
  assert_param(IS_RCC_MCODIV(RCC_MCODiv));
  /* RCC_MCO1 */
  if(RCC_MCOx == RCC_MCO1)
 800372a:	b9f0      	cbnz	r0, 800376a <HAL_RCC_MCOConfig+0x4a>
  {
    assert_param(IS_RCC_MCO1SOURCE(RCC_MCOSource));

    /* MCO1 Clock Enable */
    __MCO1_CLK_ENABLE();
 800372c:	9001      	str	r0, [sp, #4]
 800372e:	6b23      	ldr	r3, [r4, #48]	; 0x30
 8003730:	f043 0301 	orr.w	r3, r3, #1
 8003734:	6323      	str	r3, [r4, #48]	; 0x30
 8003736:	6b23      	ldr	r3, [r4, #48]	; 0x30

    /* Configure the MCO1 pin in alternate function mode */
    GPIO_InitStruct.Pin = MCO1_PIN;
    GPIO_InitStruct.Mode = GPIO_MODE_AF_PP;
    GPIO_InitStruct.Speed = GPIO_SPEED_FREQ_VERY_HIGH;
    GPIO_InitStruct.Pull = GPIO_NOPULL;
 8003738:	9005      	str	r0, [sp, #20]
    __MCO1_CLK_ENABLE();
 800373a:	f003 0301 	and.w	r3, r3, #1
 800373e:	9301      	str	r3, [sp, #4]
 8003740:	9b01      	ldr	r3, [sp, #4]
    GPIO_InitStruct.Alternate = GPIO_AF0_MCO;
 8003742:	9007      	str	r0, [sp, #28]
    GPIO_InitStruct.Pin = MCO1_PIN;
 8003744:	f44f 7380 	mov.w	r3, #256	; 0x100
 8003748:	9303      	str	r3, [sp, #12]
    GPIO_InitStruct.Mode = GPIO_MODE_AF_PP;
 800374a:	2302      	movs	r3, #2
 800374c:	9304      	str	r3, [sp, #16]
    HAL_GPIO_Init(MCO1_GPIO_PORT, &GPIO_InitStruct);
 800374e:	a903      	add	r1, sp, #12
    GPIO_InitStruct.Speed = GPIO_SPEED_FREQ_VERY_HIGH;
 8003750:	2303      	movs	r3, #3
    HAL_GPIO_Init(MCO1_GPIO_PORT, &GPIO_InitStruct);
 8003752:	4817      	ldr	r0, [pc, #92]	; (80037b0 <HAL_RCC_MCOConfig+0x90>)
    GPIO_InitStruct.Speed = GPIO_SPEED_FREQ_VERY_HIGH;
 8003754:	9306      	str	r3, [sp, #24]
    HAL_GPIO_Init(MCO1_GPIO_PORT, &GPIO_InitStruct);
 8003756:	f7ff f91d 	bl	8002994 <HAL_GPIO_Init>

    /* Mask MCO1 and MCO1PRE[2:0] bits then Select MCO1 clock source and prescaler */
    MODIFY_REG(RCC->CFGR, (RCC_CFGR_MCO1 | RCC_CFGR_MCO1PRE), (RCC_MCOSource | RCC_MCODiv));
 800375a:	68a1      	ldr	r1, [r4, #8]
 800375c:	f021 61ec 	bic.w	r1, r1, #123731968	; 0x7600000
 8003760:	4331      	orrs	r1, r6
 8003762:	4329      	orrs	r1, r5
 8003764:	60a1      	str	r1, [r4, #8]
#if defined(RCC_CFGR_MCO2EN)
    __HAL_RCC_MCO2_ENABLE();
#endif /* RCC_CFGR_MCO2EN */
  }
#endif /* RCC_CFGR_MCO2 */
}
 8003766:	b008      	add	sp, #32
 8003768:	bd70      	pop	{r4, r5, r6, pc}
    __MCO2_CLK_ENABLE();
 800376a:	2300      	movs	r3, #0
 800376c:	9302      	str	r3, [sp, #8]
 800376e:	6b22      	ldr	r2, [r4, #48]	; 0x30
    HAL_GPIO_Init(MCO2_GPIO_PORT, &GPIO_InitStruct);
 8003770:	4810      	ldr	r0, [pc, #64]	; (80037b4 <HAL_RCC_MCOConfig+0x94>)
    __MCO2_CLK_ENABLE();
 8003772:	f042 0204 	orr.w	r2, r2, #4
 8003776:	6322      	str	r2, [r4, #48]	; 0x30
 8003778:	6b22      	ldr	r2, [r4, #48]	; 0x30
    GPIO_InitStruct.Pull = GPIO_NOPULL;
 800377a:	9305      	str	r3, [sp, #20]
    __MCO2_CLK_ENABLE();
 800377c:	f002 0204 	and.w	r2, r2, #4
 8003780:	9202      	str	r2, [sp, #8]
 8003782:	9a02      	ldr	r2, [sp, #8]
    GPIO_InitStruct.Alternate = GPIO_AF0_MCO;
 8003784:	9307      	str	r3, [sp, #28]
    GPIO_InitStruct.Pin = MCO2_PIN;
 8003786:	f44f 7200 	mov.w	r2, #512	; 0x200
 800378a:	9203      	str	r2, [sp, #12]
    GPIO_InitStruct.Mode = GPIO_MODE_AF_PP;
 800378c:	2202      	movs	r2, #2
 800378e:	9204      	str	r2, [sp, #16]
    HAL_GPIO_Init(MCO2_GPIO_PORT, &GPIO_InitStruct);
 8003790:	a903      	add	r1, sp, #12
    GPIO_InitStruct.Speed = GPIO_SPEED_FREQ_VERY_HIGH;
 8003792:	2203      	movs	r2, #3
 8003794:	9206      	str	r2, [sp, #24]
    HAL_GPIO_Init(MCO2_GPIO_PORT, &GPIO_InitStruct);
 8003796:	f7ff f8fd 	bl	8002994 <HAL_GPIO_Init>
    MODIFY_REG(RCC->CFGR, (RCC_CFGR_MCO2 | RCC_CFGR_MCO2PRE), (RCC_MCOSource | (RCC_MCODiv << 3U)));
 800379a:	68a3      	ldr	r3, [r4, #8]
 800379c:	ea45 01c6 	orr.w	r1, r5, r6, lsl #3
 80037a0:	f023 4578 	bic.w	r5, r3, #4160749568	; 0xf8000000
 80037a4:	430d      	orrs	r5, r1
 80037a6:	60a5      	str	r5, [r4, #8]
}
 80037a8:	e7dd      	b.n	8003766 <HAL_RCC_MCOConfig+0x46>
 80037aa:	bf00      	nop
 80037ac:	40023800 	.word	0x40023800
 80037b0:	40020000 	.word	0x40020000
 80037b4:	40020800 	.word	0x40020800

080037b8 <HAL_RCC_GetSysClockFreq>:
{
  uint32_t pllm = 0U, pllvco = 0U, pllp = 0U;
  uint32_t sysclockfreq = 0U;

  /* Get SYSCLK source -------------------------------------------------------*/
  switch (RCC->CFGR & RCC_CFGR_SWS)
 80037b8:	4913      	ldr	r1, [pc, #76]	; (8003808 <HAL_RCC_GetSysClockFreq+0x50>)
{
 80037ba:	b508      	push	{r3, lr}
  switch (RCC->CFGR & RCC_CFGR_SWS)
 80037bc:	688b      	ldr	r3, [r1, #8]
 80037be:	f003 030c 	and.w	r3, r3, #12
 80037c2:	2b04      	cmp	r3, #4
 80037c4:	d003      	beq.n	80037ce <HAL_RCC_GetSysClockFreq+0x16>
 80037c6:	2b08      	cmp	r3, #8
 80037c8:	d003      	beq.n	80037d2 <HAL_RCC_GetSysClockFreq+0x1a>
  {
    case RCC_CFGR_SWS_HSI:  /* HSI used as system clock source */
    {
      sysclockfreq = HSI_VALUE;
 80037ca:	4810      	ldr	r0, [pc, #64]	; (800380c <HAL_RCC_GetSysClockFreq+0x54>)
      sysclockfreq = HSI_VALUE;
      break;
    }
  }
  return sysclockfreq;
}
 80037cc:	bd08      	pop	{r3, pc}
      sysclockfreq = HSE_VALUE;
 80037ce:	4810      	ldr	r0, [pc, #64]	; (8003810 <HAL_RCC_GetSysClockFreq+0x58>)
 80037d0:	bd08      	pop	{r3, pc}
      pllm = RCC->PLLCFGR & RCC_PLLCFGR_PLLM;
 80037d2:	684a      	ldr	r2, [r1, #4]
      if(__HAL_RCC_GET_PLL_OSCSOURCE() != RCC_PLLSOURCE_HSI)
 80037d4:	684b      	ldr	r3, [r1, #4]
        pllvco = (uint32_t) ((((uint64_t) HSE_VALUE * ((uint64_t) ((RCC->PLLCFGR & RCC_PLLCFGR_PLLN) >> RCC_PLLCFGR_PLLN_Pos)))) / (uint64_t)pllm);
 80037d6:	6849      	ldr	r1, [r1, #4]
      if(__HAL_RCC_GET_PLL_OSCSOURCE() != RCC_PLLSOURCE_HSI)
 80037d8:	f413 0380 	ands.w	r3, r3, #4194304	; 0x400000
        pllvco = (uint32_t) ((((uint64_t) HSE_VALUE * ((uint64_t) ((RCC->PLLCFGR & RCC_PLLCFGR_PLLN) >> RCC_PLLCFGR_PLLN_Pos)))) / (uint64_t)pllm);
 80037dc:	bf14      	ite	ne
 80037de:	480c      	ldrne	r0, [pc, #48]	; (8003810 <HAL_RCC_GetSysClockFreq+0x58>)
        pllvco = (uint32_t) ((((uint64_t) HSI_VALUE * ((uint64_t) ((RCC->PLLCFGR & RCC_PLLCFGR_PLLN) >> RCC_PLLCFGR_PLLN_Pos)))) / (uint64_t)pllm);
 80037e0:	480a      	ldreq	r0, [pc, #40]	; (800380c <HAL_RCC_GetSysClockFreq+0x54>)
        pllvco = (uint32_t) ((((uint64_t) HSE_VALUE * ((uint64_t) ((RCC->PLLCFGR & RCC_PLLCFGR_PLLN) >> RCC_PLLCFGR_PLLN_Pos)))) / (uint64_t)pllm);
 80037e2:	f3c1 1188 	ubfx	r1, r1, #6, #9
 80037e6:	bf18      	it	ne
 80037e8:	2300      	movne	r3, #0
      pllm = RCC->PLLCFGR & RCC_PLLCFGR_PLLM;
 80037ea:	f002 023f 	and.w	r2, r2, #63	; 0x3f
        pllvco = (uint32_t) ((((uint64_t) HSI_VALUE * ((uint64_t) ((RCC->PLLCFGR & RCC_PLLCFGR_PLLN) >> RCC_PLLCFGR_PLLN_Pos)))) / (uint64_t)pllm);
 80037ee:	fba1 0100 	umull	r0, r1, r1, r0
 80037f2:	f7fd f9b5 	bl	8000b60 <__aeabi_uldivmod>
      pllp = ((((RCC->PLLCFGR & RCC_PLLCFGR_PLLP) >> RCC_PLLCFGR_PLLP_Pos) + 1U) *2U);
 80037f6:	4b04      	ldr	r3, [pc, #16]	; (8003808 <HAL_RCC_GetSysClockFreq+0x50>)
 80037f8:	685b      	ldr	r3, [r3, #4]
 80037fa:	f3c3 4301 	ubfx	r3, r3, #16, #2
 80037fe:	3301      	adds	r3, #1
 8003800:	005b      	lsls	r3, r3, #1
      sysclockfreq = pllvco/pllp;
 8003802:	fbb0 f0f3 	udiv	r0, r0, r3
 8003806:	bd08      	pop	{r3, pc}
 8003808:	40023800 	.word	0x40023800
 800380c:	00f42400 	.word	0x00f42400
 8003810:	007a1200 	.word	0x007a1200

08003814 <HAL_RCC_ClockConfig>:
{
 8003814:	e92d 41f0 	stmdb	sp!, {r4, r5, r6, r7, r8, lr}
 8003818:	460d      	mov	r5, r1
  if(RCC_ClkInitStruct == NULL)
 800381a:	4604      	mov	r4, r0
 800381c:	b910      	cbnz	r0, 8003824 <HAL_RCC_ClockConfig+0x10>
    return HAL_ERROR;
 800381e:	2001      	movs	r0, #1
 8003820:	e8bd 81f0 	ldmia.w	sp!, {r4, r5, r6, r7, r8, pc}
  if(FLatency > __HAL_FLASH_GET_LATENCY())
 8003824:	4b44      	ldr	r3, [pc, #272]	; (8003938 <HAL_RCC_ClockConfig+0x124>)
 8003826:	681a      	ldr	r2, [r3, #0]
 8003828:	f002 020f 	and.w	r2, r2, #15
 800382c:	428a      	cmp	r2, r1
 800382e:	d328      	bcc.n	8003882 <HAL_RCC_ClockConfig+0x6e>
  if(((RCC_ClkInitStruct->ClockType) & RCC_CLOCKTYPE_HCLK) == RCC_CLOCKTYPE_HCLK)
 8003830:	6821      	ldr	r1, [r4, #0]
 8003832:	078f      	lsls	r7, r1, #30
 8003834:	d42d      	bmi.n	8003892 <HAL_RCC_ClockConfig+0x7e>
  if(((RCC_ClkInitStruct->ClockType) & RCC_CLOCKTYPE_SYSCLK) == RCC_CLOCKTYPE_SYSCLK)
 8003836:	07c8      	lsls	r0, r1, #31
 8003838:	d440      	bmi.n	80038bc <HAL_RCC_ClockConfig+0xa8>
  if(FLatency < __HAL_FLASH_GET_LATENCY())
 800383a:	4b3f      	ldr	r3, [pc, #252]	; (8003938 <HAL_RCC_ClockConfig+0x124>)
 800383c:	681a      	ldr	r2, [r3, #0]
 800383e:	f002 020f 	and.w	r2, r2, #15
 8003842:	4295      	cmp	r5, r2
 8003844:	d366      	bcc.n	8003914 <HAL_RCC_ClockConfig+0x100>
  if(((RCC_ClkInitStruct->ClockType) & RCC_CLOCKTYPE_PCLK1) == RCC_CLOCKTYPE_PCLK1)
 8003846:	6822      	ldr	r2, [r4, #0]
 8003848:	0751      	lsls	r1, r2, #29
 800384a:	d46c      	bmi.n	8003926 <HAL_RCC_ClockConfig+0x112>
  if(((RCC_ClkInitStruct->ClockType) & RCC_CLOCKTYPE_PCLK2) == RCC_CLOCKTYPE_PCLK2)
 800384c:	0713      	lsls	r3, r2, #28
 800384e:	d507      	bpl.n	8003860 <HAL_RCC_ClockConfig+0x4c>
    MODIFY_REG(RCC->CFGR, RCC_CFGR_PPRE2, ((RCC_ClkInitStruct->APB2CLKDivider) << 3U));
 8003850:	4a3a      	ldr	r2, [pc, #232]	; (800393c <HAL_RCC_ClockConfig+0x128>)
 8003852:	6921      	ldr	r1, [r4, #16]
 8003854:	6893      	ldr	r3, [r2, #8]
 8003856:	f423 4360 	bic.w	r3, r3, #57344	; 0xe000
 800385a:	ea43 03c1 	orr.w	r3, r3, r1, lsl #3
 800385e:	6093      	str	r3, [r2, #8]
  SystemCoreClock = HAL_RCC_GetSysClockFreq() >> AHBPrescTable[(RCC->CFGR & RCC_CFGR_HPRE)>> RCC_CFGR_HPRE_Pos];
 8003860:	f7ff ffaa 	bl	80037b8 <HAL_RCC_GetSysClockFreq>
 8003864:	4b35      	ldr	r3, [pc, #212]	; (800393c <HAL_RCC_ClockConfig+0x128>)
 8003866:	4a36      	ldr	r2, [pc, #216]	; (8003940 <HAL_RCC_ClockConfig+0x12c>)
 8003868:	689b      	ldr	r3, [r3, #8]
 800386a:	f3c3 1303 	ubfx	r3, r3, #4, #4
 800386e:	5cd3      	ldrb	r3, [r2, r3]
 8003870:	40d8      	lsrs	r0, r3
 8003872:	4b34      	ldr	r3, [pc, #208]	; (8003944 <HAL_RCC_ClockConfig+0x130>)
 8003874:	6018      	str	r0, [r3, #0]
  HAL_InitTick (TICK_INT_PRIORITY);
 8003876:	2000      	movs	r0, #0
 8003878:	f7fd ffe0 	bl	800183c <HAL_InitTick>
  return HAL_OK;
 800387c:	2000      	movs	r0, #0
 800387e:	e8bd 81f0 	ldmia.w	sp!, {r4, r5, r6, r7, r8, pc}
    __HAL_FLASH_SET_LATENCY(FLatency);
 8003882:	b2ca      	uxtb	r2, r1
 8003884:	701a      	strb	r2, [r3, #0]
    if(__HAL_FLASH_GET_LATENCY() != FLatency)
 8003886:	681b      	ldr	r3, [r3, #0]
 8003888:	f003 030f 	and.w	r3, r3, #15
 800388c:	4299      	cmp	r1, r3
 800388e:	d1c6      	bne.n	800381e <HAL_RCC_ClockConfig+0xa>
 8003890:	e7ce      	b.n	8003830 <HAL_RCC_ClockConfig+0x1c>
 8003892:	4b2a      	ldr	r3, [pc, #168]	; (800393c <HAL_RCC_ClockConfig+0x128>)
    if(((RCC_ClkInitStruct->ClockType) & RCC_CLOCKTYPE_PCLK1) == RCC_CLOCKTYPE_PCLK1)
 8003894:	f011 0f04 	tst.w	r1, #4
      MODIFY_REG(RCC->CFGR, RCC_CFGR_PPRE1, RCC_HCLK_DIV16);
 8003898:	bf1e      	ittt	ne
 800389a:	689a      	ldrne	r2, [r3, #8]
 800389c:	f442 52e0 	orrne.w	r2, r2, #7168	; 0x1c00
 80038a0:	609a      	strne	r2, [r3, #8]
    if(((RCC_ClkInitStruct->ClockType) & RCC_CLOCKTYPE_PCLK2) == RCC_CLOCKTYPE_PCLK2)
 80038a2:	070e      	lsls	r6, r1, #28
      MODIFY_REG(RCC->CFGR, RCC_CFGR_PPRE2, (RCC_HCLK_DIV16 << 3));
 80038a4:	bf42      	ittt	mi
 80038a6:	689a      	ldrmi	r2, [r3, #8]
 80038a8:	f442 4260 	orrmi.w	r2, r2, #57344	; 0xe000
 80038ac:	609a      	strmi	r2, [r3, #8]
    MODIFY_REG(RCC->CFGR, RCC_CFGR_HPRE, RCC_ClkInitStruct->AHBCLKDivider);
 80038ae:	689a      	ldr	r2, [r3, #8]
 80038b0:	68a0      	ldr	r0, [r4, #8]
 80038b2:	f022 02f0 	bic.w	r2, r2, #240	; 0xf0
 80038b6:	4302      	orrs	r2, r0
 80038b8:	609a      	str	r2, [r3, #8]
 80038ba:	e7bc      	b.n	8003836 <HAL_RCC_ClockConfig+0x22>
    if(RCC_ClkInitStruct->SYSCLKSource == RCC_SYSCLKSOURCE_HSE)
 80038bc:	6862      	ldr	r2, [r4, #4]
 80038be:	4b1f      	ldr	r3, [pc, #124]	; (800393c <HAL_RCC_ClockConfig+0x128>)
 80038c0:	2a01      	cmp	r2, #1
 80038c2:	d11d      	bne.n	8003900 <HAL_RCC_ClockConfig+0xec>
      if(__HAL_RCC_GET_FLAG(RCC_FLAG_HSERDY) == RESET)
 80038c4:	681b      	ldr	r3, [r3, #0]
 80038c6:	f413 3f00 	tst.w	r3, #131072	; 0x20000
      if(__HAL_RCC_GET_FLAG(RCC_FLAG_HSIRDY) == RESET)
 80038ca:	d0a8      	beq.n	800381e <HAL_RCC_ClockConfig+0xa>
    __HAL_RCC_SYSCLK_CONFIG(RCC_ClkInitStruct->SYSCLKSource);
 80038cc:	4e1b      	ldr	r6, [pc, #108]	; (800393c <HAL_RCC_ClockConfig+0x128>)
 80038ce:	68b3      	ldr	r3, [r6, #8]
 80038d0:	f023 0303 	bic.w	r3, r3, #3
 80038d4:	4313      	orrs	r3, r2
 80038d6:	60b3      	str	r3, [r6, #8]
    tickstart = HAL_GetTick();
 80038d8:	f7fe fbac 	bl	8002034 <HAL_GetTick>
      if ((HAL_GetTick() - tickstart) > CLOCKSWITCH_TIMEOUT_VALUE)
 80038dc:	f241 3888 	movw	r8, #5000	; 0x1388
    tickstart = HAL_GetTick();
 80038e0:	4607      	mov	r7, r0
    while (__HAL_RCC_GET_SYSCLK_SOURCE() != (RCC_ClkInitStruct->SYSCLKSource << RCC_CFGR_SWS_Pos))
 80038e2:	68b3      	ldr	r3, [r6, #8]
 80038e4:	6862      	ldr	r2, [r4, #4]
 80038e6:	f003 030c 	and.w	r3, r3, #12
 80038ea:	ebb3 0f82 	cmp.w	r3, r2, lsl #2
 80038ee:	d0a4      	beq.n	800383a <HAL_RCC_ClockConfig+0x26>
      if ((HAL_GetTick() - tickstart) > CLOCKSWITCH_TIMEOUT_VALUE)
 80038f0:	f7fe fba0 	bl	8002034 <HAL_GetTick>
 80038f4:	1bc0      	subs	r0, r0, r7
 80038f6:	4540      	cmp	r0, r8
 80038f8:	d9f3      	bls.n	80038e2 <HAL_RCC_ClockConfig+0xce>
        return HAL_TIMEOUT;
 80038fa:	2003      	movs	r0, #3
}
 80038fc:	e8bd 81f0 	ldmia.w	sp!, {r4, r5, r6, r7, r8, pc}
    else if((RCC_ClkInitStruct->SYSCLKSource == RCC_SYSCLKSOURCE_PLLCLK)   ||
 8003900:	1e91      	subs	r1, r2, #2
 8003902:	2901      	cmp	r1, #1
      if(__HAL_RCC_GET_FLAG(RCC_FLAG_PLLRDY) == RESET)
 8003904:	681b      	ldr	r3, [r3, #0]
    else if((RCC_ClkInitStruct->SYSCLKSource == RCC_SYSCLKSOURCE_PLLCLK)   ||
 8003906:	d802      	bhi.n	800390e <HAL_RCC_ClockConfig+0xfa>
      if(__HAL_RCC_GET_FLAG(RCC_FLAG_PLLRDY) == RESET)
 8003908:	f013 7f00 	tst.w	r3, #33554432	; 0x2000000
 800390c:	e7dd      	b.n	80038ca <HAL_RCC_ClockConfig+0xb6>
      if(__HAL_RCC_GET_FLAG(RCC_FLAG_HSIRDY) == RESET)
 800390e:	f013 0f02 	tst.w	r3, #2
 8003912:	e7da      	b.n	80038ca <HAL_RCC_ClockConfig+0xb6>
    __HAL_FLASH_SET_LATENCY(FLatency);
 8003914:	b2ea      	uxtb	r2, r5
 8003916:	701a      	strb	r2, [r3, #0]
    if(__HAL_FLASH_GET_LATENCY() != FLatency)
 8003918:	681b      	ldr	r3, [r3, #0]
 800391a:	f003 030f 	and.w	r3, r3, #15
 800391e:	429d      	cmp	r5, r3
 8003920:	f47f af7d 	bne.w	800381e <HAL_RCC_ClockConfig+0xa>
 8003924:	e78f      	b.n	8003846 <HAL_RCC_ClockConfig+0x32>
    MODIFY_REG(RCC->CFGR, RCC_CFGR_PPRE1, RCC_ClkInitStruct->APB1CLKDivider);
 8003926:	4905      	ldr	r1, [pc, #20]	; (800393c <HAL_RCC_ClockConfig+0x128>)
 8003928:	68e0      	ldr	r0, [r4, #12]
 800392a:	688b      	ldr	r3, [r1, #8]
 800392c:	f423 53e0 	bic.w	r3, r3, #7168	; 0x1c00
 8003930:	4303      	orrs	r3, r0
 8003932:	608b      	str	r3, [r1, #8]
 8003934:	e78a      	b.n	800384c <HAL_RCC_ClockConfig+0x38>
 8003936:	bf00      	nop
 8003938:	40023c00 	.word	0x40023c00
 800393c:	40023800 	.word	0x40023800
 8003940:	08007639 	.word	0x08007639
 8003944:	20000000 	.word	0x20000000

08003948 <HAL_RCC_GetHCLKFreq>:
  * @retval HCLK frequency
  */
uint32_t HAL_RCC_GetHCLKFreq(void)
{
  return SystemCoreClock;
}
 8003948:	4b01      	ldr	r3, [pc, #4]	; (8003950 <HAL_RCC_GetHCLKFreq+0x8>)
 800394a:	6818      	ldr	r0, [r3, #0]
 800394c:	4770      	bx	lr
 800394e:	bf00      	nop
 8003950:	20000000 	.word	0x20000000

08003954 <HAL_RCC_GetPCLK2Freq>:
  * @retval PCLK2 frequency
  */
uint32_t HAL_RCC_GetPCLK2Freq(void)
{
  /* Get HCLK source and Compute PCLK2 frequency ---------------------------*/
  return (HAL_RCC_GetHCLKFreq()>> APBPrescTable[(RCC->CFGR & RCC_CFGR_PPRE2)>> RCC_CFGR_PPRE2_Pos]);
 8003954:	4b04      	ldr	r3, [pc, #16]	; (8003968 <HAL_RCC_GetPCLK2Freq+0x14>)
 8003956:	4a05      	ldr	r2, [pc, #20]	; (800396c <HAL_RCC_GetPCLK2Freq+0x18>)
 8003958:	689b      	ldr	r3, [r3, #8]
 800395a:	f3c3 3342 	ubfx	r3, r3, #13, #3
 800395e:	5cd3      	ldrb	r3, [r2, r3]
 8003960:	4a03      	ldr	r2, [pc, #12]	; (8003970 <HAL_RCC_GetPCLK2Freq+0x1c>)
 8003962:	6810      	ldr	r0, [r2, #0]
}
 8003964:	40d8      	lsrs	r0, r3
 8003966:	4770      	bx	lr
 8003968:	40023800 	.word	0x40023800
 800396c:	08007649 	.word	0x08007649
 8003970:	20000000 	.word	0x20000000

08003974 <HAL_RCC_GetClockConfig>:
  * @retval None
  */
void HAL_RCC_GetClockConfig(RCC_ClkInitTypeDef  *RCC_ClkInitStruct, uint32_t *pFLatency)
{
  /* Set all possible values for the Clock type parameter --------------------*/
  RCC_ClkInitStruct->ClockType = RCC_CLOCKTYPE_SYSCLK | RCC_CLOCKTYPE_HCLK | RCC_CLOCKTYPE_PCLK1 | RCC_CLOCKTYPE_PCLK2;
 8003974:	230f      	movs	r3, #15
 8003976:	6003      	str	r3, [r0, #0]

  /* Get the SYSCLK configuration --------------------------------------------*/
  RCC_ClkInitStruct->SYSCLKSource = (uint32_t)(RCC->CFGR & RCC_CFGR_SW);
 8003978:	4b0b      	ldr	r3, [pc, #44]	; (80039a8 <HAL_RCC_GetClockConfig+0x34>)
 800397a:	689a      	ldr	r2, [r3, #8]
 800397c:	f002 0203 	and.w	r2, r2, #3
 8003980:	6042      	str	r2, [r0, #4]

  /* Get the HCLK configuration ----------------------------------------------*/
  RCC_ClkInitStruct->AHBCLKDivider = (uint32_t)(RCC->CFGR & RCC_CFGR_HPRE);
 8003982:	689a      	ldr	r2, [r3, #8]
 8003984:	f002 02f0 	and.w	r2, r2, #240	; 0xf0
 8003988:	6082      	str	r2, [r0, #8]

  /* Get the APB1 configuration ----------------------------------------------*/
  RCC_ClkInitStruct->APB1CLKDivider = (uint32_t)(RCC->CFGR & RCC_CFGR_PPRE1);
 800398a:	689a      	ldr	r2, [r3, #8]
 800398c:	f402 52e0 	and.w	r2, r2, #7168	; 0x1c00
 8003990:	60c2      	str	r2, [r0, #12]

  /* Get the APB2 configuration ----------------------------------------------*/
  RCC_ClkInitStruct->APB2CLKDivider = (uint32_t)((RCC->CFGR & RCC_CFGR_PPRE2) >> 3U);
 8003992:	689b      	ldr	r3, [r3, #8]
 8003994:	08db      	lsrs	r3, r3, #3
 8003996:	f403 53e0 	and.w	r3, r3, #7168	; 0x1c00
 800399a:	6103      	str	r3, [r0, #16]

  /* Get the Flash Wait State (Latency) configuration ------------------------*/
  *pFLatency = (uint32_t)(FLASH->ACR & FLASH_ACR_LATENCY);
 800399c:	4b03      	ldr	r3, [pc, #12]	; (80039ac <HAL_RCC_GetClockConfig+0x38>)
 800399e:	681b      	ldr	r3, [r3, #0]
 80039a0:	f003 030f 	and.w	r3, r3, #15
 80039a4:	600b      	str	r3, [r1, #0]
 80039a6:	4770      	bx	lr
 80039a8:	40023800 	.word	0x40023800
 80039ac:	40023c00 	.word	0x40023c00

080039b0 <TIM_OC1_SetConfig>:
  uint32_t tmpccmrx = 0U;
  uint32_t tmpccer = 0U;
  uint32_t tmpcr2 = 0U;  

  /* Disable the Channel 1: Reset the CC1E Bit */
  TIMx->CCER &= ~TIM_CCER_CC1E;
 80039b0:	6a03      	ldr	r3, [r0, #32]
 80039b2:	f023 0301 	bic.w	r3, r3, #1
 80039b6:	6203      	str	r3, [r0, #32]
  
  /* Get the TIMx CCER register value */
  tmpccer = TIMx->CCER;
 80039b8:	6a03      	ldr	r3, [r0, #32]
  /* Get the TIMx CR2 register value */
  tmpcr2 = TIMx->CR2;
 80039ba:	6842      	ldr	r2, [r0, #4]
{
 80039bc:	b570      	push	{r4, r5, r6, lr}
  
  /* Get the TIMx CCMR1 register value */
  tmpccmrx = TIMx->CCMR1;
 80039be:	6984      	ldr	r4, [r0, #24]
    
  /* Reset the Output Compare Mode Bits */
  tmpccmrx &= ~TIM_CCMR1_OC1M;
  tmpccmrx &= ~TIM_CCMR1_CC1S;
  /* Select the Output Compare Mode */
  tmpccmrx |= OC_Config->OCMode;
 80039c0:	680d      	ldr	r5, [r1, #0]
  tmpccmrx &= ~TIM_CCMR1_CC1S;
 80039c2:	f024 0473 	bic.w	r4, r4, #115	; 0x73
  tmpccmrx |= OC_Config->OCMode;
 80039c6:	4325      	orrs	r5, r4
  
  /* Reset the Output Polarity level */
  tmpccer &= ~TIM_CCER_CC1P;
  /* Set the Output Compare Polarity */
  tmpccer |= OC_Config->OCPolarity;
 80039c8:	688c      	ldr	r4, [r1, #8]
  tmpccer &= ~TIM_CCER_CC1P;
 80039ca:	f023 0302 	bic.w	r3, r3, #2
  tmpccer |= OC_Config->OCPolarity;
 80039ce:	4323      	orrs	r3, r4

    
  if(IS_TIM_ADVANCED_INSTANCE(TIMx) != RESET)
 80039d0:	4c0c      	ldr	r4, [pc, #48]	; (8003a04 <TIM_OC1_SetConfig+0x54>)
 80039d2:	42a0      	cmp	r0, r4
 80039d4:	d009      	beq.n	80039ea <TIM_OC1_SetConfig+0x3a>
 80039d6:	f504 6480 	add.w	r4, r4, #1024	; 0x400
 80039da:	42a0      	cmp	r0, r4
 80039dc:	d005      	beq.n	80039ea <TIM_OC1_SetConfig+0x3a>
    tmpcr2 |= OC_Config->OCIdleState;
    /* Set the Output N Idle state */
    tmpcr2 |= OC_Config->OCNIdleState;
  }
  /* Write to TIMx CR2 */
  TIMx->CR2 = tmpcr2;
 80039de:	6042      	str	r2, [r0, #4]
  
  /* Write to TIMx CCMR1 */
  TIMx->CCMR1 = tmpccmrx;
  
  /* Set the Capture Compare Register value */
  TIMx->CCR1 = OC_Config->Pulse;
 80039e0:	684a      	ldr	r2, [r1, #4]
  TIMx->CCMR1 = tmpccmrx;
 80039e2:	6185      	str	r5, [r0, #24]
  TIMx->CCR1 = OC_Config->Pulse;
 80039e4:	6342      	str	r2, [r0, #52]	; 0x34
  
  /* Write to TIMx CCER */
  TIMx->CCER = tmpccer;  
 80039e6:	6203      	str	r3, [r0, #32]
} 
 80039e8:	bd70      	pop	{r4, r5, r6, pc}
    tmpccer |= OC_Config->OCNPolarity;
 80039ea:	68cc      	ldr	r4, [r1, #12]
    tmpcr2 |= OC_Config->OCNIdleState;
 80039ec:	698e      	ldr	r6, [r1, #24]
    tmpccer &= ~TIM_CCER_CC1NP;
 80039ee:	f023 0308 	bic.w	r3, r3, #8
    tmpccer |= OC_Config->OCNPolarity;
 80039f2:	4323      	orrs	r3, r4
    tmpcr2 |= OC_Config->OCNIdleState;
 80039f4:	694c      	ldr	r4, [r1, #20]
    tmpcr2 &= ~TIM_CR2_OIS1N;
 80039f6:	f422 7240 	bic.w	r2, r2, #768	; 0x300
    tmpcr2 |= OC_Config->OCNIdleState;
 80039fa:	4334      	orrs	r4, r6
    tmpccer &= ~TIM_CCER_CC1NE;
 80039fc:	f023 0304 	bic.w	r3, r3, #4
    tmpcr2 |= OC_Config->OCNIdleState;
 8003a00:	4322      	orrs	r2, r4
 8003a02:	e7ec      	b.n	80039de <TIM_OC1_SetConfig+0x2e>
 8003a04:	40010000 	.word	0x40010000

08003a08 <TIM_OC3_SetConfig>:
  uint32_t tmpccmrx = 0U;
  uint32_t tmpccer = 0U;
  uint32_t tmpcr2 = 0U;   

  /* Disable the Channel 3: Reset the CC2E Bit */
  TIMx->CCER &= ~TIM_CCER_CC3E;
 8003a08:	6a03      	ldr	r3, [r0, #32]
 8003a0a:	f423 7380 	bic.w	r3, r3, #256	; 0x100
 8003a0e:	6203      	str	r3, [r0, #32]
  
  /* Get the TIMx CCER register value */
  tmpccer = TIMx->CCER;
 8003a10:	6a03      	ldr	r3, [r0, #32]
  /* Get the TIMx CR2 register value */
  tmpcr2 = TIMx->CR2;
 8003a12:	6842      	ldr	r2, [r0, #4]
{
 8003a14:	b570      	push	{r4, r5, r6, lr}
  
  /* Get the TIMx CCMR2 register value */
  tmpccmrx = TIMx->CCMR2;
 8003a16:	69c4      	ldr	r4, [r0, #28]
    
  /* Reset the Output Compare mode and Capture/Compare selection Bits */
  tmpccmrx &= ~TIM_CCMR2_OC3M;
  tmpccmrx &= ~TIM_CCMR2_CC3S;  
  /* Select the Output Compare Mode */
  tmpccmrx |= OC_Config->OCMode;
 8003a18:	680d      	ldr	r5, [r1, #0]
  tmpccmrx &= ~TIM_CCMR2_CC3S;  
 8003a1a:	f024 0473 	bic.w	r4, r4, #115	; 0x73
  tmpccmrx |= OC_Config->OCMode;
 8003a1e:	4325      	orrs	r5, r4
  
  /* Reset the Output Polarity level */
  tmpccer &= ~TIM_CCER_CC3P;
  /* Set the Output Compare Polarity */
  tmpccer |= (OC_Config->OCPolarity << 8U);
 8003a20:	688c      	ldr	r4, [r1, #8]
  tmpccer &= ~TIM_CCER_CC3P;
 8003a22:	f423 7300 	bic.w	r3, r3, #512	; 0x200
  tmpccer |= (OC_Config->OCPolarity << 8U);
 8003a26:	ea43 2304 	orr.w	r3, r3, r4, lsl #8
    
  if(IS_TIM_ADVANCED_INSTANCE(TIMx) != RESET)
 8003a2a:	4c0e      	ldr	r4, [pc, #56]	; (8003a64 <TIM_OC3_SetConfig+0x5c>)
 8003a2c:	42a0      	cmp	r0, r4
 8003a2e:	d009      	beq.n	8003a44 <TIM_OC3_SetConfig+0x3c>
 8003a30:	f504 6480 	add.w	r4, r4, #1024	; 0x400
 8003a34:	42a0      	cmp	r0, r4
 8003a36:	d005      	beq.n	8003a44 <TIM_OC3_SetConfig+0x3c>
    tmpcr2 |= (OC_Config->OCIdleState << 4U);
    /* Set the Output N Idle state */
    tmpcr2 |= (OC_Config->OCNIdleState << 4U);
  }
  /* Write to TIMx CR2 */
  TIMx->CR2 = tmpcr2;
 8003a38:	6042      	str	r2, [r0, #4]
  
  /* Write to TIMx CCMR2 */
  TIMx->CCMR2 = tmpccmrx;
  
  /* Set the Capture Compare Register value */
  TIMx->CCR3 = OC_Config->Pulse;
 8003a3a:	684a      	ldr	r2, [r1, #4]
  TIMx->CCMR2 = tmpccmrx;
 8003a3c:	61c5      	str	r5, [r0, #28]
  TIMx->CCR3 = OC_Config->Pulse;
 8003a3e:	63c2      	str	r2, [r0, #60]	; 0x3c
  
  /* Write to TIMx CCER */
  TIMx->CCER = tmpccer;
 8003a40:	6203      	str	r3, [r0, #32]
}
 8003a42:	bd70      	pop	{r4, r5, r6, pc}
    tmpccer |= (OC_Config->OCNPolarity << 8U);
 8003a44:	68cc      	ldr	r4, [r1, #12]
    tmpcr2 |= (OC_Config->OCNIdleState << 4U);
 8003a46:	698e      	ldr	r6, [r1, #24]
    tmpccer &= ~TIM_CCER_CC3NP;
 8003a48:	f423 6300 	bic.w	r3, r3, #2048	; 0x800
    tmpccer |= (OC_Config->OCNPolarity << 8U);
 8003a4c:	ea43 2304 	orr.w	r3, r3, r4, lsl #8
    tmpcr2 |= (OC_Config->OCIdleState << 4U);
 8003a50:	694c      	ldr	r4, [r1, #20]
    tmpcr2 &= ~TIM_CR2_OIS3N;
 8003a52:	f422 5240 	bic.w	r2, r2, #12288	; 0x3000
    tmpcr2 |= (OC_Config->OCNIdleState << 4U);
 8003a56:	4334      	orrs	r4, r6
    tmpccer &= ~TIM_CCER_CC3NE;
 8003a58:	f423 6380 	bic.w	r3, r3, #1024	; 0x400
    tmpcr2 |= (OC_Config->OCNIdleState << 4U);
 8003a5c:	ea42 1204 	orr.w	r2, r2, r4, lsl #4
 8003a60:	e7ea      	b.n	8003a38 <TIM_OC3_SetConfig+0x30>
 8003a62:	bf00      	nop
 8003a64:	40010000 	.word	0x40010000

08003a68 <TIM_OC4_SetConfig>:
  uint32_t tmpccmrx = 0U;
  uint32_t tmpccer = 0U;
  uint32_t tmpcr2 = 0U;

  /* Disable the Channel 4: Reset the CC4E Bit */
  TIMx->CCER &= ~TIM_CCER_CC4E;
 8003a68:	6a03      	ldr	r3, [r0, #32]
 8003a6a:	f423 5380 	bic.w	r3, r3, #4096	; 0x1000
 8003a6e:	6203      	str	r3, [r0, #32]
{
 8003a70:	b530      	push	{r4, r5, lr}
  
  /* Get the TIMx CCER register value */
  tmpccer = TIMx->CCER;
 8003a72:	6a04      	ldr	r4, [r0, #32]
  /* Get the TIMx CR2 register value */
  tmpcr2 = TIMx->CR2;
 8003a74:	6843      	ldr	r3, [r0, #4]
  
  /* Get the TIMx CCMR2 register value */
  tmpccmrx = TIMx->CCMR2;
 8003a76:	69c2      	ldr	r2, [r0, #28]
  /* Reset the Output Compare mode and Capture/Compare selection Bits */
  tmpccmrx &= ~TIM_CCMR2_OC4M;
  tmpccmrx &= ~TIM_CCMR2_CC4S;
  
  /* Select the Output Compare Mode */
  tmpccmrx |= (OC_Config->OCMode << 8U);
 8003a78:	680d      	ldr	r5, [r1, #0]
  tmpccmrx &= ~TIM_CCMR2_CC4S;
 8003a7a:	f422 42e6 	bic.w	r2, r2, #29440	; 0x7300
  tmpccmrx |= (OC_Config->OCMode << 8U);
 8003a7e:	ea42 2205 	orr.w	r2, r2, r5, lsl #8
  
  /* Reset the Output Polarity level */
  tmpccer &= ~TIM_CCER_CC4P;
  /* Set the Output Compare Polarity */
  tmpccer |= (OC_Config->OCPolarity << 12U);
 8003a82:	688d      	ldr	r5, [r1, #8]
  tmpccer &= ~TIM_CCER_CC4P;
 8003a84:	f424 5400 	bic.w	r4, r4, #8192	; 0x2000
  tmpccer |= (OC_Config->OCPolarity << 12U);
 8003a88:	ea44 3405 	orr.w	r4, r4, r5, lsl #12
   
  /*if((TIMx == TIM1) || (TIMx == TIM8))*/
  if(IS_TIM_ADVANCED_INSTANCE(TIMx) != RESET)
 8003a8c:	4d09      	ldr	r5, [pc, #36]	; (8003ab4 <TIM_OC4_SetConfig+0x4c>)
 8003a8e:	42a8      	cmp	r0, r5
 8003a90:	d009      	beq.n	8003aa6 <TIM_OC4_SetConfig+0x3e>
 8003a92:	f505 6580 	add.w	r5, r5, #1024	; 0x400
 8003a96:	42a8      	cmp	r0, r5
 8003a98:	d005      	beq.n	8003aa6 <TIM_OC4_SetConfig+0x3e>
    tmpcr2 &= ~TIM_CR2_OIS4;
    /* Set the Output Idle state */
    tmpcr2 |= (OC_Config->OCIdleState << 6U);
  }
  /* Write to TIMx CR2 */
  TIMx->CR2 = tmpcr2;
 8003a9a:	6043      	str	r3, [r0, #4]
  
  /* Write to TIMx CCMR2 */  
  TIMx->CCMR2 = tmpccmrx;
    
  /* Set the Capture Compare Register value */
  TIMx->CCR4 = OC_Config->Pulse;
 8003a9c:	684b      	ldr	r3, [r1, #4]
  TIMx->CCMR2 = tmpccmrx;
 8003a9e:	61c2      	str	r2, [r0, #28]
  TIMx->CCR4 = OC_Config->Pulse;
 8003aa0:	6403      	str	r3, [r0, #64]	; 0x40
  
  /* Write to TIMx CCER */
  TIMx->CCER = tmpccer;
 8003aa2:	6204      	str	r4, [r0, #32]
}
 8003aa4:	bd30      	pop	{r4, r5, pc}
    tmpcr2 |= (OC_Config->OCIdleState << 6U);
 8003aa6:	694d      	ldr	r5, [r1, #20]
    tmpcr2 &= ~TIM_CR2_OIS4;
 8003aa8:	f423 4380 	bic.w	r3, r3, #16384	; 0x4000
    tmpcr2 |= (OC_Config->OCIdleState << 6U);
 8003aac:	ea43 1385 	orr.w	r3, r3, r5, lsl #6
 8003ab0:	e7f3      	b.n	8003a9a <TIM_OC4_SetConfig+0x32>
 8003ab2:	bf00      	nop
 8003ab4:	40010000 	.word	0x40010000

08003ab8 <HAL_TIM_Base_Start_IT>:
  __HAL_TIM_ENABLE_IT(htim, TIM_IT_UPDATE);
 8003ab8:	6803      	ldr	r3, [r0, #0]
 8003aba:	68da      	ldr	r2, [r3, #12]
 8003abc:	f042 0201 	orr.w	r2, r2, #1
 8003ac0:	60da      	str	r2, [r3, #12]
  __HAL_TIM_ENABLE(htim);
 8003ac2:	681a      	ldr	r2, [r3, #0]
 8003ac4:	f042 0201 	orr.w	r2, r2, #1
 8003ac8:	601a      	str	r2, [r3, #0]
}
 8003aca:	2000      	movs	r0, #0
 8003acc:	4770      	bx	lr

08003ace <HAL_TIM_Base_Stop_IT>:
  __HAL_TIM_DISABLE_IT(htim, TIM_IT_UPDATE);
 8003ace:	6803      	ldr	r3, [r0, #0]
 8003ad0:	68da      	ldr	r2, [r3, #12]
 8003ad2:	f022 0201 	bic.w	r2, r2, #1
 8003ad6:	60da      	str	r2, [r3, #12]
  __HAL_TIM_DISABLE(htim);
 8003ad8:	6a19      	ldr	r1, [r3, #32]
 8003ada:	f241 1211 	movw	r2, #4369	; 0x1111
 8003ade:	4211      	tst	r1, r2
 8003ae0:	d108      	bne.n	8003af4 <HAL_TIM_Base_Stop_IT+0x26>
 8003ae2:	6a19      	ldr	r1, [r3, #32]
 8003ae4:	f240 4244 	movw	r2, #1092	; 0x444
 8003ae8:	4211      	tst	r1, r2
 8003aea:	bf02      	ittt	eq
 8003aec:	681a      	ldreq	r2, [r3, #0]
 8003aee:	f022 0201 	biceq.w	r2, r2, #1
 8003af2:	601a      	streq	r2, [r3, #0]
}
 8003af4:	2000      	movs	r0, #0
 8003af6:	4770      	bx	lr

08003af8 <HAL_TIM_OC_DelayElapsedCallback>:
 8003af8:	4770      	bx	lr

08003afa <HAL_TIM_IC_CaptureCallback>:
 8003afa:	4770      	bx	lr

08003afc <HAL_TIM_TriggerCallback>:
 8003afc:	4770      	bx	lr

08003afe <HAL_TIM_IRQHandler>:
  if(__HAL_TIM_GET_FLAG(htim, TIM_FLAG_CC1) != RESET)
 8003afe:	6803      	ldr	r3, [r0, #0]
 8003b00:	691a      	ldr	r2, [r3, #16]
 8003b02:	0791      	lsls	r1, r2, #30
{
 8003b04:	b510      	push	{r4, lr}
 8003b06:	4604      	mov	r4, r0
  if(__HAL_TIM_GET_FLAG(htim, TIM_FLAG_CC1) != RESET)
 8003b08:	d50e      	bpl.n	8003b28 <HAL_TIM_IRQHandler+0x2a>
    if(__HAL_TIM_GET_IT_SOURCE(htim, TIM_IT_CC1) !=RESET)
 8003b0a:	68da      	ldr	r2, [r3, #12]
 8003b0c:	0792      	lsls	r2, r2, #30
 8003b0e:	d50b      	bpl.n	8003b28 <HAL_TIM_IRQHandler+0x2a>
        __HAL_TIM_CLEAR_IT(htim, TIM_IT_CC1);
 8003b10:	f06f 0202 	mvn.w	r2, #2
 8003b14:	611a      	str	r2, [r3, #16]
        if((htim->Instance->CCMR1 & TIM_CCMR1_CC1S) != 0x00U)
 8003b16:	699b      	ldr	r3, [r3, #24]
        htim->Channel = HAL_TIM_ACTIVE_CHANNEL_1;
 8003b18:	2201      	movs	r2, #1
        if((htim->Instance->CCMR1 & TIM_CCMR1_CC1S) != 0x00U)
 8003b1a:	079b      	lsls	r3, r3, #30
        htim->Channel = HAL_TIM_ACTIVE_CHANNEL_1;
 8003b1c:	7602      	strb	r2, [r0, #24]
        if((htim->Instance->CCMR1 & TIM_CCMR1_CC1S) != 0x00U)
 8003b1e:	d077      	beq.n	8003c10 <HAL_TIM_IRQHandler+0x112>
          HAL_TIM_IC_CaptureCallback(htim);
 8003b20:	f7ff ffeb 	bl	8003afa <HAL_TIM_IC_CaptureCallback>
        htim->Channel = HAL_TIM_ACTIVE_CHANNEL_CLEARED;
 8003b24:	2300      	movs	r3, #0
 8003b26:	7623      	strb	r3, [r4, #24]
  if(__HAL_TIM_GET_FLAG(htim, TIM_FLAG_CC2) != RESET)
 8003b28:	6823      	ldr	r3, [r4, #0]
 8003b2a:	691a      	ldr	r2, [r3, #16]
 8003b2c:	0750      	lsls	r0, r2, #29
 8003b2e:	d510      	bpl.n	8003b52 <HAL_TIM_IRQHandler+0x54>
    if(__HAL_TIM_GET_IT_SOURCE(htim, TIM_IT_CC2) !=RESET)
 8003b30:	68da      	ldr	r2, [r3, #12]
 8003b32:	0751      	lsls	r1, r2, #29
 8003b34:	d50d      	bpl.n	8003b52 <HAL_TIM_IRQHandler+0x54>
      __HAL_TIM_CLEAR_IT(htim, TIM_IT_CC2);
 8003b36:	f06f 0204 	mvn.w	r2, #4
 8003b3a:	611a      	str	r2, [r3, #16]
      if((htim->Instance->CCMR1 & TIM_CCMR1_CC2S) != 0x00U)
 8003b3c:	699b      	ldr	r3, [r3, #24]
      htim->Channel = HAL_TIM_ACTIVE_CHANNEL_2;
 8003b3e:	2202      	movs	r2, #2
      if((htim->Instance->CCMR1 & TIM_CCMR1_CC2S) != 0x00U)
 8003b40:	f413 7f40 	tst.w	r3, #768	; 0x300
      htim->Channel = HAL_TIM_ACTIVE_CHANNEL_2;
 8003b44:	7622      	strb	r2, [r4, #24]
        HAL_TIM_IC_CaptureCallback(htim);
 8003b46:	4620      	mov	r0, r4
      if((htim->Instance->CCMR1 & TIM_CCMR1_CC2S) != 0x00U)
 8003b48:	d068      	beq.n	8003c1c <HAL_TIM_IRQHandler+0x11e>
        HAL_TIM_IC_CaptureCallback(htim);
 8003b4a:	f7ff ffd6 	bl	8003afa <HAL_TIM_IC_CaptureCallback>
      htim->Channel = HAL_TIM_ACTIVE_CHANNEL_CLEARED;
 8003b4e:	2300      	movs	r3, #0
 8003b50:	7623      	strb	r3, [r4, #24]
  if(__HAL_TIM_GET_FLAG(htim, TIM_FLAG_CC3) != RESET)
 8003b52:	6823      	ldr	r3, [r4, #0]
 8003b54:	691a      	ldr	r2, [r3, #16]
 8003b56:	0712      	lsls	r2, r2, #28
 8003b58:	d50f      	bpl.n	8003b7a <HAL_TIM_IRQHandler+0x7c>
    if(__HAL_TIM_GET_IT_SOURCE(htim, TIM_IT_CC3) !=RESET)
 8003b5a:	68da      	ldr	r2, [r3, #12]
 8003b5c:	0710      	lsls	r0, r2, #28
 8003b5e:	d50c      	bpl.n	8003b7a <HAL_TIM_IRQHandler+0x7c>
      __HAL_TIM_CLEAR_IT(htim, TIM_IT_CC3);
 8003b60:	f06f 0208 	mvn.w	r2, #8
 8003b64:	611a      	str	r2, [r3, #16]
      if((htim->Instance->CCMR2 & TIM_CCMR2_CC3S) != 0x00U)
 8003b66:	69db      	ldr	r3, [r3, #28]
      htim->Channel = HAL_TIM_ACTIVE_CHANNEL_3;
 8003b68:	2204      	movs	r2, #4
      if((htim->Instance->CCMR2 & TIM_CCMR2_CC3S) != 0x00U)
 8003b6a:	0799      	lsls	r1, r3, #30
      htim->Channel = HAL_TIM_ACTIVE_CHANNEL_3;
 8003b6c:	7622      	strb	r2, [r4, #24]
        HAL_TIM_IC_CaptureCallback(htim);
 8003b6e:	4620      	mov	r0, r4
      if((htim->Instance->CCMR2 & TIM_CCMR2_CC3S) != 0x00U)
 8003b70:	d05a      	beq.n	8003c28 <HAL_TIM_IRQHandler+0x12a>
        HAL_TIM_IC_CaptureCallback(htim);
 8003b72:	f7ff ffc2 	bl	8003afa <HAL_TIM_IC_CaptureCallback>
      htim->Channel = HAL_TIM_ACTIVE_CHANNEL_CLEARED;
 8003b76:	2300      	movs	r3, #0
 8003b78:	7623      	strb	r3, [r4, #24]
  if(__HAL_TIM_GET_FLAG(htim, TIM_FLAG_CC4) != RESET)
 8003b7a:	6823      	ldr	r3, [r4, #0]
 8003b7c:	691a      	ldr	r2, [r3, #16]
 8003b7e:	06d2      	lsls	r2, r2, #27
 8003b80:	d510      	bpl.n	8003ba4 <HAL_TIM_IRQHandler+0xa6>
    if(__HAL_TIM_GET_IT_SOURCE(htim, TIM_IT_CC4) !=RESET)
 8003b82:	68da      	ldr	r2, [r3, #12]
 8003b84:	06d0      	lsls	r0, r2, #27
 8003b86:	d50d      	bpl.n	8003ba4 <HAL_TIM_IRQHandler+0xa6>
      __HAL_TIM_CLEAR_IT(htim, TIM_IT_CC4);
 8003b88:	f06f 0210 	mvn.w	r2, #16
 8003b8c:	611a      	str	r2, [r3, #16]
      if((htim->Instance->CCMR2 & TIM_CCMR2_CC4S) != 0x00U)
 8003b8e:	69db      	ldr	r3, [r3, #28]
      htim->Channel = HAL_TIM_ACTIVE_CHANNEL_4;
 8003b90:	2208      	movs	r2, #8
      if((htim->Instance->CCMR2 & TIM_CCMR2_CC4S) != 0x00U)
 8003b92:	f413 7f40 	tst.w	r3, #768	; 0x300
      htim->Channel = HAL_TIM_ACTIVE_CHANNEL_4;
 8003b96:	7622      	strb	r2, [r4, #24]
        HAL_TIM_IC_CaptureCallback(htim);
 8003b98:	4620      	mov	r0, r4
      if((htim->Instance->CCMR2 & TIM_CCMR2_CC4S) != 0x00U)
 8003b9a:	d04b      	beq.n	8003c34 <HAL_TIM_IRQHandler+0x136>
        HAL_TIM_IC_CaptureCallback(htim);
 8003b9c:	f7ff ffad 	bl	8003afa <HAL_TIM_IC_CaptureCallback>
      htim->Channel = HAL_TIM_ACTIVE_CHANNEL_CLEARED;
 8003ba0:	2300      	movs	r3, #0
 8003ba2:	7623      	strb	r3, [r4, #24]
  if(__HAL_TIM_GET_FLAG(htim, TIM_FLAG_UPDATE) != RESET)
 8003ba4:	6823      	ldr	r3, [r4, #0]
 8003ba6:	691a      	ldr	r2, [r3, #16]
 8003ba8:	07d1      	lsls	r1, r2, #31
 8003baa:	d508      	bpl.n	8003bbe <HAL_TIM_IRQHandler+0xc0>
    if(__HAL_TIM_GET_IT_SOURCE(htim, TIM_IT_UPDATE) !=RESET)
 8003bac:	68da      	ldr	r2, [r3, #12]
 8003bae:	07d2      	lsls	r2, r2, #31
 8003bb0:	d505      	bpl.n	8003bbe <HAL_TIM_IRQHandler+0xc0>
      __HAL_TIM_CLEAR_IT(htim, TIM_IT_UPDATE);
 8003bb2:	f06f 0201 	mvn.w	r2, #1
 8003bb6:	611a      	str	r2, [r3, #16]
      HAL_TIM_PeriodElapsedCallback(htim);
 8003bb8:	4620      	mov	r0, r4
 8003bba:	f7fd fa2f 	bl	800101c <HAL_TIM_PeriodElapsedCallback>
  if(__HAL_TIM_GET_FLAG(htim, TIM_FLAG_BREAK) != RESET)
 8003bbe:	6823      	ldr	r3, [r4, #0]
 8003bc0:	691a      	ldr	r2, [r3, #16]
 8003bc2:	0610      	lsls	r0, r2, #24
 8003bc4:	d508      	bpl.n	8003bd8 <HAL_TIM_IRQHandler+0xda>
    if(__HAL_TIM_GET_IT_SOURCE(htim, TIM_IT_BREAK) !=RESET)
 8003bc6:	68da      	ldr	r2, [r3, #12]
 8003bc8:	0611      	lsls	r1, r2, #24
 8003bca:	d505      	bpl.n	8003bd8 <HAL_TIM_IRQHandler+0xda>
      __HAL_TIM_CLEAR_IT(htim, TIM_IT_BREAK);
 8003bcc:	f06f 0280 	mvn.w	r2, #128	; 0x80
 8003bd0:	611a      	str	r2, [r3, #16]
      HAL_TIMEx_BreakCallback(htim);
 8003bd2:	4620      	mov	r0, r4
 8003bd4:	f000 f9a7 	bl	8003f26 <HAL_TIMEx_BreakCallback>
  if(__HAL_TIM_GET_FLAG(htim, TIM_FLAG_TRIGGER) != RESET)
 8003bd8:	6823      	ldr	r3, [r4, #0]
 8003bda:	691a      	ldr	r2, [r3, #16]
 8003bdc:	0652      	lsls	r2, r2, #25
 8003bde:	d508      	bpl.n	8003bf2 <HAL_TIM_IRQHandler+0xf4>
    if(__HAL_TIM_GET_IT_SOURCE(htim, TIM_IT_TRIGGER) !=RESET)
 8003be0:	68da      	ldr	r2, [r3, #12]
 8003be2:	0650      	lsls	r0, r2, #25
 8003be4:	d505      	bpl.n	8003bf2 <HAL_TIM_IRQHandler+0xf4>
      __HAL_TIM_CLEAR_IT(htim, TIM_IT_TRIGGER);
 8003be6:	f06f 0240 	mvn.w	r2, #64	; 0x40
 8003bea:	611a      	str	r2, [r3, #16]
      HAL_TIM_TriggerCallback(htim);
 8003bec:	4620      	mov	r0, r4
 8003bee:	f7ff ff85 	bl	8003afc <HAL_TIM_TriggerCallback>
  if(__HAL_TIM_GET_FLAG(htim, TIM_FLAG_COM) != RESET)
 8003bf2:	6823      	ldr	r3, [r4, #0]
 8003bf4:	691a      	ldr	r2, [r3, #16]
 8003bf6:	0691      	lsls	r1, r2, #26
 8003bf8:	d522      	bpl.n	8003c40 <HAL_TIM_IRQHandler+0x142>
    if(__HAL_TIM_GET_IT_SOURCE(htim, TIM_IT_COM) !=RESET)
 8003bfa:	68da      	ldr	r2, [r3, #12]
 8003bfc:	0692      	lsls	r2, r2, #26
 8003bfe:	d51f      	bpl.n	8003c40 <HAL_TIM_IRQHandler+0x142>
      __HAL_TIM_CLEAR_IT(htim, TIM_FLAG_COM);
 8003c00:	f06f 0220 	mvn.w	r2, #32
      HAL_TIMEx_CommutationCallback(htim);
 8003c04:	4620      	mov	r0, r4
      __HAL_TIM_CLEAR_IT(htim, TIM_FLAG_COM);
 8003c06:	611a      	str	r2, [r3, #16]
}
 8003c08:	e8bd 4010 	ldmia.w	sp!, {r4, lr}
      HAL_TIMEx_CommutationCallback(htim);
 8003c0c:	f000 b98a 	b.w	8003f24 <HAL_TIMEx_CommutationCallback>
          HAL_TIM_OC_DelayElapsedCallback(htim);
 8003c10:	f7ff ff72 	bl	8003af8 <HAL_TIM_OC_DelayElapsedCallback>
          HAL_TIM_PWM_PulseFinishedCallback(htim);
 8003c14:	4620      	mov	r0, r4
 8003c16:	f7fd ff61 	bl	8001adc <HAL_TIM_PWM_PulseFinishedCallback>
 8003c1a:	e783      	b.n	8003b24 <HAL_TIM_IRQHandler+0x26>
        HAL_TIM_OC_DelayElapsedCallback(htim);
 8003c1c:	f7ff ff6c 	bl	8003af8 <HAL_TIM_OC_DelayElapsedCallback>
        HAL_TIM_PWM_PulseFinishedCallback(htim);
 8003c20:	4620      	mov	r0, r4
 8003c22:	f7fd ff5b 	bl	8001adc <HAL_TIM_PWM_PulseFinishedCallback>
 8003c26:	e792      	b.n	8003b4e <HAL_TIM_IRQHandler+0x50>
        HAL_TIM_OC_DelayElapsedCallback(htim);
 8003c28:	f7ff ff66 	bl	8003af8 <HAL_TIM_OC_DelayElapsedCallback>
        HAL_TIM_PWM_PulseFinishedCallback(htim); 
 8003c2c:	4620      	mov	r0, r4
 8003c2e:	f7fd ff55 	bl	8001adc <HAL_TIM_PWM_PulseFinishedCallback>
 8003c32:	e7a0      	b.n	8003b76 <HAL_TIM_IRQHandler+0x78>
        HAL_TIM_OC_DelayElapsedCallback(htim);
 8003c34:	f7ff ff60 	bl	8003af8 <HAL_TIM_OC_DelayElapsedCallback>
        HAL_TIM_PWM_PulseFinishedCallback(htim);
 8003c38:	4620      	mov	r0, r4
 8003c3a:	f7fd ff4f 	bl	8001adc <HAL_TIM_PWM_PulseFinishedCallback>
 8003c3e:	e7af      	b.n	8003ba0 <HAL_TIM_IRQHandler+0xa2>
 8003c40:	bd10      	pop	{r4, pc}
	...

08003c44 <TIM_Base_SetConfig>:
  if(IS_TIM_CC3_INSTANCE(TIMx) != RESET)   
 8003c44:	4a2e      	ldr	r2, [pc, #184]	; (8003d00 <TIM_Base_SetConfig+0xbc>)
  tmpcr1 = TIMx->CR1;
 8003c46:	6803      	ldr	r3, [r0, #0]
  if(IS_TIM_CC3_INSTANCE(TIMx) != RESET)   
 8003c48:	4290      	cmp	r0, r2
 8003c4a:	d012      	beq.n	8003c72 <TIM_Base_SetConfig+0x2e>
 8003c4c:	f1b0 4f80 	cmp.w	r0, #1073741824	; 0x40000000
 8003c50:	d00f      	beq.n	8003c72 <TIM_Base_SetConfig+0x2e>
 8003c52:	f5a2 427c 	sub.w	r2, r2, #64512	; 0xfc00
 8003c56:	4290      	cmp	r0, r2
 8003c58:	d00b      	beq.n	8003c72 <TIM_Base_SetConfig+0x2e>
 8003c5a:	f502 6280 	add.w	r2, r2, #1024	; 0x400
 8003c5e:	4290      	cmp	r0, r2
 8003c60:	d007      	beq.n	8003c72 <TIM_Base_SetConfig+0x2e>
 8003c62:	f502 6280 	add.w	r2, r2, #1024	; 0x400
 8003c66:	4290      	cmp	r0, r2
 8003c68:	d003      	beq.n	8003c72 <TIM_Base_SetConfig+0x2e>
 8003c6a:	f502 4278 	add.w	r2, r2, #63488	; 0xf800
 8003c6e:	4290      	cmp	r0, r2
 8003c70:	d11d      	bne.n	8003cae <TIM_Base_SetConfig+0x6a>
    tmpcr1 |= Structure->CounterMode;
 8003c72:	684a      	ldr	r2, [r1, #4]
    tmpcr1 &= ~(TIM_CR1_DIR | TIM_CR1_CMS);
 8003c74:	f023 0370 	bic.w	r3, r3, #112	; 0x70
    tmpcr1 |= Structure->CounterMode;
 8003c78:	4313      	orrs	r3, r2
  if(IS_TIM_CC1_INSTANCE(TIMx) != RESET)  
 8003c7a:	4a21      	ldr	r2, [pc, #132]	; (8003d00 <TIM_Base_SetConfig+0xbc>)
 8003c7c:	4290      	cmp	r0, r2
 8003c7e:	d104      	bne.n	8003c8a <TIM_Base_SetConfig+0x46>
    tmpcr1 |= (uint32_t)Structure->ClockDivision;
 8003c80:	68ca      	ldr	r2, [r1, #12]
    tmpcr1 &= ~TIM_CR1_CKD;
 8003c82:	f423 7340 	bic.w	r3, r3, #768	; 0x300
    tmpcr1 |= (uint32_t)Structure->ClockDivision;
 8003c86:	4313      	orrs	r3, r2
 8003c88:	e028      	b.n	8003cdc <TIM_Base_SetConfig+0x98>
  if(IS_TIM_CC1_INSTANCE(TIMx) != RESET)  
 8003c8a:	f1b0 4f80 	cmp.w	r0, #1073741824	; 0x40000000
 8003c8e:	d0f7      	beq.n	8003c80 <TIM_Base_SetConfig+0x3c>
 8003c90:	4a1c      	ldr	r2, [pc, #112]	; (8003d04 <TIM_Base_SetConfig+0xc0>)
 8003c92:	4290      	cmp	r0, r2
 8003c94:	d0f4      	beq.n	8003c80 <TIM_Base_SetConfig+0x3c>
 8003c96:	f502 6280 	add.w	r2, r2, #1024	; 0x400
 8003c9a:	4290      	cmp	r0, r2
 8003c9c:	d0f0      	beq.n	8003c80 <TIM_Base_SetConfig+0x3c>
 8003c9e:	f502 6280 	add.w	r2, r2, #1024	; 0x400
 8003ca2:	4290      	cmp	r0, r2
 8003ca4:	d0ec      	beq.n	8003c80 <TIM_Base_SetConfig+0x3c>
 8003ca6:	f502 4278 	add.w	r2, r2, #63488	; 0xf800
 8003caa:	4290      	cmp	r0, r2
 8003cac:	d0e8      	beq.n	8003c80 <TIM_Base_SetConfig+0x3c>
 8003cae:	4a16      	ldr	r2, [pc, #88]	; (8003d08 <TIM_Base_SetConfig+0xc4>)
 8003cb0:	4290      	cmp	r0, r2
 8003cb2:	d0e5      	beq.n	8003c80 <TIM_Base_SetConfig+0x3c>
 8003cb4:	f502 6280 	add.w	r2, r2, #1024	; 0x400
 8003cb8:	4290      	cmp	r0, r2
 8003cba:	d0e1      	beq.n	8003c80 <TIM_Base_SetConfig+0x3c>
 8003cbc:	f502 6280 	add.w	r2, r2, #1024	; 0x400
 8003cc0:	4290      	cmp	r0, r2
 8003cc2:	d0dd      	beq.n	8003c80 <TIM_Base_SetConfig+0x3c>
 8003cc4:	f5a2 3298 	sub.w	r2, r2, #77824	; 0x13000
 8003cc8:	4290      	cmp	r0, r2
 8003cca:	d0d9      	beq.n	8003c80 <TIM_Base_SetConfig+0x3c>
 8003ccc:	f502 6280 	add.w	r2, r2, #1024	; 0x400
 8003cd0:	4290      	cmp	r0, r2
 8003cd2:	d0d5      	beq.n	8003c80 <TIM_Base_SetConfig+0x3c>
 8003cd4:	f502 6280 	add.w	r2, r2, #1024	; 0x400
 8003cd8:	4290      	cmp	r0, r2
 8003cda:	d0d1      	beq.n	8003c80 <TIM_Base_SetConfig+0x3c>
  TIMx->CR1 = tmpcr1;
 8003cdc:	6003      	str	r3, [r0, #0]
  TIMx->ARR = (uint32_t)Structure->Period ;
 8003cde:	688b      	ldr	r3, [r1, #8]
 8003ce0:	62c3      	str	r3, [r0, #44]	; 0x2c
  TIMx->PSC = (uint32_t)Structure->Prescaler;
 8003ce2:	680b      	ldr	r3, [r1, #0]
 8003ce4:	6283      	str	r3, [r0, #40]	; 0x28
  if(IS_TIM_ADVANCED_INSTANCE(TIMx) != RESET)  
 8003ce6:	4b06      	ldr	r3, [pc, #24]	; (8003d00 <TIM_Base_SetConfig+0xbc>)
 8003ce8:	4298      	cmp	r0, r3
 8003cea:	d006      	beq.n	8003cfa <TIM_Base_SetConfig+0xb6>
 8003cec:	f503 6380 	add.w	r3, r3, #1024	; 0x400
 8003cf0:	4298      	cmp	r0, r3
 8003cf2:	d002      	beq.n	8003cfa <TIM_Base_SetConfig+0xb6>
  TIMx->EGR = TIM_EGR_UG;
 8003cf4:	2301      	movs	r3, #1
 8003cf6:	6143      	str	r3, [r0, #20]
}
 8003cf8:	4770      	bx	lr
    TIMx->RCR = Structure->RepetitionCounter;
 8003cfa:	690b      	ldr	r3, [r1, #16]
 8003cfc:	6303      	str	r3, [r0, #48]	; 0x30
 8003cfe:	e7f9      	b.n	8003cf4 <TIM_Base_SetConfig+0xb0>
 8003d00:	40010000 	.word	0x40010000
 8003d04:	40000400 	.word	0x40000400
 8003d08:	40014000 	.word	0x40014000

08003d0c <HAL_TIM_Base_Init>:
{ 
 8003d0c:	b510      	push	{r4, lr}
  if(htim == NULL)
 8003d0e:	4604      	mov	r4, r0
 8003d10:	b1a0      	cbz	r0, 8003d3c <HAL_TIM_Base_Init+0x30>
  if(htim->State == HAL_TIM_STATE_RESET)
 8003d12:	f890 3039 	ldrb.w	r3, [r0, #57]	; 0x39
 8003d16:	f003 02ff 	and.w	r2, r3, #255	; 0xff
 8003d1a:	b91b      	cbnz	r3, 8003d24 <HAL_TIM_Base_Init+0x18>
    htim->Lock = HAL_UNLOCKED;
 8003d1c:	f880 2038 	strb.w	r2, [r0, #56]	; 0x38
    HAL_TIM_Base_MspInit(htim);
 8003d20:	f7fd fc84 	bl	800162c <HAL_TIM_Base_MspInit>
  htim->State= HAL_TIM_STATE_BUSY;
 8003d24:	2302      	movs	r3, #2
 8003d26:	f884 3039 	strb.w	r3, [r4, #57]	; 0x39
  TIM_Base_SetConfig(htim->Instance, &htim->Init); 
 8003d2a:	6820      	ldr	r0, [r4, #0]
 8003d2c:	1d21      	adds	r1, r4, #4
 8003d2e:	f7ff ff89 	bl	8003c44 <TIM_Base_SetConfig>
  htim->State= HAL_TIM_STATE_READY;
 8003d32:	2301      	movs	r3, #1
 8003d34:	f884 3039 	strb.w	r3, [r4, #57]	; 0x39
  return HAL_OK;
 8003d38:	2000      	movs	r0, #0
 8003d3a:	bd10      	pop	{r4, pc}
    return HAL_ERROR;
 8003d3c:	2001      	movs	r0, #1
}
 8003d3e:	bd10      	pop	{r4, pc}

08003d40 <HAL_TIM_PWM_Init>:
{
 8003d40:	b510      	push	{r4, lr}
  if(htim == NULL)
 8003d42:	4604      	mov	r4, r0
 8003d44:	b1a0      	cbz	r0, 8003d70 <HAL_TIM_PWM_Init+0x30>
  if(htim->State == HAL_TIM_STATE_RESET)
 8003d46:	f890 3039 	ldrb.w	r3, [r0, #57]	; 0x39
 8003d4a:	f003 02ff 	and.w	r2, r3, #255	; 0xff
 8003d4e:	b91b      	cbnz	r3, 8003d58 <HAL_TIM_PWM_Init+0x18>
    htim->Lock = HAL_UNLOCKED;
 8003d50:	f880 2038 	strb.w	r2, [r0, #56]	; 0x38
    HAL_TIM_PWM_MspInit(htim);
 8003d54:	f7fd fc06 	bl	8001564 <HAL_TIM_PWM_MspInit>
  htim->State= HAL_TIM_STATE_BUSY;  
 8003d58:	2302      	movs	r3, #2
 8003d5a:	f884 3039 	strb.w	r3, [r4, #57]	; 0x39
  TIM_Base_SetConfig(htim->Instance, &htim->Init); 
 8003d5e:	6820      	ldr	r0, [r4, #0]
 8003d60:	1d21      	adds	r1, r4, #4
 8003d62:	f7ff ff6f 	bl	8003c44 <TIM_Base_SetConfig>
  htim->State= HAL_TIM_STATE_READY;
 8003d66:	2301      	movs	r3, #1
 8003d68:	f884 3039 	strb.w	r3, [r4, #57]	; 0x39
  return HAL_OK;
 8003d6c:	2000      	movs	r0, #0
 8003d6e:	bd10      	pop	{r4, pc}
    return HAL_ERROR;
 8003d70:	2001      	movs	r0, #1
}  
 8003d72:	bd10      	pop	{r4, pc}

08003d74 <TIM_OC2_SetConfig>:
  TIMx->CCER &= ~TIM_CCER_CC2E;
 8003d74:	6a03      	ldr	r3, [r0, #32]
 8003d76:	f023 0310 	bic.w	r3, r3, #16
 8003d7a:	6203      	str	r3, [r0, #32]
  tmpccer = TIMx->CCER;
 8003d7c:	6a03      	ldr	r3, [r0, #32]
  tmpcr2 = TIMx->CR2;
 8003d7e:	6842      	ldr	r2, [r0, #4]
{
 8003d80:	b570      	push	{r4, r5, r6, lr}
  tmpccmrx = TIMx->CCMR1;
 8003d82:	6984      	ldr	r4, [r0, #24]
  tmpccmrx |= (OC_Config->OCMode << 8U);
 8003d84:	680d      	ldr	r5, [r1, #0]
  tmpccmrx &= ~TIM_CCMR1_CC2S;
 8003d86:	f424 44e6 	bic.w	r4, r4, #29440	; 0x7300
  tmpccmrx |= (OC_Config->OCMode << 8U);
 8003d8a:	ea44 2505 	orr.w	r5, r4, r5, lsl #8
  tmpccer |= (OC_Config->OCPolarity << 4U);
 8003d8e:	688c      	ldr	r4, [r1, #8]
  tmpccer &= ~TIM_CCER_CC2P;
 8003d90:	f023 0320 	bic.w	r3, r3, #32
  tmpccer |= (OC_Config->OCPolarity << 4U);
 8003d94:	ea43 1304 	orr.w	r3, r3, r4, lsl #4
  if(IS_TIM_ADVANCED_INSTANCE(TIMx) != RESET)
 8003d98:	4c0d      	ldr	r4, [pc, #52]	; (8003dd0 <TIM_OC2_SetConfig+0x5c>)
 8003d9a:	42a0      	cmp	r0, r4
 8003d9c:	d009      	beq.n	8003db2 <TIM_OC2_SetConfig+0x3e>
 8003d9e:	f504 6480 	add.w	r4, r4, #1024	; 0x400
 8003da2:	42a0      	cmp	r0, r4
 8003da4:	d005      	beq.n	8003db2 <TIM_OC2_SetConfig+0x3e>
  TIMx->CR2 = tmpcr2;
 8003da6:	6042      	str	r2, [r0, #4]
  TIMx->CCR2 = OC_Config->Pulse;
 8003da8:	684a      	ldr	r2, [r1, #4]
  TIMx->CCMR1 = tmpccmrx;
 8003daa:	6185      	str	r5, [r0, #24]
  TIMx->CCR2 = OC_Config->Pulse;
 8003dac:	6382      	str	r2, [r0, #56]	; 0x38
  TIMx->CCER = tmpccer;
 8003dae:	6203      	str	r3, [r0, #32]
}
 8003db0:	bd70      	pop	{r4, r5, r6, pc}
    tmpccer |= (OC_Config->OCNPolarity << 4U);
 8003db2:	68cc      	ldr	r4, [r1, #12]
    tmpcr2 |= (OC_Config->OCNIdleState << 2U);
 8003db4:	698e      	ldr	r6, [r1, #24]
    tmpccer &= ~TIM_CCER_CC2NP;
 8003db6:	f023 0380 	bic.w	r3, r3, #128	; 0x80
    tmpccer |= (OC_Config->OCNPolarity << 4U);
 8003dba:	ea43 1304 	orr.w	r3, r3, r4, lsl #4
    tmpcr2 |= (OC_Config->OCIdleState << 2U);
 8003dbe:	694c      	ldr	r4, [r1, #20]
    tmpcr2 &= ~TIM_CR2_OIS2N;
 8003dc0:	f422 6240 	bic.w	r2, r2, #3072	; 0xc00
    tmpcr2 |= (OC_Config->OCNIdleState << 2U);
 8003dc4:	4334      	orrs	r4, r6
    tmpccer &= ~TIM_CCER_CC2NE;
 8003dc6:	f023 0340 	bic.w	r3, r3, #64	; 0x40
    tmpcr2 |= (OC_Config->OCNIdleState << 2U);
 8003dca:	ea42 0284 	orr.w	r2, r2, r4, lsl #2
 8003dce:	e7ea      	b.n	8003da6 <TIM_OC2_SetConfig+0x32>
 8003dd0:	40010000 	.word	0x40010000

08003dd4 <HAL_TIM_PWM_ConfigChannel>:
{
 8003dd4:	b538      	push	{r3, r4, r5, lr}
  __HAL_LOCK(htim);
 8003dd6:	f890 3038 	ldrb.w	r3, [r0, #56]	; 0x38
 8003dda:	2b01      	cmp	r3, #1
{
 8003ddc:	4604      	mov	r4, r0
 8003dde:	f04f 0002 	mov.w	r0, #2
  __HAL_LOCK(htim);
 8003de2:	d025      	beq.n	8003e30 <HAL_TIM_PWM_ConfigChannel+0x5c>
 8003de4:	2301      	movs	r3, #1
 8003de6:	f884 3038 	strb.w	r3, [r4, #56]	; 0x38
  htim->State = HAL_TIM_STATE_BUSY;
 8003dea:	f884 0039 	strb.w	r0, [r4, #57]	; 0x39
  switch (Channel)
 8003dee:	2a0c      	cmp	r2, #12
 8003df0:	d818      	bhi.n	8003e24 <HAL_TIM_PWM_ConfigChannel+0x50>
 8003df2:	e8df f002 	tbb	[pc, r2]
 8003df6:	1707      	.short	0x1707
 8003df8:	171e1717 	.word	0x171e1717
 8003dfc:	172f1717 	.word	0x172f1717
 8003e00:	1717      	.short	0x1717
 8003e02:	40          	.byte	0x40
 8003e03:	00          	.byte	0x00
      TIM_OC1_SetConfig(htim->Instance, sConfig);
 8003e04:	6820      	ldr	r0, [r4, #0]
 8003e06:	f7ff fdd3 	bl	80039b0 <TIM_OC1_SetConfig>
      htim->Instance->CCMR1 |= TIM_CCMR1_OC1PE;
 8003e0a:	6823      	ldr	r3, [r4, #0]
      htim->Instance->CCMR1 |= sConfig->OCFastMode;
 8003e0c:	6909      	ldr	r1, [r1, #16]
      htim->Instance->CCMR1 |= TIM_CCMR1_OC1PE;
 8003e0e:	699a      	ldr	r2, [r3, #24]
 8003e10:	f042 0208 	orr.w	r2, r2, #8
 8003e14:	619a      	str	r2, [r3, #24]
      htim->Instance->CCMR1 &= ~TIM_CCMR1_OC1FE;
 8003e16:	699a      	ldr	r2, [r3, #24]
 8003e18:	f022 0204 	bic.w	r2, r2, #4
 8003e1c:	619a      	str	r2, [r3, #24]
      htim->Instance->CCMR1 |= sConfig->OCFastMode;
 8003e1e:	699a      	ldr	r2, [r3, #24]
 8003e20:	430a      	orrs	r2, r1
      htim->Instance->CCMR1 |= sConfig->OCFastMode << 8U;
 8003e22:	619a      	str	r2, [r3, #24]
  htim->State = HAL_TIM_STATE_READY;
 8003e24:	2301      	movs	r3, #1
  __HAL_UNLOCK(htim);
 8003e26:	2000      	movs	r0, #0
  htim->State = HAL_TIM_STATE_READY;
 8003e28:	f884 3039 	strb.w	r3, [r4, #57]	; 0x39
  __HAL_UNLOCK(htim);
 8003e2c:	f884 0038 	strb.w	r0, [r4, #56]	; 0x38
}
 8003e30:	bd38      	pop	{r3, r4, r5, pc}
      TIM_OC2_SetConfig(htim->Instance, sConfig);
 8003e32:	6820      	ldr	r0, [r4, #0]
 8003e34:	f7ff ff9e 	bl	8003d74 <TIM_OC2_SetConfig>
      htim->Instance->CCMR1 |= TIM_CCMR1_OC2PE;
 8003e38:	6823      	ldr	r3, [r4, #0]
      htim->Instance->CCMR1 |= sConfig->OCFastMode << 8U;
 8003e3a:	6909      	ldr	r1, [r1, #16]
      htim->Instance->CCMR1 |= TIM_CCMR1_OC2PE;
 8003e3c:	699a      	ldr	r2, [r3, #24]
 8003e3e:	f442 6200 	orr.w	r2, r2, #2048	; 0x800
 8003e42:	619a      	str	r2, [r3, #24]
      htim->Instance->CCMR1 &= ~TIM_CCMR1_OC2FE;
 8003e44:	699a      	ldr	r2, [r3, #24]
 8003e46:	f422 6280 	bic.w	r2, r2, #1024	; 0x400
 8003e4a:	619a      	str	r2, [r3, #24]
      htim->Instance->CCMR1 |= sConfig->OCFastMode << 8U;
 8003e4c:	699a      	ldr	r2, [r3, #24]
 8003e4e:	ea42 2201 	orr.w	r2, r2, r1, lsl #8
 8003e52:	e7e6      	b.n	8003e22 <HAL_TIM_PWM_ConfigChannel+0x4e>
      TIM_OC3_SetConfig(htim->Instance, sConfig);
 8003e54:	6820      	ldr	r0, [r4, #0]
 8003e56:	f7ff fdd7 	bl	8003a08 <TIM_OC3_SetConfig>
      htim->Instance->CCMR2 |= TIM_CCMR2_OC3PE;
 8003e5a:	6823      	ldr	r3, [r4, #0]
      htim->Instance->CCMR2 |= sConfig->OCFastMode;  
 8003e5c:	6909      	ldr	r1, [r1, #16]
      htim->Instance->CCMR2 |= TIM_CCMR2_OC3PE;
 8003e5e:	69da      	ldr	r2, [r3, #28]
 8003e60:	f042 0208 	orr.w	r2, r2, #8
 8003e64:	61da      	str	r2, [r3, #28]
      htim->Instance->CCMR2 &= ~TIM_CCMR2_OC3FE;
 8003e66:	69da      	ldr	r2, [r3, #28]
 8003e68:	f022 0204 	bic.w	r2, r2, #4
 8003e6c:	61da      	str	r2, [r3, #28]
      htim->Instance->CCMR2 |= sConfig->OCFastMode;  
 8003e6e:	69da      	ldr	r2, [r3, #28]
 8003e70:	430a      	orrs	r2, r1
      htim->Instance->CCMR2 |= sConfig->OCFastMode << 8U;  
 8003e72:	61da      	str	r2, [r3, #28]
    break;
 8003e74:	e7d6      	b.n	8003e24 <HAL_TIM_PWM_ConfigChannel+0x50>
      TIM_OC4_SetConfig(htim->Instance, sConfig);
 8003e76:	6820      	ldr	r0, [r4, #0]
 8003e78:	f7ff fdf6 	bl	8003a68 <TIM_OC4_SetConfig>
      htim->Instance->CCMR2 |= TIM_CCMR2_OC4PE;
 8003e7c:	6823      	ldr	r3, [r4, #0]
      htim->Instance->CCMR2 |= sConfig->OCFastMode << 8U;  
 8003e7e:	6909      	ldr	r1, [r1, #16]
      htim->Instance->CCMR2 |= TIM_CCMR2_OC4PE;
 8003e80:	69da      	ldr	r2, [r3, #28]
 8003e82:	f442 6200 	orr.w	r2, r2, #2048	; 0x800
 8003e86:	61da      	str	r2, [r3, #28]
      htim->Instance->CCMR2 &= ~TIM_CCMR2_OC4FE;
 8003e88:	69da      	ldr	r2, [r3, #28]
 8003e8a:	f422 6280 	bic.w	r2, r2, #1024	; 0x400
 8003e8e:	61da      	str	r2, [r3, #28]
      htim->Instance->CCMR2 |= sConfig->OCFastMode << 8U;  
 8003e90:	69da      	ldr	r2, [r3, #28]
 8003e92:	ea42 2201 	orr.w	r2, r2, r1, lsl #8
 8003e96:	e7ec      	b.n	8003e72 <HAL_TIM_PWM_ConfigChannel+0x9e>

08003e98 <TIM_CCxChannelCmd>:
  TIMx->CCER &= ~tmp;
 8003e98:	6a03      	ldr	r3, [r0, #32]
{
 8003e9a:	b510      	push	{r4, lr}
  tmp = TIM_CCER_CC1E << Channel;
 8003e9c:	2401      	movs	r4, #1
 8003e9e:	408c      	lsls	r4, r1
  TIMx->CCER &= ~tmp;
 8003ea0:	ea23 0304 	bic.w	r3, r3, r4
 8003ea4:	6203      	str	r3, [r0, #32]
  TIMx->CCER |= (uint32_t)(ChannelState << Channel);
 8003ea6:	6a03      	ldr	r3, [r0, #32]
 8003ea8:	408a      	lsls	r2, r1
 8003eaa:	431a      	orrs	r2, r3
 8003eac:	6202      	str	r2, [r0, #32]
 8003eae:	bd10      	pop	{r4, pc}

08003eb0 <HAL_TIM_PWM_Start_IT>:
{
 8003eb0:	b510      	push	{r4, lr}
 8003eb2:	4604      	mov	r4, r0
  switch (Channel)
 8003eb4:	290c      	cmp	r1, #12
 8003eb6:	d80d      	bhi.n	8003ed4 <HAL_TIM_PWM_Start_IT+0x24>
 8003eb8:	e8df f001 	tbb	[pc, r1]
 8003ebc:	0c0c0c07 	.word	0x0c0c0c07
 8003ec0:	0c0c0c22 	.word	0x0c0c0c22
 8003ec4:	0c0c0c27 	.word	0x0c0c0c27
 8003ec8:	2c          	.byte	0x2c
 8003ec9:	00          	.byte	0x00
      __HAL_TIM_ENABLE_IT(htim, TIM_IT_CC1);
 8003eca:	6802      	ldr	r2, [r0, #0]
 8003ecc:	68d3      	ldr	r3, [r2, #12]
 8003ece:	f043 0302 	orr.w	r3, r3, #2
      __HAL_TIM_ENABLE_IT(htim, TIM_IT_CC4);
 8003ed2:	60d3      	str	r3, [r2, #12]
  TIM_CCxChannelCmd(htim->Instance, Channel, TIM_CCx_ENABLE);
 8003ed4:	2201      	movs	r2, #1
 8003ed6:	6820      	ldr	r0, [r4, #0]
 8003ed8:	f7ff ffde 	bl	8003e98 <TIM_CCxChannelCmd>
  if(IS_TIM_ADVANCED_INSTANCE(htim->Instance) != RESET)  
 8003edc:	6823      	ldr	r3, [r4, #0]
 8003ede:	4a10      	ldr	r2, [pc, #64]	; (8003f20 <HAL_TIM_PWM_Start_IT+0x70>)
 8003ee0:	4293      	cmp	r3, r2
 8003ee2:	d003      	beq.n	8003eec <HAL_TIM_PWM_Start_IT+0x3c>
 8003ee4:	f502 6280 	add.w	r2, r2, #1024	; 0x400
 8003ee8:	4293      	cmp	r3, r2
 8003eea:	d103      	bne.n	8003ef4 <HAL_TIM_PWM_Start_IT+0x44>
    __HAL_TIM_MOE_ENABLE(htim);
 8003eec:	6c5a      	ldr	r2, [r3, #68]	; 0x44
 8003eee:	f442 4200 	orr.w	r2, r2, #32768	; 0x8000
 8003ef2:	645a      	str	r2, [r3, #68]	; 0x44
  __HAL_TIM_ENABLE(htim);
 8003ef4:	681a      	ldr	r2, [r3, #0]
 8003ef6:	f042 0201 	orr.w	r2, r2, #1
 8003efa:	601a      	str	r2, [r3, #0]
} 
 8003efc:	2000      	movs	r0, #0
 8003efe:	bd10      	pop	{r4, pc}
      __HAL_TIM_ENABLE_IT(htim, TIM_IT_CC2);
 8003f00:	6802      	ldr	r2, [r0, #0]
 8003f02:	68d3      	ldr	r3, [r2, #12]
 8003f04:	f043 0304 	orr.w	r3, r3, #4
 8003f08:	e7e3      	b.n	8003ed2 <HAL_TIM_PWM_Start_IT+0x22>
      __HAL_TIM_ENABLE_IT(htim, TIM_IT_CC3);
 8003f0a:	6802      	ldr	r2, [r0, #0]
 8003f0c:	68d3      	ldr	r3, [r2, #12]
 8003f0e:	f043 0308 	orr.w	r3, r3, #8
 8003f12:	e7de      	b.n	8003ed2 <HAL_TIM_PWM_Start_IT+0x22>
      __HAL_TIM_ENABLE_IT(htim, TIM_IT_CC4);
 8003f14:	6802      	ldr	r2, [r0, #0]
 8003f16:	68d3      	ldr	r3, [r2, #12]
 8003f18:	f043 0310 	orr.w	r3, r3, #16
 8003f1c:	e7d9      	b.n	8003ed2 <HAL_TIM_PWM_Start_IT+0x22>
 8003f1e:	bf00      	nop
 8003f20:	40010000 	.word	0x40010000

08003f24 <HAL_TIMEx_CommutationCallback>:
 8003f24:	4770      	bx	lr

08003f26 <HAL_TIMEx_BreakCallback>:
  * @param  htim pointer to a TIM_HandleTypeDef structure that contains
  *                the configuration information for TIM module.
  * @retval None
  */
__weak void HAL_TIMEx_BreakCallback(TIM_HandleTypeDef *htim)
{
 8003f26:	4770      	bx	lr

08003f28 <USB_CoreInit>:
  * @param  cfg  pointer to a USB_OTG_CfgTypeDef structure that contains
  *         the configuration information for the specified USBx peripheral.
  * @retval HAL status
  */
HAL_StatusTypeDef USB_CoreInit(USB_OTG_GlobalTypeDef *USBx, USB_OTG_CfgTypeDef cfg)
{
 8003f28:	b084      	sub	sp, #16
 8003f2a:	b538      	push	{r3, r4, r5, lr}
 8003f2c:	ad05      	add	r5, sp, #20
 8003f2e:	e885 000e 	stmia.w	r5, {r1, r2, r3}
  if (cfg.phy_itface == USB_OTG_ULPI_PHY)
 8003f32:	9b0a      	ldr	r3, [sp, #40]	; 0x28
 8003f34:	2b01      	cmp	r3, #1
{
 8003f36:	4604      	mov	r4, r0
  if (cfg.phy_itface == USB_OTG_ULPI_PHY)
 8003f38:	d126      	bne.n	8003f88 <USB_CoreInit+0x60>
  {
    
    USBx->GCCFG &= ~(USB_OTG_GCCFG_PWRDWN);
 8003f3a:	6b83      	ldr	r3, [r0, #56]	; 0x38
 8003f3c:	f423 3380 	bic.w	r3, r3, #65536	; 0x10000
 8003f40:	6383      	str	r3, [r0, #56]	; 0x38

    /* Init The ULPI Interface */
    USBx->GUSBCFG &= ~(USB_OTG_GUSBCFG_TSDPS | USB_OTG_GUSBCFG_ULPIFSLS | USB_OTG_GUSBCFG_PHYSEL);
 8003f42:	68c3      	ldr	r3, [r0, #12]
 8003f44:	f423 0384 	bic.w	r3, r3, #4325376	; 0x420000
 8003f48:	f023 0340 	bic.w	r3, r3, #64	; 0x40
 8003f4c:	60c3      	str	r3, [r0, #12]
   
    /* Select vbus source */
    USBx->GUSBCFG &= ~(USB_OTG_GUSBCFG_ULPIEVBUSD | USB_OTG_GUSBCFG_ULPIEVBUSI);
 8003f4e:	68c3      	ldr	r3, [r0, #12]
 8003f50:	f423 1340 	bic.w	r3, r3, #3145728	; 0x300000
 8003f54:	60c3      	str	r3, [r0, #12]
    if(cfg.use_external_vbus == 1U)
 8003f56:	9b11      	ldr	r3, [sp, #68]	; 0x44
 8003f58:	2b01      	cmp	r3, #1
    {
      USBx->GUSBCFG |= USB_OTG_GUSBCFG_ULPIEVBUSD;
 8003f5a:	bf02      	ittt	eq
 8003f5c:	68c3      	ldreq	r3, [r0, #12]
 8003f5e:	f443 1380 	orreq.w	r3, r3, #1048576	; 0x100000
 8003f62:	60c3      	streq	r3, [r0, #12]
    }
    /* Reset after a PHY select  */
    USB_CoreReset(USBx); 
 8003f64:	f000 fbde 	bl	8004724 <USB_CoreReset>
    
    /* Deactivate the power down*/
    USBx->GCCFG = USB_OTG_GCCFG_PWRDWN;
  }
 
  if(cfg.dma_enable == ENABLE)
 8003f68:	9b08      	ldr	r3, [sp, #32]
 8003f6a:	2b01      	cmp	r3, #1
 8003f6c:	d107      	bne.n	8003f7e <USB_CoreInit+0x56>
  {
    USBx->GAHBCFG |= USB_OTG_GAHBCFG_HBSTLEN_2;
 8003f6e:	68a3      	ldr	r3, [r4, #8]
 8003f70:	f043 0306 	orr.w	r3, r3, #6
 8003f74:	60a3      	str	r3, [r4, #8]
    USBx->GAHBCFG |= USB_OTG_GAHBCFG_DMAEN;
 8003f76:	68a3      	ldr	r3, [r4, #8]
 8003f78:	f043 0320 	orr.w	r3, r3, #32
 8003f7c:	60a3      	str	r3, [r4, #8]
  }  

  return HAL_OK;
}
 8003f7e:	e8bd 4038 	ldmia.w	sp!, {r3, r4, r5, lr}
 8003f82:	2000      	movs	r0, #0
 8003f84:	b004      	add	sp, #16
 8003f86:	4770      	bx	lr
    USBx->GUSBCFG |= USB_OTG_GUSBCFG_PHYSEL;
 8003f88:	68c3      	ldr	r3, [r0, #12]
 8003f8a:	f043 0340 	orr.w	r3, r3, #64	; 0x40
 8003f8e:	60c3      	str	r3, [r0, #12]
    USB_CoreReset(USBx);
 8003f90:	f000 fbc8 	bl	8004724 <USB_CoreReset>
    USBx->GCCFG = USB_OTG_GCCFG_PWRDWN;
 8003f94:	f44f 3380 	mov.w	r3, #65536	; 0x10000
 8003f98:	63a3      	str	r3, [r4, #56]	; 0x38
 8003f9a:	e7e5      	b.n	8003f68 <USB_CoreInit+0x40>

08003f9c <USB_EnableGlobalInt>:
  * @param  USBx  Selected device
  * @retval HAL status
  */
HAL_StatusTypeDef USB_EnableGlobalInt(USB_OTG_GlobalTypeDef *USBx)
{
  USBx->GAHBCFG |= USB_OTG_GAHBCFG_GINT;
 8003f9c:	6883      	ldr	r3, [r0, #8]
 8003f9e:	f043 0301 	orr.w	r3, r3, #1
 8003fa2:	6083      	str	r3, [r0, #8]
  return HAL_OK;
}
 8003fa4:	2000      	movs	r0, #0
 8003fa6:	4770      	bx	lr

08003fa8 <USB_DisableGlobalInt>:
  * @param  USBx  Selected device
  * @retval HAL status
*/
HAL_StatusTypeDef USB_DisableGlobalInt(USB_OTG_GlobalTypeDef *USBx)
{
  USBx->GAHBCFG &= ~USB_OTG_GAHBCFG_GINT;
 8003fa8:	6883      	ldr	r3, [r0, #8]
 8003faa:	f023 0301 	bic.w	r3, r3, #1
 8003fae:	6083      	str	r3, [r0, #8]
  return HAL_OK;
}
 8003fb0:	2000      	movs	r0, #0
 8003fb2:	4770      	bx	lr

08003fb4 <USB_SetCurrentMode>:
  *            @arg USB_OTG_HOST_MODE: Host mode
  *            @arg USB_OTG_DRD_MODE: Dual Role Device mode  
  * @retval HAL status
  */
HAL_StatusTypeDef USB_SetCurrentMode(USB_OTG_GlobalTypeDef *USBx , USB_OTG_ModeTypeDef mode)
{
 8003fb4:	b508      	push	{r3, lr}
  USBx->GUSBCFG &= ~(USB_OTG_GUSBCFG_FHMOD | USB_OTG_GUSBCFG_FDMOD); 
 8003fb6:	68c3      	ldr	r3, [r0, #12]
  
  if ( mode == USB_OTG_HOST_MODE)
 8003fb8:	2901      	cmp	r1, #1
  USBx->GUSBCFG &= ~(USB_OTG_GUSBCFG_FHMOD | USB_OTG_GUSBCFG_FDMOD); 
 8003fba:	f023 43c0 	bic.w	r3, r3, #1610612736	; 0x60000000
 8003fbe:	60c3      	str	r3, [r0, #12]
  if ( mode == USB_OTG_HOST_MODE)
 8003fc0:	d108      	bne.n	8003fd4 <USB_SetCurrentMode+0x20>
  {
    USBx->GUSBCFG |= USB_OTG_GUSBCFG_FHMOD; 
 8003fc2:	68c3      	ldr	r3, [r0, #12]
 8003fc4:	f043 5300 	orr.w	r3, r3, #536870912	; 0x20000000
 8003fc8:	60c3      	str	r3, [r0, #12]
  }
  else if ( mode == USB_OTG_DEVICE_MODE)
  {
    USBx->GUSBCFG |= USB_OTG_GUSBCFG_FDMOD; 
  }
  HAL_Delay(50U);
 8003fca:	2032      	movs	r0, #50	; 0x32
 8003fcc:	f7fe f838 	bl	8002040 <HAL_Delay>
  
  return HAL_OK;
}
 8003fd0:	2000      	movs	r0, #0
 8003fd2:	bd08      	pop	{r3, pc}
  else if ( mode == USB_OTG_DEVICE_MODE)
 8003fd4:	2900      	cmp	r1, #0
 8003fd6:	d1f8      	bne.n	8003fca <USB_SetCurrentMode+0x16>
    USBx->GUSBCFG |= USB_OTG_GUSBCFG_FDMOD; 
 8003fd8:	68c3      	ldr	r3, [r0, #12]
 8003fda:	f043 4380 	orr.w	r3, r3, #1073741824	; 0x40000000
 8003fde:	60c3      	str	r3, [r0, #12]
 8003fe0:	e7f3      	b.n	8003fca <USB_SetCurrentMode+0x16>
	...

08003fe4 <USB_DevInit>:
  * @param  cfg   pointer to a USB_OTG_CfgTypeDef structure that contains
  *         the configuration information for the specified USBx peripheral.
  * @retval HAL status
  */
HAL_StatusTypeDef USB_DevInit (USB_OTG_GlobalTypeDef *USBx, USB_OTG_CfgTypeDef cfg)
{
 8003fe4:	b084      	sub	sp, #16
 8003fe6:	e92d 41f0 	stmdb	sp!, {r4, r5, r6, r7, r8, lr}
 8003fea:	4604      	mov	r4, r0
 8003fec:	a807      	add	r0, sp, #28
 8003fee:	e880 000e 	stmia.w	r0, {r1, r2, r3}
 8003ff2:	9e11      	ldr	r6, [sp, #68]	; 0x44
 8003ff4:	9f0a      	ldr	r7, [sp, #40]	; 0x28
    USBx->GOTGCTL |= USB_OTG_GOTGCTL_BVALOVAL;
  }
#else
  if (cfg.vbus_sensing_enable == 0U)
  {
    USBx->GCCFG |= USB_OTG_GCCFG_NOVBUSSENS;
 8003ff6:	6ba3      	ldr	r3, [r4, #56]	; 0x38
 8003ff8:	4688      	mov	r8, r1
  if (cfg.vbus_sensing_enable == 0U)
 8003ffa:	b9a6      	cbnz	r6, 8004026 <USB_DevInit+0x42>
    USBx->GCCFG |= USB_OTG_GCCFG_NOVBUSSENS;
 8003ffc:	f443 1300 	orr.w	r3, r3, #2097152	; 0x200000
 8004000:	63a3      	str	r3, [r4, #56]	; 0x38
    USBx->GCCFG |= USB_OTG_GCCFG_VBUSBSEN;
  }
#endif /* STM32F446xx || STM32F469xx || STM32F479xx || STM32F412Zx || STM32F412Rx || STM32F412Vx || STM32F412Cx || STM32F413xx || STM32F423xx  */
  
  /* Restart the Phy Clock */
  USBx_PCGCCTL = 0U;
 8004002:	2300      	movs	r3, #0
 8004004:	f8c4 3e00 	str.w	r3, [r4, #3584]	; 0xe00
  
  /* Device mode configuration */
  USBx_DEVICE->DCFG |= DCFG_FRAME_INTERVAL_80;
 8004008:	f8d4 3800 	ldr.w	r3, [r4, #2048]	; 0x800
 800400c:	f8c4 3800 	str.w	r3, [r4, #2048]	; 0x800
  
  if(cfg.phy_itface  == USB_OTG_ULPI_PHY)
 8004010:	9b0c      	ldr	r3, [sp, #48]	; 0x30
 8004012:	2b01      	cmp	r3, #1
  USBx_DEVICE->DCFG |= DCFG_FRAME_INTERVAL_80;
 8004014:	f504 6500 	add.w	r5, r4, #2048	; 0x800
  if(cfg.phy_itface  == USB_OTG_ULPI_PHY)
 8004018:	d15e      	bne.n	80040d8 <USB_DevInit+0xf4>
  {
    if(cfg.speed == USB_OTG_SPEED_HIGH)
 800401a:	9909      	ldr	r1, [sp, #36]	; 0x24
 800401c:	b939      	cbnz	r1, 800402e <USB_DevInit+0x4a>
    }
  }
  else
  {
    /* Set Full speed phy */
    USB_SetDevSpeed (USBx , USB_OTG_SPEED_FULL);
 800401e:	4620      	mov	r0, r4
 8004020:	f000 f89e 	bl	8004160 <USB_SetDevSpeed>
 8004024:	e007      	b.n	8004036 <USB_DevInit+0x52>
    USBx->GCCFG |= USB_OTG_GCCFG_VBUSBSEN;
 8004026:	f443 2300 	orr.w	r3, r3, #524288	; 0x80000
 800402a:	63a3      	str	r3, [r4, #56]	; 0x38
 800402c:	e7e9      	b.n	8004002 <USB_DevInit+0x1e>
      USB_SetDevSpeed (USBx , USB_OTG_SPEED_HIGH_IN_FULL);
 800402e:	4619      	mov	r1, r3
 8004030:	4620      	mov	r0, r4
 8004032:	f000 f895 	bl	8004160 <USB_SetDevSpeed>
  }

  /* Flush the FIFOs */
  USB_FlushTxFifo(USBx , 0x10U); /* all Tx FIFOs */
 8004036:	2110      	movs	r1, #16
 8004038:	4620      	mov	r0, r4
 800403a:	f000 f86f 	bl	800411c <USB_FlushTxFifo>
  USB_FlushRxFifo(USBx);
 800403e:	4620      	mov	r0, r4
 8004040:	f000 f87e 	bl	8004140 <USB_FlushRxFifo>
  
  /* Clear all pending Device Interrupts */
  USBx_DEVICE->DIEPMSK = 0U;
 8004044:	2300      	movs	r3, #0
  USBx_DEVICE->DOEPMSK = 0U;
  USBx_DEVICE->DAINT = 0xFFFFFFFFU;
 8004046:	f04f 32ff 	mov.w	r2, #4294967295
  USBx_DEVICE->DIEPMSK = 0U;
 800404a:	612b      	str	r3, [r5, #16]
 800404c:	4619      	mov	r1, r3
  USBx_DEVICE->DOEPMSK = 0U;
 800404e:	616b      	str	r3, [r5, #20]
  
  for (i = 0U; i < cfg.dev_endpoints; i++)
  {
    if ((USBx_INEP(i)->DIEPCTL & USB_OTG_DIEPCTL_EPENA) == USB_OTG_DIEPCTL_EPENA)
    {
      USBx_INEP(i)->DIEPCTL = (USB_OTG_DIEPCTL_EPDIS | USB_OTG_DIEPCTL_SNAK);
 8004050:	f04f 4090 	mov.w	r0, #1207959552	; 0x48000000
  USBx_DEVICE->DAINT = 0xFFFFFFFFU;
 8004054:	61aa      	str	r2, [r5, #24]
    {
      USBx_INEP(i)->DIEPCTL = 0U;
    }
    
    USBx_INEP(i)->DIEPTSIZ = 0U;
    USBx_INEP(i)->DIEPINT  = 0xFFU;
 8004056:	f04f 0eff 	mov.w	lr, #255	; 0xff
  USBx_DEVICE->DAINTMSK = 0U;
 800405a:	61eb      	str	r3, [r5, #28]
 800405c:	f504 6210 	add.w	r2, r4, #2304	; 0x900
  for (i = 0U; i < cfg.dev_endpoints; i++)
 8004060:	4543      	cmp	r3, r8
 8004062:	d13b      	bne.n	80040dc <USB_DevInit+0xf8>
 8004064:	2100      	movs	r1, #0
 8004066:	f504 6230 	add.w	r2, r4, #2816	; 0xb00
 800406a:	4608      	mov	r0, r1
  
  for (i = 0U; i < cfg.dev_endpoints; i++)
  {
    if ((USBx_OUTEP(i)->DOEPCTL & USB_OTG_DOEPCTL_EPENA) == USB_OTG_DOEPCTL_EPENA)
    {
      USBx_OUTEP(i)->DOEPCTL = (USB_OTG_DOEPCTL_EPDIS | USB_OTG_DOEPCTL_SNAK);
 800406c:	f04f 4e90 	mov.w	lr, #1207959552	; 0x48000000
    {
      USBx_OUTEP(i)->DOEPCTL = 0U;
    }
    
    USBx_OUTEP(i)->DOEPTSIZ = 0U;
    USBx_OUTEP(i)->DOEPINT  = 0xFFU;
 8004070:	f04f 0cff 	mov.w	ip, #255	; 0xff
  for (i = 0U; i < cfg.dev_endpoints; i++)
 8004074:	428b      	cmp	r3, r1
 8004076:	d13e      	bne.n	80040f6 <USB_DevInit+0x112>
  }
  
  USBx_DEVICE->DIEPMSK &= ~(USB_OTG_DIEPMSK_TXFURM);
 8004078:	692b      	ldr	r3, [r5, #16]
  
  if (cfg.dma_enable == 1U)
 800407a:	2f01      	cmp	r7, #1
  USBx_DEVICE->DIEPMSK &= ~(USB_OTG_DIEPMSK_TXFURM);
 800407c:	f423 7380 	bic.w	r3, r3, #256	; 0x100
 8004080:	612b      	str	r3, [r5, #16]
  if (cfg.dma_enable == 1U)
 8004082:	d108      	bne.n	8004096 <USB_DevInit+0xb2>
  {
    /*Set threshold parameters */
    USBx_DEVICE->DTHRCTL = (USB_OTG_DTHRCTL_TXTHRLEN_6 | USB_OTG_DTHRCTL_RXTHRLEN_6);
 8004084:	4b23      	ldr	r3, [pc, #140]	; (8004114 <USB_DevInit+0x130>)
 8004086:	632b      	str	r3, [r5, #48]	; 0x30
    USBx_DEVICE->DTHRCTL |= (USB_OTG_DTHRCTL_RXTHREN | USB_OTG_DTHRCTL_ISOTHREN | USB_OTG_DTHRCTL_NONISOTHREN);
 8004088:	6b2b      	ldr	r3, [r5, #48]	; 0x30
 800408a:	f443 3380 	orr.w	r3, r3, #65536	; 0x10000
 800408e:	f043 0303 	orr.w	r3, r3, #3
 8004092:	632b      	str	r3, [r5, #48]	; 0x30
    
    i= USBx_DEVICE->DTHRCTL;
 8004094:	6b2b      	ldr	r3, [r5, #48]	; 0x30
  }
  
  /* Disable all interrupts. */
  USBx->GINTMSK = 0U;
 8004096:	2300      	movs	r3, #0
 8004098:	61a3      	str	r3, [r4, #24]
  
  /* Clear any pending interrupts */
  USBx->GINTSTS = 0xBFFFFFFFU;
 800409a:	f06f 4380 	mvn.w	r3, #1073741824	; 0x40000000
 800409e:	6163      	str	r3, [r4, #20]

  /* Enable the common interrupts */
  if (cfg.dma_enable == DISABLE)
 80040a0:	b91f      	cbnz	r7, 80040aa <USB_DevInit+0xc6>
  {
    USBx->GINTMSK |= USB_OTG_GINTMSK_RXFLVLM; 
 80040a2:	69a3      	ldr	r3, [r4, #24]
 80040a4:	f043 0310 	orr.w	r3, r3, #16
 80040a8:	61a3      	str	r3, [r4, #24]
  }
  
  /* Enable interrupts matching to the Device mode ONLY */
  USBx->GINTMSK |= (USB_OTG_GINTMSK_USBSUSPM | USB_OTG_GINTMSK_USBRST |\
 80040aa:	69a2      	ldr	r2, [r4, #24]
 80040ac:	4b1a      	ldr	r3, [pc, #104]	; (8004118 <USB_DevInit+0x134>)
 80040ae:	4313      	orrs	r3, r2
 80040b0:	61a3      	str	r3, [r4, #24]
                    USB_OTG_GINTMSK_ENUMDNEM | USB_OTG_GINTMSK_IEPINT |\
                    USB_OTG_GINTMSK_OEPINT   | USB_OTG_GINTMSK_IISOIXFRM|\
                    USB_OTG_GINTMSK_PXFRM_IISOOXFRM | USB_OTG_GINTMSK_WUIM);
  
  if(cfg.Sof_enable)
 80040b2:	9b0d      	ldr	r3, [sp, #52]	; 0x34
 80040b4:	b11b      	cbz	r3, 80040be <USB_DevInit+0xda>
  {
    USBx->GINTMSK |= USB_OTG_GINTMSK_SOFM;
 80040b6:	69a3      	ldr	r3, [r4, #24]
 80040b8:	f043 0308 	orr.w	r3, r3, #8
 80040bc:	61a3      	str	r3, [r4, #24]
  }

  if (cfg.vbus_sensing_enable == ENABLE)
 80040be:	2e01      	cmp	r6, #1
  {
    USBx->GINTMSK |= (USB_OTG_GINTMSK_SRQIM | USB_OTG_GINTMSK_OTGINT); 
 80040c0:	bf01      	itttt	eq
 80040c2:	69a3      	ldreq	r3, [r4, #24]
 80040c4:	f043 4380 	orreq.w	r3, r3, #1073741824	; 0x40000000
 80040c8:	f043 0304 	orreq.w	r3, r3, #4
 80040cc:	61a3      	streq	r3, [r4, #24]
  }
  
  return HAL_OK;
}
 80040ce:	e8bd 41f0 	ldmia.w	sp!, {r4, r5, r6, r7, r8, lr}
 80040d2:	2000      	movs	r0, #0
 80040d4:	b004      	add	sp, #16
 80040d6:	4770      	bx	lr
    USB_SetDevSpeed (USBx , USB_OTG_SPEED_FULL);
 80040d8:	2103      	movs	r1, #3
 80040da:	e7a0      	b.n	800401e <USB_DevInit+0x3a>
    if ((USBx_INEP(i)->DIEPCTL & USB_OTG_DIEPCTL_EPENA) == USB_OTG_DIEPCTL_EPENA)
 80040dc:	f8d2 c000 	ldr.w	ip, [r2]
 80040e0:	f1bc 0f00 	cmp.w	ip, #0
      USBx_INEP(i)->DIEPCTL = (USB_OTG_DIEPCTL_EPDIS | USB_OTG_DIEPCTL_SNAK);
 80040e4:	bfb4      	ite	lt
 80040e6:	6010      	strlt	r0, [r2, #0]
      USBx_INEP(i)->DIEPCTL = 0U;
 80040e8:	6011      	strge	r1, [r2, #0]
  for (i = 0U; i < cfg.dev_endpoints; i++)
 80040ea:	3301      	adds	r3, #1
    USBx_INEP(i)->DIEPTSIZ = 0U;
 80040ec:	6111      	str	r1, [r2, #16]
    USBx_INEP(i)->DIEPINT  = 0xFFU;
 80040ee:	f8c2 e008 	str.w	lr, [r2, #8]
 80040f2:	3220      	adds	r2, #32
 80040f4:	e7b4      	b.n	8004060 <USB_DevInit+0x7c>
    if ((USBx_OUTEP(i)->DOEPCTL & USB_OTG_DOEPCTL_EPENA) == USB_OTG_DOEPCTL_EPENA)
 80040f6:	f8d2 8000 	ldr.w	r8, [r2]
 80040fa:	f1b8 0f00 	cmp.w	r8, #0
      USBx_OUTEP(i)->DOEPCTL = (USB_OTG_DOEPCTL_EPDIS | USB_OTG_DOEPCTL_SNAK);
 80040fe:	bfb4      	ite	lt
 8004100:	f8c2 e000 	strlt.w	lr, [r2]
      USBx_OUTEP(i)->DOEPCTL = 0U;
 8004104:	6010      	strge	r0, [r2, #0]
  for (i = 0U; i < cfg.dev_endpoints; i++)
 8004106:	3101      	adds	r1, #1
    USBx_OUTEP(i)->DOEPTSIZ = 0U;
 8004108:	6110      	str	r0, [r2, #16]
    USBx_OUTEP(i)->DOEPINT  = 0xFFU;
 800410a:	f8c2 c008 	str.w	ip, [r2, #8]
 800410e:	3220      	adds	r2, #32
 8004110:	e7b0      	b.n	8004074 <USB_DevInit+0x90>
 8004112:	bf00      	nop
 8004114:	00800100 	.word	0x00800100
 8004118:	803c3800 	.word	0x803c3800

0800411c <USB_FlushTxFifo>:
  */
HAL_StatusTypeDef USB_FlushTxFifo (USB_OTG_GlobalTypeDef *USBx, uint32_t num )
{
  uint32_t count = 0;
  
  USBx->GRSTCTL = ( USB_OTG_GRSTCTL_TXFFLSH |(uint32_t)( num << 6)); 
 800411c:	0189      	lsls	r1, r1, #6
 800411e:	f041 0120 	orr.w	r1, r1, #32
 8004122:	4a06      	ldr	r2, [pc, #24]	; (800413c <USB_FlushTxFifo+0x20>)
 8004124:	6101      	str	r1, [r0, #16]
  
  do
  {
    if (++count > 200000)
 8004126:	3a01      	subs	r2, #1
 8004128:	d005      	beq.n	8004136 <USB_FlushTxFifo+0x1a>
    {
      return HAL_TIMEOUT;
    }
  }
  while ((USBx->GRSTCTL & USB_OTG_GRSTCTL_TXFFLSH) == USB_OTG_GRSTCTL_TXFFLSH);
 800412a:	6903      	ldr	r3, [r0, #16]
 800412c:	f013 0320 	ands.w	r3, r3, #32
 8004130:	d1f9      	bne.n	8004126 <USB_FlushTxFifo+0xa>
  
  return HAL_OK;
 8004132:	4618      	mov	r0, r3
 8004134:	4770      	bx	lr
      return HAL_TIMEOUT;
 8004136:	2003      	movs	r0, #3
}
 8004138:	4770      	bx	lr
 800413a:	bf00      	nop
 800413c:	00030d41 	.word	0x00030d41

08004140 <USB_FlushRxFifo>:
  */
HAL_StatusTypeDef USB_FlushRxFifo(USB_OTG_GlobalTypeDef *USBx)
{
  uint32_t count = 0;
  
  USBx->GRSTCTL = USB_OTG_GRSTCTL_RXFFLSH;
 8004140:	2310      	movs	r3, #16
 8004142:	4a06      	ldr	r2, [pc, #24]	; (800415c <USB_FlushRxFifo+0x1c>)
 8004144:	6103      	str	r3, [r0, #16]
  
  do
  {
    if (++count > 200000)
 8004146:	3a01      	subs	r2, #1
 8004148:	d005      	beq.n	8004156 <USB_FlushRxFifo+0x16>
    {
      return HAL_TIMEOUT;
    }
  }
  while ((USBx->GRSTCTL & USB_OTG_GRSTCTL_RXFFLSH) == USB_OTG_GRSTCTL_RXFFLSH);
 800414a:	6903      	ldr	r3, [r0, #16]
 800414c:	f013 0310 	ands.w	r3, r3, #16
 8004150:	d1f9      	bne.n	8004146 <USB_FlushRxFifo+0x6>
  
  return HAL_OK;
 8004152:	4618      	mov	r0, r3
 8004154:	4770      	bx	lr
      return HAL_TIMEOUT;
 8004156:	2003      	movs	r0, #3
}
 8004158:	4770      	bx	lr
 800415a:	bf00      	nop
 800415c:	00030d41 	.word	0x00030d41

08004160 <USB_SetDevSpeed>:
  *            @arg USB_OTG_SPEED_LOW: Low speed mode
  * @retval  Hal status
  */
HAL_StatusTypeDef USB_SetDevSpeed(USB_OTG_GlobalTypeDef *USBx , uint8_t speed)
{
  USBx_DEVICE->DCFG |= speed;
 8004160:	f8d0 3800 	ldr.w	r3, [r0, #2048]	; 0x800
 8004164:	4319      	orrs	r1, r3
 8004166:	f8c0 1800 	str.w	r1, [r0, #2048]	; 0x800
  return HAL_OK;
}
 800416a:	2000      	movs	r0, #0
 800416c:	4770      	bx	lr

0800416e <USB_GetDevSpeed>:
  */
uint8_t USB_GetDevSpeed(USB_OTG_GlobalTypeDef *USBx)
{
  uint8_t speed = 0U;
  
  if((USBx_DEVICE->DSTS & USB_OTG_DSTS_ENUMSPD) == DSTS_ENUMSPD_HS_PHY_30MHZ_OR_60MHZ)
 800416e:	f500 6200 	add.w	r2, r0, #2048	; 0x800
 8004172:	f8d0 0808 	ldr.w	r0, [r0, #2056]	; 0x808
 8004176:	f010 0006 	ands.w	r0, r0, #6
 800417a:	d012      	beq.n	80041a2 <USB_GetDevSpeed+0x34>
  {
    speed = USB_OTG_SPEED_HIGH;
  }
  else if (((USBx_DEVICE->DSTS & USB_OTG_DSTS_ENUMSPD) == DSTS_ENUMSPD_FS_PHY_30MHZ_OR_60MHZ)||
 800417c:	6893      	ldr	r3, [r2, #8]
 800417e:	f003 0306 	and.w	r3, r3, #6
 8004182:	2b02      	cmp	r3, #2
 8004184:	d00c      	beq.n	80041a0 <USB_GetDevSpeed+0x32>
           ((USBx_DEVICE->DSTS & USB_OTG_DSTS_ENUMSPD) == DSTS_ENUMSPD_FS_PHY_48MHZ))
 8004186:	6893      	ldr	r3, [r2, #8]
 8004188:	f003 0306 	and.w	r3, r3, #6
  else if (((USBx_DEVICE->DSTS & USB_OTG_DSTS_ENUMSPD) == DSTS_ENUMSPD_FS_PHY_30MHZ_OR_60MHZ)||
 800418c:	2b06      	cmp	r3, #6
 800418e:	d007      	beq.n	80041a0 <USB_GetDevSpeed+0x32>
  {
    speed = USB_OTG_SPEED_FULL;
  }
  else if((USBx_DEVICE->DSTS & USB_OTG_DSTS_ENUMSPD) == DSTS_ENUMSPD_LS_PHY_6MHZ)
 8004190:	6893      	ldr	r3, [r2, #8]
 8004192:	f003 0306 	and.w	r3, r3, #6
 8004196:	2b04      	cmp	r3, #4
  {
    speed = USB_OTG_SPEED_LOW;
 8004198:	bf14      	ite	ne
 800419a:	2000      	movne	r0, #0
 800419c:	2002      	moveq	r0, #2
 800419e:	4770      	bx	lr
    speed = USB_OTG_SPEED_FULL;
 80041a0:	2003      	movs	r0, #3
  }
  
  return speed;
}
 80041a2:	4770      	bx	lr

080041a4 <USB_ActivateEndpoint>:
  * @param  USBx  Selected device
  * @param  ep pointer to endpoint structure
  * @retval HAL status
  */
HAL_StatusTypeDef USB_ActivateEndpoint(USB_OTG_GlobalTypeDef *USBx, USB_OTG_EPTypeDef *ep)
{
 80041a4:	b530      	push	{r4, r5, lr}
  if (ep->is_in == 1U)
 80041a6:	784b      	ldrb	r3, [r1, #1]
 80041a8:	780c      	ldrb	r4, [r1, #0]
  {
   USBx_DEVICE->DAINTMSK |= USB_OTG_DAINTMSK_IEPM & ((1U << (ep->num)));
 80041aa:	f8d0 581c 	ldr.w	r5, [r0, #2076]	; 0x81c
 80041ae:	f500 6200 	add.w	r2, r0, #2048	; 0x800
  if (ep->is_in == 1U)
 80041b2:	2b01      	cmp	r3, #1
 80041b4:	d11b      	bne.n	80041ee <USB_ActivateEndpoint+0x4a>
   USBx_DEVICE->DAINTMSK |= USB_OTG_DAINTMSK_IEPM & ((1U << (ep->num)));
 80041b6:	40a3      	lsls	r3, r4
 80041b8:	b29b      	uxth	r3, r3
 80041ba:	432b      	orrs	r3, r5
   
    if (((USBx_INEP(ep->num)->DIEPCTL) & USB_OTG_DIEPCTL_USBAEP) == 0U)
 80041bc:	f500 6010 	add.w	r0, r0, #2304	; 0x900
   USBx_DEVICE->DAINTMSK |= USB_OTG_DAINTMSK_IEPM & ((1U << (ep->num)));
 80041c0:	61d3      	str	r3, [r2, #28]
    if (((USBx_INEP(ep->num)->DIEPCTL) & USB_OTG_DIEPCTL_USBAEP) == 0U)
 80041c2:	eb00 1344 	add.w	r3, r0, r4, lsl #5
 80041c6:	681a      	ldr	r2, [r3, #0]
 80041c8:	0412      	lsls	r2, r2, #16
 80041ca:	d40e      	bmi.n	80041ea <USB_ActivateEndpoint+0x46>
    {
      USBx_INEP(ep->num)->DIEPCTL |= ((ep->maxpacket & USB_OTG_DIEPCTL_MPSIZ ) | (ep->type << 18U) |\
 80041cc:	688a      	ldr	r2, [r1, #8]
 80041ce:	78c8      	ldrb	r0, [r1, #3]
 80041d0:	681d      	ldr	r5, [r3, #0]
 80041d2:	f3c2 020a 	ubfx	r2, r2, #0, #11
 80041d6:	f042 5280 	orr.w	r2, r2, #268435456	; 0x10000000
 80041da:	f442 4200 	orr.w	r2, r2, #32768	; 0x8000
 80041de:	ea42 4080 	orr.w	r0, r2, r0, lsl #18
 80041e2:	ea40 5084 	orr.w	r0, r0, r4, lsl #22
 80041e6:	4328      	orrs	r0, r5
 80041e8:	6018      	str	r0, [r3, #0]
      USBx_OUTEP(ep->num)->DOEPCTL |= ((ep->maxpacket & USB_OTG_DOEPCTL_MPSIZ ) | (ep->type << 18U) |\
       (USB_OTG_DIEPCTL_SD0PID_SEVNFRM)| (USB_OTG_DOEPCTL_USBAEP));
    } 
  }
  return HAL_OK;
}
 80041ea:	2000      	movs	r0, #0
 80041ec:	bd30      	pop	{r4, r5, pc}
     USBx_DEVICE->DAINTMSK |= USB_OTG_DAINTMSK_OEPM & ((1U << (ep->num)) << 16U);
 80041ee:	f44f 3380 	mov.w	r3, #65536	; 0x10000
 80041f2:	40a3      	lsls	r3, r4
    if (((USBx_OUTEP(ep->num)->DOEPCTL) & USB_OTG_DOEPCTL_USBAEP) == 0U)
 80041f4:	f500 6030 	add.w	r0, r0, #2816	; 0xb00
     USBx_DEVICE->DAINTMSK |= USB_OTG_DAINTMSK_OEPM & ((1U << (ep->num)) << 16U);
 80041f8:	432b      	orrs	r3, r5
    if (((USBx_OUTEP(ep->num)->DOEPCTL) & USB_OTG_DOEPCTL_USBAEP) == 0U)
 80041fa:	eb00 1044 	add.w	r0, r0, r4, lsl #5
     USBx_DEVICE->DAINTMSK |= USB_OTG_DAINTMSK_OEPM & ((1U << (ep->num)) << 16U);
 80041fe:	61d3      	str	r3, [r2, #28]
    if (((USBx_OUTEP(ep->num)->DOEPCTL) & USB_OTG_DOEPCTL_USBAEP) == 0U)
 8004200:	6803      	ldr	r3, [r0, #0]
 8004202:	041b      	lsls	r3, r3, #16
 8004204:	d4f1      	bmi.n	80041ea <USB_ActivateEndpoint+0x46>
      USBx_OUTEP(ep->num)->DOEPCTL |= ((ep->maxpacket & USB_OTG_DOEPCTL_MPSIZ ) | (ep->type << 18U) |\
 8004206:	688b      	ldr	r3, [r1, #8]
 8004208:	78c9      	ldrb	r1, [r1, #3]
 800420a:	6802      	ldr	r2, [r0, #0]
 800420c:	f3c3 030a 	ubfx	r3, r3, #0, #11
 8004210:	f043 5380 	orr.w	r3, r3, #268435456	; 0x10000000
 8004214:	f443 4300 	orr.w	r3, r3, #32768	; 0x8000
 8004218:	ea43 4381 	orr.w	r3, r3, r1, lsl #18
 800421c:	4313      	orrs	r3, r2
 800421e:	6003      	str	r3, [r0, #0]
 8004220:	e7e3      	b.n	80041ea <USB_ActivateEndpoint+0x46>

08004222 <USB_DeactivateEndpoint>:
 8004222:	f000 b801 	b.w	8004228 <USB_DeactivateDedicatedEndpoint>
	...

08004228 <USB_DeactivateDedicatedEndpoint>:
  * @param  USBx  Selected device
  * @param  ep pointer to endpoint structure
  * @retval HAL status
  */
HAL_StatusTypeDef USB_DeactivateDedicatedEndpoint(USB_OTG_GlobalTypeDef *USBx, USB_OTG_EPTypeDef *ep)
{
 8004228:	b570      	push	{r4, r5, r6, lr}
  uint32_t count = 0U;
  
  /* Disable the IN endpoint */
  if (ep->is_in == 1U)
 800422a:	784b      	ldrb	r3, [r1, #1]
 800422c:	2b01      	cmp	r3, #1
{
 800422e:	460e      	mov	r6, r1
 8004230:	4605      	mov	r5, r0
 8004232:	7809      	ldrb	r1, [r1, #0]
 8004234:	f04f 0320 	mov.w	r3, #32
  if (ep->is_in == 1U)
 8004238:	d126      	bne.n	8004288 <USB_DeactivateDedicatedEndpoint+0x60>
  {
    USBx_INEP(ep->num)->DIEPCTL &= ~USB_OTG_DIEPCTL_USBAEP;  
 800423a:	f500 6210 	add.w	r2, r0, #2304	; 0x900
 800423e:	fb13 2301 	smlabb	r3, r3, r1, r2
 8004242:	681a      	ldr	r2, [r3, #0]
 8004244:	f422 4200 	bic.w	r2, r2, #32768	; 0x8000
 8004248:	601a      	str	r2, [r3, #0]
    
    /* sets the NAK bit for the IN endpoint */
    USBx_INEP(ep->num)->DIEPCTL = USB_OTG_DIEPCTL_SNAK;
 800424a:	f04f 6200 	mov.w	r2, #134217728	; 0x8000000
 800424e:	601a      	str	r2, [r3, #0]
    
    /* Disable IN endpoint */
    USBx_INEP(ep->num)->DIEPCTL = USB_OTG_DIEPCTL_EPDIS;
 8004250:	f04f 4280 	mov.w	r2, #1073741824	; 0x40000000
 8004254:	601a      	str	r2, [r3, #0]
 8004256:	4a1f      	ldr	r2, [pc, #124]	; (80042d4 <USB_DeactivateDedicatedEndpoint+0xac>)
    
    do
    {
      if (++count > 200000U)
 8004258:	3a01      	subs	r2, #1
 800425a:	d101      	bne.n	8004260 <USB_DeactivateDedicatedEndpoint+0x38>
      {
        return HAL_TIMEOUT;
 800425c:	2003      	movs	r0, #3
 800425e:	bd70      	pop	{r4, r5, r6, pc}
      }
    }
    
    /*Wait for  EPDISD endpoint disabled interrupt*/ 
    while ((USBx_INEP(ep->num)->DIEPINT & USB_OTG_DIEPCTL_EPDIS) == USB_OTG_DIEPCTL_EPDIS);
 8004260:	689c      	ldr	r4, [r3, #8]
 8004262:	f014 4480 	ands.w	r4, r4, #1073741824	; 0x40000000
 8004266:	d1f7      	bne.n	8004258 <USB_DeactivateDedicatedEndpoint+0x30>
    
    
    /* Flush any data remaining in the TxFIFO */
    USB_FlushTxFifo(USBx , 0x10U);
 8004268:	2110      	movs	r1, #16
 800426a:	4628      	mov	r0, r5
 800426c:	f7ff ff56 	bl	800411c <USB_FlushTxFifo>
    
    /* Disable endpoint interrupts */
    USBx_DEVICE->DAINTMSK &= ~(USB_OTG_DAINTMSK_IEPM & ((1U << (ep->num))));   
 8004270:	7831      	ldrb	r1, [r6, #0]
 8004272:	f8d5 281c 	ldr.w	r2, [r5, #2076]	; 0x81c
 8004276:	2301      	movs	r3, #1
 8004278:	408b      	lsls	r3, r1
 800427a:	b29b      	uxth	r3, r3
 800427c:	ea22 0303 	bic.w	r3, r2, r3
 8004280:	f8c5 381c 	str.w	r3, [r5, #2076]	; 0x81c
    USBx_DEVICE->DCTL |= USB_OTG_DCTL_CGONAK;
    
    /* Disable endpoint interrupts */
    USBx_DEVICE->DAINTMSK &= ~(USB_OTG_DAINTMSK_OEPM & ((1U << (ep->num)) << 16U));         
  }
  return HAL_OK;
 8004284:	4620      	mov	r0, r4
 8004286:	bd70      	pop	{r4, r5, r6, pc}
    USBx_OUTEP(ep->num)->DOEPCTL &= ~USB_OTG_DOEPCTL_USBAEP;  
 8004288:	f500 6230 	add.w	r2, r0, #2816	; 0xb00
 800428c:	fb13 2301 	smlabb	r3, r3, r1, r2
 8004290:	681a      	ldr	r2, [r3, #0]
 8004292:	f422 4200 	bic.w	r2, r2, #32768	; 0x8000
 8004296:	601a      	str	r2, [r3, #0]
    USBx_OUTEP(ep->num)->DOEPCTL = USB_OTG_DOEPCTL_SNAK;
 8004298:	f04f 6200 	mov.w	r2, #134217728	; 0x8000000
 800429c:	601a      	str	r2, [r3, #0]
    USBx_OUTEP(ep->num)->DOEPCTL = USB_OTG_DOEPCTL_EPDIS;
 800429e:	f04f 4280 	mov.w	r2, #1073741824	; 0x40000000
 80042a2:	601a      	str	r2, [r3, #0]
 80042a4:	4a0b      	ldr	r2, [pc, #44]	; (80042d4 <USB_DeactivateDedicatedEndpoint+0xac>)
      if (++count > 200000U)
 80042a6:	3a01      	subs	r2, #1
 80042a8:	d0d8      	beq.n	800425c <USB_DeactivateDedicatedEndpoint+0x34>
    while ((USBx_OUTEP(ep->num)->DOEPINT & USB_OTG_DOEPINT_OTEPDIS) == USB_OTG_DOEPINT_OTEPDIS);
 80042aa:	6898      	ldr	r0, [r3, #8]
 80042ac:	f010 0010 	ands.w	r0, r0, #16
 80042b0:	d1f9      	bne.n	80042a6 <USB_DeactivateDedicatedEndpoint+0x7e>
    USBx_DEVICE->DCTL |= USB_OTG_DCTL_CGONAK;
 80042b2:	f8d5 3804 	ldr.w	r3, [r5, #2052]	; 0x804
 80042b6:	f443 6380 	orr.w	r3, r3, #1024	; 0x400
 80042ba:	f8c5 3804 	str.w	r3, [r5, #2052]	; 0x804
    USBx_DEVICE->DAINTMSK &= ~(USB_OTG_DAINTMSK_OEPM & ((1U << (ep->num)) << 16U));         
 80042be:	f8d5 381c 	ldr.w	r3, [r5, #2076]	; 0x81c
 80042c2:	f44f 3280 	mov.w	r2, #65536	; 0x10000
 80042c6:	408a      	lsls	r2, r1
 80042c8:	ea23 0302 	bic.w	r3, r3, r2
 80042cc:	f8c5 381c 	str.w	r3, [r5, #2076]	; 0x81c

}
 80042d0:	bd70      	pop	{r4, r5, r6, pc}
 80042d2:	bf00      	nop
 80042d4:	00030d41 	.word	0x00030d41

080042d8 <USB_EPStartXfer>:
  *           0 : DMA feature not used 
  *           1 : DMA feature used  
  * @retval HAL status
  */
HAL_StatusTypeDef USB_EPStartXfer(USB_OTG_GlobalTypeDef *USBx , USB_OTG_EPTypeDef *ep, uint8_t dma)
{
 80042d8:	b5f7      	push	{r0, r1, r2, r4, r5, r6, r7, lr}
  uint16_t pktcnt = 0U;
  
  /* IN endpoint */
  if (ep->is_in == 1U)
 80042da:	784b      	ldrb	r3, [r1, #1]
 80042dc:	780c      	ldrb	r4, [r1, #0]
 80042de:	2b01      	cmp	r3, #1
 80042e0:	694b      	ldr	r3, [r1, #20]
 80042e2:	d177      	bne.n	80043d4 <USB_EPStartXfer+0xfc>
 80042e4:	2620      	movs	r6, #32
 80042e6:	f500 6510 	add.w	r5, r0, #2304	; 0x900
  {
    /* Zero Length Packet? */
    if (ep->xfer_len == 0U)
    {
      USBx_INEP(ep->num)->DIEPTSIZ &= ~(USB_OTG_DIEPTSIZ_PKTCNT); 
 80042ea:	fb16 5404 	smlabb	r4, r6, r4, r5
 80042ee:	6926      	ldr	r6, [r4, #16]
    if (ep->xfer_len == 0U)
 80042f0:	2b00      	cmp	r3, #0
 80042f2:	d138      	bne.n	8004366 <USB_EPStartXfer+0x8e>
      USBx_INEP(ep->num)->DIEPTSIZ &= ~(USB_OTG_DIEPTSIZ_PKTCNT); 
 80042f4:	f026 56ff 	bic.w	r6, r6, #534773760	; 0x1fe00000
 80042f8:	f426 16c0 	bic.w	r6, r6, #1572864	; 0x180000
 80042fc:	6126      	str	r6, [r4, #16]
      USBx_INEP(ep->num)->DIEPTSIZ |= (USB_OTG_DIEPTSIZ_PKTCNT & (1U << 19U)) ;
 80042fe:	6926      	ldr	r6, [r4, #16]
 8004300:	f446 2600 	orr.w	r6, r6, #524288	; 0x80000
 8004304:	6126      	str	r6, [r4, #16]
      USBx_INEP(ep->num)->DIEPTSIZ &= ~(USB_OTG_DIEPTSIZ_XFRSIZ); 
 8004306:	6926      	ldr	r6, [r4, #16]
 8004308:	0cf6      	lsrs	r6, r6, #19
 800430a:	04f6      	lsls	r6, r6, #19
 800430c:	6126      	str	r6, [r4, #16]
        USBx_INEP(ep->num)->DIEPTSIZ &= ~(USB_OTG_DIEPTSIZ_MULCNT); 
        USBx_INEP(ep->num)->DIEPTSIZ |= (USB_OTG_DIEPTSIZ_MULCNT & (1U << 29U)); 
      }       
    }

    if (dma == 1U)
 800430e:	2a01      	cmp	r2, #1
 8004310:	d150      	bne.n	80043b4 <USB_EPStartXfer+0xdc>
    {
      USBx_INEP(ep->num)->DIEPDMA = (uint32_t)(ep->dma_addr);
 8004312:	780c      	ldrb	r4, [r1, #0]
 8004314:	690e      	ldr	r6, [r1, #16]
 8004316:	eb05 1444 	add.w	r4, r5, r4, lsl #5
 800431a:	6166      	str	r6, [r4, #20]
          USBx_DEVICE->DIEPEMPMSK |= 1U << ep->num;
        }
      }
    }

    if (ep->type == EP_TYPE_ISOC)
 800431c:	78ce      	ldrb	r6, [r1, #3]
 800431e:	2e01      	cmp	r6, #1
 8004320:	d10f      	bne.n	8004342 <USB_EPStartXfer+0x6a>
    {
      if ((USBx_DEVICE->DSTS & ( 1U << 8U )) == 0U)
 8004322:	f8d0 4808 	ldr.w	r4, [r0, #2056]	; 0x808
 8004326:	780f      	ldrb	r7, [r1, #0]
 8004328:	f414 7f80 	tst.w	r4, #256	; 0x100
 800432c:	f04f 0420 	mov.w	r4, #32
      {
        USBx_INEP(ep->num)->DIEPCTL |= USB_OTG_DIEPCTL_SODDFRM;
 8004330:	fb14 5407 	smlabb	r4, r4, r7, r5
 8004334:	6827      	ldr	r7, [r4, #0]
 8004336:	bf0c      	ite	eq
 8004338:	f047 5700 	orreq.w	r7, r7, #536870912	; 0x20000000
      }
      else
      {
        USBx_INEP(ep->num)->DIEPCTL |= USB_OTG_DIEPCTL_SD0PID_SEVNFRM;
 800433c:	f047 5780 	orrne.w	r7, r7, #268435456	; 0x10000000
 8004340:	6027      	str	r7, [r4, #0]
      }
    } 
    
    /* EP enable, IN data in FIFO */
    USBx_INEP(ep->num)->DIEPCTL |= (USB_OTG_DIEPCTL_CNAK | USB_OTG_DIEPCTL_EPENA);
 8004342:	780f      	ldrb	r7, [r1, #0]
 8004344:	eb05 1547 	add.w	r5, r5, r7, lsl #5
    
    if (ep->type == EP_TYPE_ISOC)
 8004348:	2e01      	cmp	r6, #1
    USBx_INEP(ep->num)->DIEPCTL |= (USB_OTG_DIEPCTL_CNAK | USB_OTG_DIEPCTL_EPENA);
 800434a:	682c      	ldr	r4, [r5, #0]
 800434c:	f044 4404 	orr.w	r4, r4, #2214592512	; 0x84000000
 8004350:	602c      	str	r4, [r5, #0]
    if (ep->type == EP_TYPE_ISOC)
 8004352:	d105      	bne.n	8004360 <USB_EPStartXfer+0x88>
    {
      USB_WritePacket(USBx, ep->xfer_buff, ep->num, ep->xfer_len, dma);   
 8004354:	9200      	str	r2, [sp, #0]
 8004356:	b29b      	uxth	r3, r3
 8004358:	463a      	mov	r2, r7
 800435a:	68c9      	ldr	r1, [r1, #12]
 800435c:	f000 f8ef 	bl	800453e <USB_WritePacket>
    }
    /* EP enable */
    USBx_OUTEP(ep->num)->DOEPCTL |= (USB_OTG_DOEPCTL_CNAK | USB_OTG_DOEPCTL_EPENA);
  }
  return HAL_OK;
}
 8004360:	2000      	movs	r0, #0
 8004362:	b003      	add	sp, #12
 8004364:	bdf0      	pop	{r4, r5, r6, r7, pc}
      USBx_INEP(ep->num)->DIEPTSIZ &= ~(USB_OTG_DIEPTSIZ_XFRSIZ);
 8004366:	0cf6      	lsrs	r6, r6, #19
 8004368:	04f6      	lsls	r6, r6, #19
 800436a:	6126      	str	r6, [r4, #16]
      USBx_INEP(ep->num)->DIEPTSIZ &= ~(USB_OTG_DIEPTSIZ_PKTCNT); 
 800436c:	6926      	ldr	r6, [r4, #16]
      USBx_INEP(ep->num)->DIEPTSIZ |= (USB_OTG_DIEPTSIZ_PKTCNT & (((ep->xfer_len + ep->maxpacket -1U)/ ep->maxpacket) << 19U)) ;
 800436e:	688f      	ldr	r7, [r1, #8]
      USBx_INEP(ep->num)->DIEPTSIZ &= ~(USB_OTG_DIEPTSIZ_PKTCNT); 
 8004370:	f026 56ff 	bic.w	r6, r6, #534773760	; 0x1fe00000
 8004374:	f426 16c0 	bic.w	r6, r6, #1572864	; 0x180000
 8004378:	6126      	str	r6, [r4, #16]
      USBx_INEP(ep->num)->DIEPTSIZ |= (USB_OTG_DIEPTSIZ_PKTCNT & (((ep->xfer_len + ep->maxpacket -1U)/ ep->maxpacket) << 19U)) ;
 800437a:	19de      	adds	r6, r3, r7
 800437c:	3e01      	subs	r6, #1
 800437e:	fbb6 f7f7 	udiv	r7, r6, r7
 8004382:	4e37      	ldr	r6, [pc, #220]	; (8004460 <USB_EPStartXfer+0x188>)
 8004384:	f8d4 e010 	ldr.w	lr, [r4, #16]
 8004388:	ea06 46c7 	and.w	r6, r6, r7, lsl #19
 800438c:	ea46 060e 	orr.w	r6, r6, lr
 8004390:	6126      	str	r6, [r4, #16]
      USBx_INEP(ep->num)->DIEPTSIZ |= (USB_OTG_DIEPTSIZ_XFRSIZ & ep->xfer_len); 
 8004392:	6927      	ldr	r7, [r4, #16]
 8004394:	f3c3 0612 	ubfx	r6, r3, #0, #19
 8004398:	433e      	orrs	r6, r7
 800439a:	6126      	str	r6, [r4, #16]
      if (ep->type == EP_TYPE_ISOC)
 800439c:	78ce      	ldrb	r6, [r1, #3]
 800439e:	2e01      	cmp	r6, #1
 80043a0:	d15a      	bne.n	8004458 <USB_EPStartXfer+0x180>
        USBx_INEP(ep->num)->DIEPTSIZ &= ~(USB_OTG_DIEPTSIZ_MULCNT); 
 80043a2:	6926      	ldr	r6, [r4, #16]
 80043a4:	f026 46c0 	bic.w	r6, r6, #1610612736	; 0x60000000
 80043a8:	6126      	str	r6, [r4, #16]
        USBx_INEP(ep->num)->DIEPTSIZ |= (USB_OTG_DIEPTSIZ_MULCNT & (1U << 29U)); 
 80043aa:	6926      	ldr	r6, [r4, #16]
 80043ac:	f046 5600 	orr.w	r6, r6, #536870912	; 0x20000000
 80043b0:	6126      	str	r6, [r4, #16]
 80043b2:	e7ac      	b.n	800430e <USB_EPStartXfer+0x36>
      if (ep->type != EP_TYPE_ISOC)
 80043b4:	78ce      	ldrb	r6, [r1, #3]
 80043b6:	2e01      	cmp	r6, #1
 80043b8:	d0b3      	beq.n	8004322 <USB_EPStartXfer+0x4a>
        if (ep->xfer_len > 0U)
 80043ba:	2b00      	cmp	r3, #0
 80043bc:	d0ae      	beq.n	800431c <USB_EPStartXfer+0x44>
          USBx_DEVICE->DIEPEMPMSK |= 1U << ep->num;
 80043be:	f891 e000 	ldrb.w	lr, [r1]
 80043c2:	f8d0 7834 	ldr.w	r7, [r0, #2100]	; 0x834
 80043c6:	2401      	movs	r4, #1
 80043c8:	fa04 f40e 	lsl.w	r4, r4, lr
 80043cc:	433c      	orrs	r4, r7
 80043ce:	f8c0 4834 	str.w	r4, [r0, #2100]	; 0x834
 80043d2:	e7a3      	b.n	800431c <USB_EPStartXfer+0x44>
    USBx_OUTEP(ep->num)->DOEPTSIZ &= ~(USB_OTG_DOEPTSIZ_XFRSIZ); 
 80043d4:	f500 6530 	add.w	r5, r0, #2816	; 0xb00
 80043d8:	eb05 1444 	add.w	r4, r5, r4, lsl #5
 80043dc:	6925      	ldr	r5, [r4, #16]
 80043de:	0ced      	lsrs	r5, r5, #19
 80043e0:	04ed      	lsls	r5, r5, #19
 80043e2:	6125      	str	r5, [r4, #16]
    USBx_OUTEP(ep->num)->DOEPTSIZ &= ~(USB_OTG_DOEPTSIZ_PKTCNT); 
 80043e4:	6925      	ldr	r5, [r4, #16]
 80043e6:	f025 55ff 	bic.w	r5, r5, #534773760	; 0x1fe00000
 80043ea:	f425 15c0 	bic.w	r5, r5, #1572864	; 0x180000
 80043ee:	6125      	str	r5, [r4, #16]
 80043f0:	688d      	ldr	r5, [r1, #8]
    if (ep->xfer_len == 0U)
 80043f2:	b9fb      	cbnz	r3, 8004434 <USB_EPStartXfer+0x15c>
      USBx_OUTEP(ep->num)->DOEPTSIZ |= (USB_OTG_DOEPTSIZ_XFRSIZ & ep->maxpacket);
 80043f4:	6923      	ldr	r3, [r4, #16]
 80043f6:	f3c5 0512 	ubfx	r5, r5, #0, #19
 80043fa:	431d      	orrs	r5, r3
 80043fc:	6125      	str	r5, [r4, #16]
      USBx_OUTEP(ep->num)->DOEPTSIZ |= (USB_OTG_DOEPTSIZ_PKTCNT & (1U << 19U));
 80043fe:	6923      	ldr	r3, [r4, #16]
 8004400:	f443 2300 	orr.w	r3, r3, #524288	; 0x80000
 8004404:	6123      	str	r3, [r4, #16]
    if (dma == 1U)
 8004406:	2a01      	cmp	r2, #1
      USBx_OUTEP(ep->num)->DOEPDMA = (uint32_t)ep->xfer_buff;
 8004408:	bf04      	itt	eq
 800440a:	68cb      	ldreq	r3, [r1, #12]
 800440c:	6163      	streq	r3, [r4, #20]
    if (ep->type == EP_TYPE_ISOC)
 800440e:	78cb      	ldrb	r3, [r1, #3]
 8004410:	2b01      	cmp	r3, #1
 8004412:	d10a      	bne.n	800442a <USB_EPStartXfer+0x152>
      if ((USBx_DEVICE->DSTS & ( 1U << 8U )) == 0U)
 8004414:	f8d0 3808 	ldr.w	r3, [r0, #2056]	; 0x808
 8004418:	f413 7f80 	tst.w	r3, #256	; 0x100
        USBx_OUTEP(ep->num)->DOEPCTL |= USB_OTG_DOEPCTL_SODDFRM;
 800441c:	6823      	ldr	r3, [r4, #0]
 800441e:	bf0c      	ite	eq
 8004420:	f043 5300 	orreq.w	r3, r3, #536870912	; 0x20000000
        USBx_OUTEP(ep->num)->DOEPCTL |= USB_OTG_DOEPCTL_SD0PID_SEVNFRM;
 8004424:	f043 5380 	orrne.w	r3, r3, #268435456	; 0x10000000
 8004428:	6023      	str	r3, [r4, #0]
    USBx_OUTEP(ep->num)->DOEPCTL |= (USB_OTG_DOEPCTL_CNAK | USB_OTG_DOEPCTL_EPENA);
 800442a:	6823      	ldr	r3, [r4, #0]
 800442c:	f043 4304 	orr.w	r3, r3, #2214592512	; 0x84000000
 8004430:	6023      	str	r3, [r4, #0]
  return HAL_OK;
 8004432:	e795      	b.n	8004360 <USB_EPStartXfer+0x88>
      USBx_OUTEP(ep->num)->DOEPTSIZ |= (USB_OTG_DOEPTSIZ_PKTCNT & (pktcnt << 19U));
 8004434:	4e0a      	ldr	r6, [pc, #40]	; (8004460 <USB_EPStartXfer+0x188>)
 8004436:	6927      	ldr	r7, [r4, #16]
      pktcnt = (ep->xfer_len + ep->maxpacket -1U)/ ep->maxpacket; 
 8004438:	442b      	add	r3, r5
 800443a:	3b01      	subs	r3, #1
 800443c:	fbb3 f3f5 	udiv	r3, r3, r5
      USBx_OUTEP(ep->num)->DOEPTSIZ |= (USB_OTG_DOEPTSIZ_PKTCNT & (pktcnt << 19U));
 8004440:	ea06 46c3 	and.w	r6, r6, r3, lsl #19
 8004444:	433e      	orrs	r6, r7
 8004446:	6126      	str	r6, [r4, #16]
      USBx_OUTEP(ep->num)->DOEPTSIZ |= (USB_OTG_DOEPTSIZ_XFRSIZ & (ep->maxpacket * pktcnt));
 8004448:	b29b      	uxth	r3, r3
 800444a:	6926      	ldr	r6, [r4, #16]
 800444c:	435d      	muls	r5, r3
 800444e:	f3c5 0512 	ubfx	r5, r5, #0, #19
 8004452:	4335      	orrs	r5, r6
 8004454:	6125      	str	r5, [r4, #16]
 8004456:	e7d6      	b.n	8004406 <USB_EPStartXfer+0x12e>
    if (dma == 1U)
 8004458:	2a01      	cmp	r2, #1
 800445a:	d1ae      	bne.n	80043ba <USB_EPStartXfer+0xe2>
 800445c:	e759      	b.n	8004312 <USB_EPStartXfer+0x3a>
 800445e:	bf00      	nop
 8004460:	1ff80000 	.word	0x1ff80000

08004464 <USB_EP0StartXfer>:
  * @retval HAL status
  */
HAL_StatusTypeDef USB_EP0StartXfer(USB_OTG_GlobalTypeDef *USBx , USB_OTG_EPTypeDef *ep, uint8_t dma)
{
  /* IN endpoint */
  if (ep->is_in == 1U)
 8004464:	784b      	ldrb	r3, [r1, #1]
 8004466:	2b01      	cmp	r3, #1
{
 8004468:	b570      	push	{r4, r5, r6, lr}
 800446a:	780b      	ldrb	r3, [r1, #0]
 800446c:	694d      	ldr	r5, [r1, #20]
  if (ep->is_in == 1U)
 800446e:	d143      	bne.n	80044f8 <USB_EP0StartXfer+0x94>
 8004470:	2420      	movs	r4, #32
 8004472:	f500 6610 	add.w	r6, r0, #2304	; 0x900
  {
    /* Zero Length Packet? */
    if (ep->xfer_len == 0U)
    {
      USBx_INEP(ep->num)->DIEPTSIZ &= ~(USB_OTG_DIEPTSIZ_PKTCNT); 
 8004476:	fb14 6303 	smlabb	r3, r4, r3, r6
 800447a:	691c      	ldr	r4, [r3, #16]
    if (ep->xfer_len == 0U)
 800447c:	b9cd      	cbnz	r5, 80044b2 <USB_EP0StartXfer+0x4e>
      USBx_INEP(ep->num)->DIEPTSIZ &= ~(USB_OTG_DIEPTSIZ_PKTCNT); 
 800447e:	f024 54ff 	bic.w	r4, r4, #534773760	; 0x1fe00000
 8004482:	f424 14c0 	bic.w	r4, r4, #1572864	; 0x180000
 8004486:	611c      	str	r4, [r3, #16]
      USBx_INEP(ep->num)->DIEPTSIZ |= (USB_OTG_DIEPTSIZ_PKTCNT & (1U << 19U)) ;
 8004488:	691c      	ldr	r4, [r3, #16]
 800448a:	f444 2400 	orr.w	r4, r4, #524288	; 0x80000
 800448e:	611c      	str	r4, [r3, #16]
      USBx_INEP(ep->num)->DIEPTSIZ &= ~(USB_OTG_DIEPTSIZ_XFRSIZ); 
 8004490:	691c      	ldr	r4, [r3, #16]
 8004492:	0ce4      	lsrs	r4, r4, #19
 8004494:	04e4      	lsls	r4, r4, #19
 8004496:	611c      	str	r4, [r3, #16]
      USBx_INEP(ep->num)->DIEPTSIZ |= (USB_OTG_DIEPTSIZ_XFRSIZ & ep->xfer_len); 
    
    }
    
    /* EP enable, IN data in FIFO */
    USBx_INEP(ep->num)->DIEPCTL |= (USB_OTG_DIEPCTL_CNAK | USB_OTG_DIEPCTL_EPENA);     
 8004498:	780d      	ldrb	r5, [r1, #0]
 800449a:	eb06 1345 	add.w	r3, r6, r5, lsl #5
    
    if (dma == 1)
 800449e:	2a01      	cmp	r2, #1
    USBx_INEP(ep->num)->DIEPCTL |= (USB_OTG_DIEPCTL_CNAK | USB_OTG_DIEPCTL_EPENA);     
 80044a0:	681c      	ldr	r4, [r3, #0]
 80044a2:	f044 4404 	orr.w	r4, r4, #2214592512	; 0x84000000
 80044a6:	601c      	str	r4, [r3, #0]
    if (dma == 1)
 80044a8:	d11b      	bne.n	80044e2 <USB_EP0StartXfer+0x7e>
    {
      USBx_INEP(ep->num)->DIEPDMA = (uint32_t)(ep->dma_addr);
 80044aa:	690a      	ldr	r2, [r1, #16]
 80044ac:	615a      	str	r2, [r3, #20]
    
    /* EP enable */
    USBx_OUTEP(ep->num)->DOEPCTL |= (USB_OTG_DOEPCTL_CNAK | USB_OTG_DOEPCTL_EPENA);    
  }
  return HAL_OK;
}
 80044ae:	2000      	movs	r0, #0
 80044b0:	bd70      	pop	{r4, r5, r6, pc}
      USBx_INEP(ep->num)->DIEPTSIZ &= ~(USB_OTG_DIEPTSIZ_XFRSIZ);
 80044b2:	0ce4      	lsrs	r4, r4, #19
 80044b4:	04e4      	lsls	r4, r4, #19
 80044b6:	611c      	str	r4, [r3, #16]
      USBx_INEP(ep->num)->DIEPTSIZ &= ~(USB_OTG_DIEPTSIZ_PKTCNT); 
 80044b8:	691c      	ldr	r4, [r3, #16]
 80044ba:	f024 54ff 	bic.w	r4, r4, #534773760	; 0x1fe00000
 80044be:	f424 14c0 	bic.w	r4, r4, #1572864	; 0x180000
 80044c2:	611c      	str	r4, [r3, #16]
      if(ep->xfer_len > ep->maxpacket)
 80044c4:	688c      	ldr	r4, [r1, #8]
 80044c6:	42a5      	cmp	r5, r4
        ep->xfer_len = ep->maxpacket;
 80044c8:	bf88      	it	hi
 80044ca:	614c      	strhi	r4, [r1, #20]
      USBx_INEP(ep->num)->DIEPTSIZ |= (USB_OTG_DIEPTSIZ_PKTCNT & (1U << 19U)) ;
 80044cc:	691c      	ldr	r4, [r3, #16]
 80044ce:	f444 2400 	orr.w	r4, r4, #524288	; 0x80000
 80044d2:	611c      	str	r4, [r3, #16]
      USBx_INEP(ep->num)->DIEPTSIZ |= (USB_OTG_DIEPTSIZ_XFRSIZ & ep->xfer_len); 
 80044d4:	694c      	ldr	r4, [r1, #20]
 80044d6:	691d      	ldr	r5, [r3, #16]
 80044d8:	f3c4 0412 	ubfx	r4, r4, #0, #19
 80044dc:	432c      	orrs	r4, r5
 80044de:	611c      	str	r4, [r3, #16]
 80044e0:	e7da      	b.n	8004498 <USB_EP0StartXfer+0x34>
      if (ep->xfer_len > 0U)
 80044e2:	694b      	ldr	r3, [r1, #20]
 80044e4:	2b00      	cmp	r3, #0
 80044e6:	d0e2      	beq.n	80044ae <USB_EP0StartXfer+0x4a>
        USBx_DEVICE->DIEPEMPMSK |= 1U << (ep->num);
 80044e8:	f8d0 2834 	ldr.w	r2, [r0, #2100]	; 0x834
 80044ec:	2301      	movs	r3, #1
 80044ee:	40ab      	lsls	r3, r5
 80044f0:	4313      	orrs	r3, r2
 80044f2:	f8c0 3834 	str.w	r3, [r0, #2100]	; 0x834
 80044f6:	e7da      	b.n	80044ae <USB_EP0StartXfer+0x4a>
    USBx_OUTEP(ep->num)->DOEPTSIZ &= ~(USB_OTG_DOEPTSIZ_XFRSIZ); 
 80044f8:	f500 6030 	add.w	r0, r0, #2816	; 0xb00
 80044fc:	eb00 1043 	add.w	r0, r0, r3, lsl #5
 8004500:	6903      	ldr	r3, [r0, #16]
 8004502:	0cdb      	lsrs	r3, r3, #19
 8004504:	04db      	lsls	r3, r3, #19
 8004506:	6103      	str	r3, [r0, #16]
    USBx_OUTEP(ep->num)->DOEPTSIZ &= ~(USB_OTG_DOEPTSIZ_PKTCNT); 
 8004508:	6903      	ldr	r3, [r0, #16]
 800450a:	f023 53ff 	bic.w	r3, r3, #534773760	; 0x1fe00000
 800450e:	f423 13c0 	bic.w	r3, r3, #1572864	; 0x180000
 8004512:	6103      	str	r3, [r0, #16]
 8004514:	688b      	ldr	r3, [r1, #8]
    if (ep->xfer_len > 0U)
 8004516:	b105      	cbz	r5, 800451a <USB_EP0StartXfer+0xb6>
      ep->xfer_len = ep->maxpacket;
 8004518:	614b      	str	r3, [r1, #20]
    USBx_OUTEP(ep->num)->DOEPTSIZ |= (USB_OTG_DOEPTSIZ_PKTCNT & (1U << 19U));
 800451a:	6904      	ldr	r4, [r0, #16]
 800451c:	f444 2400 	orr.w	r4, r4, #524288	; 0x80000
 8004520:	6104      	str	r4, [r0, #16]
    USBx_OUTEP(ep->num)->DOEPTSIZ |= (USB_OTG_DOEPTSIZ_XFRSIZ & (ep->maxpacket)); 
 8004522:	6904      	ldr	r4, [r0, #16]
 8004524:	f3c3 0312 	ubfx	r3, r3, #0, #19
 8004528:	4323      	orrs	r3, r4
    if (dma == 1U)
 800452a:	2a01      	cmp	r2, #1
    USBx_OUTEP(ep->num)->DOEPTSIZ |= (USB_OTG_DOEPTSIZ_XFRSIZ & (ep->maxpacket)); 
 800452c:	6103      	str	r3, [r0, #16]
      USBx_OUTEP(ep->num)->DOEPDMA = (uint32_t)(ep->xfer_buff);
 800452e:	bf04      	itt	eq
 8004530:	68cb      	ldreq	r3, [r1, #12]
 8004532:	6143      	streq	r3, [r0, #20]
    USBx_OUTEP(ep->num)->DOEPCTL |= (USB_OTG_DOEPCTL_CNAK | USB_OTG_DOEPCTL_EPENA);    
 8004534:	6803      	ldr	r3, [r0, #0]
 8004536:	f043 4304 	orr.w	r3, r3, #2214592512	; 0x84000000
 800453a:	6003      	str	r3, [r0, #0]
 800453c:	e7b7      	b.n	80044ae <USB_EP0StartXfer+0x4a>

0800453e <USB_WritePacket>:
  *           0 : DMA feature not used 
  *           1 : DMA feature used  
  * @retval HAL status
  */
HAL_StatusTypeDef USB_WritePacket(USB_OTG_GlobalTypeDef *USBx, uint8_t *src, uint8_t ch_ep_num, uint16_t len, uint8_t dma)
{
 800453e:	b510      	push	{r4, lr}
 8004540:	f89d 4008 	ldrb.w	r4, [sp, #8]
  uint32_t count32b = 0U , i = 0U;
  
  if (dma == 0U)
 8004544:	b94c      	cbnz	r4, 800455a <USB_WritePacket+0x1c>
  {
    count32b =  (len + 3U) / 4U;
 8004546:	3303      	adds	r3, #3
    for (i = 0U; i < count32b; i++, src += 4U)
    {
      USBx_DFIFO(ch_ep_num) = *((__packed uint32_t *)src);
 8004548:	f500 5080 	add.w	r0, r0, #4096	; 0x1000
 800454c:	f023 0303 	bic.w	r3, r3, #3
 8004550:	eb00 3202 	add.w	r2, r0, r2, lsl #12
 8004554:	440b      	add	r3, r1
    for (i = 0U; i < count32b; i++, src += 4U)
 8004556:	4299      	cmp	r1, r3
 8004558:	d101      	bne.n	800455e <USB_WritePacket+0x20>
    }
  }
  return HAL_OK;
}
 800455a:	2000      	movs	r0, #0
 800455c:	bd10      	pop	{r4, pc}
      USBx_DFIFO(ch_ep_num) = *((__packed uint32_t *)src);
 800455e:	f851 0b04 	ldr.w	r0, [r1], #4
 8004562:	6010      	str	r0, [r2, #0]
 8004564:	e7f7      	b.n	8004556 <USB_WritePacket+0x18>

08004566 <USB_ReadPacket>:
  * @retval pointer to destination buffer
  */
void *USB_ReadPacket(USB_OTG_GlobalTypeDef *USBx, uint8_t *dest, uint16_t len)
{
  uint32_t i=0U;
  uint32_t count32b = (len + 3U) / 4U;
 8004566:	3203      	adds	r2, #3
 8004568:	f022 0203 	bic.w	r2, r2, #3
 800456c:	440a      	add	r2, r1
  
  for ( i = 0U; i < count32b; i++, dest += 4U )
  {
    *(__packed uint32_t *)dest = USBx_DFIFO(0U);
 800456e:	f500 5080 	add.w	r0, r0, #4096	; 0x1000
  for ( i = 0U; i < count32b; i++, dest += 4U )
 8004572:	4291      	cmp	r1, r2
 8004574:	d101      	bne.n	800457a <USB_ReadPacket+0x14>
    
  }
  return ((void *)dest);
}
 8004576:	4608      	mov	r0, r1
 8004578:	4770      	bx	lr
    *(__packed uint32_t *)dest = USBx_DFIFO(0U);
 800457a:	6803      	ldr	r3, [r0, #0]
 800457c:	f841 3b04 	str.w	r3, [r1], #4
 8004580:	e7f7      	b.n	8004572 <USB_ReadPacket+0xc>

08004582 <USB_EPSetStall>:
  * @param  ep pointer to endpoint structure   
  * @retval HAL status
  */
HAL_StatusTypeDef USB_EPSetStall(USB_OTG_GlobalTypeDef *USBx , USB_OTG_EPTypeDef *ep)
{
  if (ep->is_in == 1U)
 8004582:	784b      	ldrb	r3, [r1, #1]
 8004584:	780a      	ldrb	r2, [r1, #0]
 8004586:	2b01      	cmp	r3, #1
 8004588:	f04f 0320 	mov.w	r3, #32
 800458c:	d10b      	bne.n	80045a6 <USB_EPSetStall+0x24>
  {
    if (((USBx_INEP(ep->num)->DIEPCTL) & USB_OTG_DIEPCTL_EPENA) == 0U)
 800458e:	f500 6010 	add.w	r0, r0, #2304	; 0x900
 8004592:	fb13 0002 	smlabb	r0, r3, r2, r0
 8004596:	6803      	ldr	r3, [r0, #0]
 8004598:	2b00      	cmp	r3, #0
 800459a:	db0b      	blt.n	80045b4 <USB_EPSetStall+0x32>
  }
  else
  {
    if (((USBx_OUTEP(ep->num)->DOEPCTL) & USB_OTG_DOEPCTL_EPENA) == 0U)
    {
      USBx_OUTEP(ep->num)->DOEPCTL &= ~(USB_OTG_DOEPCTL_EPDIS); 
 800459c:	6803      	ldr	r3, [r0, #0]
 800459e:	f023 4380 	bic.w	r3, r3, #1073741824	; 0x40000000
 80045a2:	6003      	str	r3, [r0, #0]
 80045a4:	e006      	b.n	80045b4 <USB_EPSetStall+0x32>
    if (((USBx_OUTEP(ep->num)->DOEPCTL) & USB_OTG_DOEPCTL_EPENA) == 0U)
 80045a6:	f500 6030 	add.w	r0, r0, #2816	; 0xb00
 80045aa:	fb13 0002 	smlabb	r0, r3, r2, r0
 80045ae:	6803      	ldr	r3, [r0, #0]
 80045b0:	2b00      	cmp	r3, #0
 80045b2:	daf3      	bge.n	800459c <USB_EPSetStall+0x1a>
    } 
    USBx_OUTEP(ep->num)->DOEPCTL |= USB_OTG_DOEPCTL_STALL;
 80045b4:	6803      	ldr	r3, [r0, #0]
 80045b6:	f443 1300 	orr.w	r3, r3, #2097152	; 0x200000
 80045ba:	6003      	str	r3, [r0, #0]
  }
  return HAL_OK;
}
 80045bc:	2000      	movs	r0, #0
 80045be:	4770      	bx	lr

080045c0 <USB_EPClearStall>:
  * @param  ep pointer to endpoint structure   
  * @retval HAL status
  */
HAL_StatusTypeDef USB_EPClearStall(USB_OTG_GlobalTypeDef *USBx, USB_OTG_EPTypeDef *ep)
{
  if (ep->is_in == 1U)
 80045c0:	784b      	ldrb	r3, [r1, #1]
 80045c2:	780a      	ldrb	r2, [r1, #0]
 80045c4:	2b01      	cmp	r3, #1
  {
    USBx_INEP(ep->num)->DIEPCTL &= ~USB_OTG_DIEPCTL_STALL;
 80045c6:	bf0c      	ite	eq
 80045c8:	f500 6010 	addeq.w	r0, r0, #2304	; 0x900
       USBx_INEP(ep->num)->DIEPCTL |= USB_OTG_DIEPCTL_SD0PID_SEVNFRM; /* DATA0 */
    }    
  }
  else
  {
    USBx_OUTEP(ep->num)->DOEPCTL &= ~USB_OTG_DOEPCTL_STALL;
 80045cc:	f500 6030 	addne.w	r0, r0, #2816	; 0xb00
 80045d0:	2320      	movs	r3, #32
 80045d2:	fb13 0002 	smlabb	r0, r3, r2, r0
 80045d6:	6803      	ldr	r3, [r0, #0]
 80045d8:	f423 1300 	bic.w	r3, r3, #2097152	; 0x200000
 80045dc:	6003      	str	r3, [r0, #0]
    if (ep->type == EP_TYPE_INTR || ep->type == EP_TYPE_BULK)
 80045de:	78cb      	ldrb	r3, [r1, #3]
 80045e0:	3b02      	subs	r3, #2
 80045e2:	2b01      	cmp	r3, #1
    {
      USBx_OUTEP(ep->num)->DOEPCTL |= USB_OTG_DOEPCTL_SD0PID_SEVNFRM; /* DATA0 */
 80045e4:	bf9e      	ittt	ls
 80045e6:	6803      	ldrls	r3, [r0, #0]
 80045e8:	f043 5380 	orrls.w	r3, r3, #268435456	; 0x10000000
 80045ec:	6003      	strls	r3, [r0, #0]
    }    
  }
  return HAL_OK;
}
 80045ee:	2000      	movs	r0, #0
 80045f0:	4770      	bx	lr

080045f2 <USB_SetDevAddress>:
  *          This parameter can be a value from 0 to 255
  * @retval HAL status
  */
HAL_StatusTypeDef  USB_SetDevAddress (USB_OTG_GlobalTypeDef *USBx, uint8_t address)
{
  USBx_DEVICE->DCFG &= ~ (USB_OTG_DCFG_DAD);
 80045f2:	f8d0 3800 	ldr.w	r3, [r0, #2048]	; 0x800
 80045f6:	f423 63fe 	bic.w	r3, r3, #2032	; 0x7f0
 80045fa:	f8c0 3800 	str.w	r3, [r0, #2048]	; 0x800
  USBx_DEVICE->DCFG |= (address << 4U) & USB_OTG_DCFG_DAD ;
 80045fe:	f8d0 3800 	ldr.w	r3, [r0, #2048]	; 0x800
 8004602:	0109      	lsls	r1, r1, #4
 8004604:	f401 61fe 	and.w	r1, r1, #2032	; 0x7f0
 8004608:	4319      	orrs	r1, r3
 800460a:	f8c0 1800 	str.w	r1, [r0, #2048]	; 0x800
  
  return HAL_OK;  
}
 800460e:	2000      	movs	r0, #0
 8004610:	4770      	bx	lr

08004612 <USB_DevConnect>:
  * @brief  USB_DevConnect : Connect the USB device by enabling the pull-up/pull-down
  * @param  USBx  Selected device
  * @retval HAL status
  */
HAL_StatusTypeDef  USB_DevConnect (USB_OTG_GlobalTypeDef *USBx)
{
 8004612:	b508      	push	{r3, lr}
  USBx_DEVICE->DCTL &= ~USB_OTG_DCTL_SDIS ;
 8004614:	f8d0 3804 	ldr.w	r3, [r0, #2052]	; 0x804
 8004618:	f023 0302 	bic.w	r3, r3, #2
 800461c:	f8c0 3804 	str.w	r3, [r0, #2052]	; 0x804
  HAL_Delay(3U);
 8004620:	2003      	movs	r0, #3
 8004622:	f7fd fd0d 	bl	8002040 <HAL_Delay>
  
  return HAL_OK;  
}
 8004626:	2000      	movs	r0, #0
 8004628:	bd08      	pop	{r3, pc}

0800462a <USB_DevDisconnect>:
  * @brief  USB_DevDisconnect : Disconnect the USB device by disabling the pull-up/pull-down
  * @param  USBx  Selected device
  * @retval HAL status
  */
HAL_StatusTypeDef  USB_DevDisconnect (USB_OTG_GlobalTypeDef *USBx)
{
 800462a:	b508      	push	{r3, lr}
  USBx_DEVICE->DCTL |= USB_OTG_DCTL_SDIS ;
 800462c:	f8d0 3804 	ldr.w	r3, [r0, #2052]	; 0x804
 8004630:	f043 0302 	orr.w	r3, r3, #2
 8004634:	f8c0 3804 	str.w	r3, [r0, #2052]	; 0x804
  HAL_Delay(3U);
 8004638:	2003      	movs	r0, #3
 800463a:	f7fd fd01 	bl	8002040 <HAL_Delay>
  
  return HAL_OK;  
}
 800463e:	2000      	movs	r0, #0
 8004640:	bd08      	pop	{r3, pc}

08004642 <USB_ReadInterrupts>:
  */
uint32_t  USB_ReadInterrupts (USB_OTG_GlobalTypeDef *USBx)
{
  uint32_t v = 0U;
  
  v = USBx->GINTSTS;
 8004642:	6942      	ldr	r2, [r0, #20]
  v &= USBx->GINTMSK;
 8004644:	6980      	ldr	r0, [r0, #24]
  return v;  
}
 8004646:	4010      	ands	r0, r2
 8004648:	4770      	bx	lr

0800464a <USB_ReadDevAllOutEpInterrupt>:
  * @retval HAL status
  */
uint32_t USB_ReadDevAllOutEpInterrupt (USB_OTG_GlobalTypeDef *USBx)
{
  uint32_t v;
  v  = USBx_DEVICE->DAINT;
 800464a:	f8d0 3818 	ldr.w	r3, [r0, #2072]	; 0x818
 800464e:	f500 6000 	add.w	r0, r0, #2048	; 0x800
  v &= USBx_DEVICE->DAINTMSK;
 8004652:	69c0      	ldr	r0, [r0, #28]
 8004654:	4018      	ands	r0, r3
  return ((v & 0xffff0000U) >> 16U);
}
 8004656:	0c00      	lsrs	r0, r0, #16
 8004658:	4770      	bx	lr

0800465a <USB_ReadDevAllInEpInterrupt>:
  * @retval HAL status
  */
uint32_t USB_ReadDevAllInEpInterrupt (USB_OTG_GlobalTypeDef *USBx)
{
  uint32_t v;
  v  = USBx_DEVICE->DAINT;
 800465a:	f8d0 3818 	ldr.w	r3, [r0, #2072]	; 0x818
 800465e:	f500 6000 	add.w	r0, r0, #2048	; 0x800
  v &= USBx_DEVICE->DAINTMSK;
 8004662:	69c0      	ldr	r0, [r0, #28]
 8004664:	4018      	ands	r0, r3
  return ((v & 0xFFFFU));
}
 8004666:	b280      	uxth	r0, r0
 8004668:	4770      	bx	lr

0800466a <USB_ReadDevOutEPInterrupt>:
  * @retval Device OUT EP Interrupt register
  */
uint32_t USB_ReadDevOutEPInterrupt (USB_OTG_GlobalTypeDef *USBx , uint8_t epnum)
{
  uint32_t v;
  v  = USBx_OUTEP(epnum)->DOEPINT;
 800466a:	f500 6330 	add.w	r3, r0, #2816	; 0xb00
 800466e:	eb03 1141 	add.w	r1, r3, r1, lsl #5
  v &= USBx_DEVICE->DOEPMSK;
 8004672:	f500 6000 	add.w	r0, r0, #2048	; 0x800
  v  = USBx_OUTEP(epnum)->DOEPINT;
 8004676:	688a      	ldr	r2, [r1, #8]
  v &= USBx_DEVICE->DOEPMSK;
 8004678:	6940      	ldr	r0, [r0, #20]
  return v;
}
 800467a:	4010      	ands	r0, r2
 800467c:	4770      	bx	lr

0800467e <USB_ReadDevInEPInterrupt>:
  * @param  epnum  endpoint number
  *          This parameter can be a value from 0 to 15
  * @retval Device IN EP Interrupt register
  */
uint32_t USB_ReadDevInEPInterrupt (USB_OTG_GlobalTypeDef *USBx , uint8_t epnum)
{
 800467e:	b510      	push	{r4, lr}
  uint32_t v, msk, emp;
  
  msk = USBx_DEVICE->DIEPMSK;
 8004680:	f8d0 4810 	ldr.w	r4, [r0, #2064]	; 0x810
  emp = USBx_DEVICE->DIEPEMPMSK;
 8004684:	f8d0 3834 	ldr.w	r3, [r0, #2100]	; 0x834
  msk |= ((emp >> epnum) & 0x1U) << 7U;
  v = USBx_INEP(epnum)->DIEPINT & msk;
 8004688:	eb00 1041 	add.w	r0, r0, r1, lsl #5
  msk |= ((emp >> epnum) & 0x1U) << 7U;
 800468c:	40cb      	lsrs	r3, r1
  v = USBx_INEP(epnum)->DIEPINT & msk;
 800468e:	f500 6010 	add.w	r0, r0, #2304	; 0x900
  msk |= ((emp >> epnum) & 0x1U) << 7U;
 8004692:	01db      	lsls	r3, r3, #7
  v = USBx_INEP(epnum)->DIEPINT & msk;
 8004694:	6880      	ldr	r0, [r0, #8]
  msk |= ((emp >> epnum) & 0x1U) << 7U;
 8004696:	b2db      	uxtb	r3, r3
 8004698:	4323      	orrs	r3, r4
  return v;
}
 800469a:	4018      	ands	r0, r3
 800469c:	bd10      	pop	{r4, pc}

0800469e <USB_GetMode>:
  *           0 : Host 
  *           1 : Device
  */
uint32_t USB_GetMode(USB_OTG_GlobalTypeDef *USBx)
{
  return ((USBx->GINTSTS ) & 0x1U);
 800469e:	6940      	ldr	r0, [r0, #20]
}
 80046a0:	f000 0001 	and.w	r0, r0, #1
 80046a4:	4770      	bx	lr

080046a6 <USB_ActivateSetup>:
  * @retval HAL status
  */
HAL_StatusTypeDef  USB_ActivateSetup (USB_OTG_GlobalTypeDef *USBx)
{
  /* Set the MPS of the IN EP based on the enumeration speed */
  USBx_INEP(0U)->DIEPCTL &= ~USB_OTG_DIEPCTL_MPSIZ;
 80046a6:	f8d0 3900 	ldr.w	r3, [r0, #2304]	; 0x900
 80046aa:	f423 63ff 	bic.w	r3, r3, #2040	; 0x7f8
 80046ae:	f023 0307 	bic.w	r3, r3, #7
 80046b2:	f8c0 3900 	str.w	r3, [r0, #2304]	; 0x900
  
  if((USBx_DEVICE->DSTS & USB_OTG_DSTS_ENUMSPD) == DSTS_ENUMSPD_LS_PHY_6MHZ)
 80046b6:	f500 6300 	add.w	r3, r0, #2048	; 0x800
 80046ba:	689a      	ldr	r2, [r3, #8]
 80046bc:	f002 0206 	and.w	r2, r2, #6
 80046c0:	2a04      	cmp	r2, #4
  {
    USBx_INEP(0U)->DIEPCTL |= 3U;
 80046c2:	bf02      	ittt	eq
 80046c4:	f8d0 2900 	ldreq.w	r2, [r0, #2304]	; 0x900
 80046c8:	f042 0203 	orreq.w	r2, r2, #3
 80046cc:	f8c0 2900 	streq.w	r2, [r0, #2304]	; 0x900
  }
  USBx_DEVICE->DCTL |= USB_OTG_DCTL_CGINAK;
 80046d0:	685a      	ldr	r2, [r3, #4]
 80046d2:	f442 7280 	orr.w	r2, r2, #256	; 0x100
 80046d6:	605a      	str	r2, [r3, #4]

  return HAL_OK;
}
 80046d8:	2000      	movs	r0, #0
 80046da:	4770      	bx	lr

080046dc <USB_EP0_OutStart>:
  *           1 : DMA feature used  
  * @param  psetup  pointer to setup packet
  * @retval HAL status
  */
HAL_StatusTypeDef USB_EP0_OutStart(USB_OTG_GlobalTypeDef *USBx, uint8_t dma, uint8_t *psetup)
{
 80046dc:	b510      	push	{r4, lr}
  USBx_OUTEP(0U)->DOEPTSIZ = 0U;
 80046de:	2400      	movs	r4, #0
 80046e0:	f8c0 4b10 	str.w	r4, [r0, #2832]	; 0xb10
  USBx_OUTEP(0U)->DOEPTSIZ |= (USB_OTG_DOEPTSIZ_PKTCNT & (1U << 19U)) ;
 80046e4:	f8d0 4b10 	ldr.w	r4, [r0, #2832]	; 0xb10
 80046e8:	f444 2400 	orr.w	r4, r4, #524288	; 0x80000
 80046ec:	f8c0 4b10 	str.w	r4, [r0, #2832]	; 0xb10
  USBx_OUTEP(0U)->DOEPTSIZ |= (3U * 8U);
 80046f0:	f8d0 4b10 	ldr.w	r4, [r0, #2832]	; 0xb10
 80046f4:	f044 0418 	orr.w	r4, r4, #24
 80046f8:	f8c0 4b10 	str.w	r4, [r0, #2832]	; 0xb10
  USBx_OUTEP(0U)->DOEPTSIZ |=  USB_OTG_DOEPTSIZ_STUPCNT;  
 80046fc:	f8d0 4b10 	ldr.w	r4, [r0, #2832]	; 0xb10
  
  if (dma == 1U)
 8004700:	2901      	cmp	r1, #1
  USBx_OUTEP(0U)->DOEPTSIZ = 0U;
 8004702:	f500 6330 	add.w	r3, r0, #2816	; 0xb00
  USBx_OUTEP(0U)->DOEPTSIZ |=  USB_OTG_DOEPTSIZ_STUPCNT;  
 8004706:	f044 44c0 	orr.w	r4, r4, #1610612736	; 0x60000000
  {
    USBx_OUTEP(0U)->DOEPDMA = (uint32_t)psetup;
    /* EP enable */
    USBx_OUTEP(0U)->DOEPCTL = 0x80008000U;
 800470a:	bf08      	it	eq
 800470c:	f04f 2380 	moveq.w	r3, #2147516416	; 0x80008000
  USBx_OUTEP(0U)->DOEPTSIZ |=  USB_OTG_DOEPTSIZ_STUPCNT;  
 8004710:	f8c0 4b10 	str.w	r4, [r0, #2832]	; 0xb10
    USBx_OUTEP(0U)->DOEPDMA = (uint32_t)psetup;
 8004714:	bf04      	itt	eq
 8004716:	f8c0 2b14 	streq.w	r2, [r0, #2836]	; 0xb14
    USBx_OUTEP(0U)->DOEPCTL = 0x80008000U;
 800471a:	f8c0 3b00 	streq.w	r3, [r0, #2816]	; 0xb00
  }
  
  return HAL_OK;  
}
 800471e:	2000      	movs	r0, #0
 8004720:	bd10      	pop	{r4, pc}
	...

08004724 <USB_CoreReset>:
  * @brief  Reset the USB Core (needed after USB clock settings change)
  * @param  USBx  Selected device
  * @retval HAL status
  */
static HAL_StatusTypeDef USB_CoreReset(USB_OTG_GlobalTypeDef *USBx)
{
 8004724:	4b0a      	ldr	r3, [pc, #40]	; (8004750 <USB_CoreReset+0x2c>)
  uint32_t count = 0U;

  /* Wait for AHB master IDLE state. */
  do
  {
    if (++count > 200000U)
 8004726:	3b01      	subs	r3, #1
 8004728:	d101      	bne.n	800472e <USB_CoreReset+0xa>
    {
      return HAL_TIMEOUT;
 800472a:	2003      	movs	r0, #3
 800472c:	4770      	bx	lr
    }
  }
  while ((USBx->GRSTCTL & USB_OTG_GRSTCTL_AHBIDL) == 0U);
 800472e:	6902      	ldr	r2, [r0, #16]
 8004730:	2a00      	cmp	r2, #0
 8004732:	daf8      	bge.n	8004726 <USB_CoreReset+0x2>
  
  /* Core Soft Reset */
  count = 0U;
  USBx->GRSTCTL |= USB_OTG_GRSTCTL_CSRST;
 8004734:	6903      	ldr	r3, [r0, #16]
 8004736:	4a06      	ldr	r2, [pc, #24]	; (8004750 <USB_CoreReset+0x2c>)
 8004738:	f043 0301 	orr.w	r3, r3, #1
 800473c:	6103      	str	r3, [r0, #16]

  do
  {
    if (++count > 200000U)
 800473e:	3a01      	subs	r2, #1
 8004740:	d0f3      	beq.n	800472a <USB_CoreReset+0x6>
    {
      return HAL_TIMEOUT;
    }
  }
  while ((USBx->GRSTCTL & USB_OTG_GRSTCTL_CSRST) == USB_OTG_GRSTCTL_CSRST);
 8004742:	6903      	ldr	r3, [r0, #16]
 8004744:	f013 0301 	ands.w	r3, r3, #1
 8004748:	d1f9      	bne.n	800473e <USB_CoreReset+0x1a>
  
  return HAL_OK;
 800474a:	4618      	mov	r0, r3
}
 800474c:	4770      	bx	lr
 800474e:	bf00      	nop
 8004750:	00030d41 	.word	0x00030d41

08004754 <USBD_CDC_DataIn>:
  * @param  epnum: endpoint number
  * @retval status
  */
static uint8_t  USBD_CDC_DataIn (USBD_HandleTypeDef *pdev, uint8_t epnum)
{
  USBD_CDC_HandleTypeDef   *hcdc = (USBD_CDC_HandleTypeDef*) pdev->pClassData;
 8004754:	f8d0 3218 	ldr.w	r3, [r0, #536]	; 0x218
  
  if(pdev->pClassData != NULL)
 8004758:	b11b      	cbz	r3, 8004762 <USBD_CDC_DataIn+0xe>
  {
    
    hcdc->TxState = 0;
 800475a:	2000      	movs	r0, #0
 800475c:	f8c3 0214 	str.w	r0, [r3, #532]	; 0x214

    return USBD_OK;
 8004760:	4770      	bx	lr
  }
  else
  {
    return USBD_FAIL;
 8004762:	2002      	movs	r0, #2
  }
}
 8004764:	4770      	bx	lr

08004766 <USBD_CDC_EP0_RxReady>:
  */
static uint8_t  USBD_CDC_EP0_RxReady (USBD_HandleTypeDef *pdev)
{ 
  USBD_CDC_HandleTypeDef   *hcdc = (USBD_CDC_HandleTypeDef*) pdev->pClassData;
  
  if((pdev->pUserData != NULL) && (hcdc->CmdOpCode != 0xFF))
 8004766:	f8d0 321c 	ldr.w	r3, [r0, #540]	; 0x21c
{ 
 800476a:	b510      	push	{r4, lr}
  USBD_CDC_HandleTypeDef   *hcdc = (USBD_CDC_HandleTypeDef*) pdev->pClassData;
 800476c:	f8d0 4218 	ldr.w	r4, [r0, #536]	; 0x218
  if((pdev->pUserData != NULL) && (hcdc->CmdOpCode != 0xFF))
 8004770:	b15b      	cbz	r3, 800478a <USBD_CDC_EP0_RxReady+0x24>
 8004772:	f894 0200 	ldrb.w	r0, [r4, #512]	; 0x200
 8004776:	28ff      	cmp	r0, #255	; 0xff
 8004778:	d007      	beq.n	800478a <USBD_CDC_EP0_RxReady+0x24>
  {
    ((USBD_CDC_ItfTypeDef *)pdev->pUserData)->Control(hcdc->CmdOpCode,
 800477a:	689b      	ldr	r3, [r3, #8]
 800477c:	f894 2201 	ldrb.w	r2, [r4, #513]	; 0x201
 8004780:	4621      	mov	r1, r4
 8004782:	4798      	blx	r3
                                                      (uint8_t *)hcdc->data,
                                                      hcdc->CmdLength);
      hcdc->CmdOpCode = 0xFF; 
 8004784:	23ff      	movs	r3, #255	; 0xff
 8004786:	f884 3200 	strb.w	r3, [r4, #512]	; 0x200
      
  }
  return USBD_OK;
}
 800478a:	2000      	movs	r0, #0
 800478c:	bd10      	pop	{r4, pc}
	...

08004790 <USBD_CDC_GetFSCfgDesc>:
  * @param  length : pointer data length
  * @retval pointer to descriptor buffer
  */
static uint8_t  *USBD_CDC_GetFSCfgDesc (uint16_t *length)
{
  *length = sizeof (USBD_CDC_CfgFSDesc);
 8004790:	2343      	movs	r3, #67	; 0x43
 8004792:	8003      	strh	r3, [r0, #0]
  return USBD_CDC_CfgFSDesc;
}
 8004794:	4800      	ldr	r0, [pc, #0]	; (8004798 <USBD_CDC_GetFSCfgDesc+0x8>)
 8004796:	4770      	bx	lr
 8004798:	20000040 	.word	0x20000040

0800479c <USBD_CDC_GetHSCfgDesc>:
  * @param  length : pointer data length
  * @retval pointer to descriptor buffer
  */
static uint8_t  *USBD_CDC_GetHSCfgDesc (uint16_t *length)
{
  *length = sizeof (USBD_CDC_CfgHSDesc);
 800479c:	2343      	movs	r3, #67	; 0x43
 800479e:	8003      	strh	r3, [r0, #0]
  return USBD_CDC_CfgHSDesc;
}
 80047a0:	4800      	ldr	r0, [pc, #0]	; (80047a4 <USBD_CDC_GetHSCfgDesc+0x8>)
 80047a2:	4770      	bx	lr
 80047a4:	20000084 	.word	0x20000084

080047a8 <USBD_CDC_GetOtherSpeedCfgDesc>:
  * @param  length : pointer data length
  * @retval pointer to descriptor buffer
  */
static uint8_t  *USBD_CDC_GetOtherSpeedCfgDesc (uint16_t *length)
{
  *length = sizeof (USBD_CDC_OtherSpeedCfgDesc);
 80047a8:	2343      	movs	r3, #67	; 0x43
 80047aa:	8003      	strh	r3, [r0, #0]
  return USBD_CDC_OtherSpeedCfgDesc;
}
 80047ac:	4800      	ldr	r0, [pc, #0]	; (80047b0 <USBD_CDC_GetOtherSpeedCfgDesc+0x8>)
 80047ae:	4770      	bx	lr
 80047b0:	200000d4 	.word	0x200000d4

080047b4 <USBD_CDC_GetDeviceQualifierDescriptor>:
* @param  length : pointer data length
* @retval pointer to descriptor buffer
*/
uint8_t  *USBD_CDC_GetDeviceQualifierDescriptor (uint16_t *length)
{
  *length = sizeof (USBD_CDC_DeviceQualifierDesc);
 80047b4:	230a      	movs	r3, #10
 80047b6:	8003      	strh	r3, [r0, #0]
  return USBD_CDC_DeviceQualifierDesc;
}
 80047b8:	4800      	ldr	r0, [pc, #0]	; (80047bc <USBD_CDC_GetDeviceQualifierDescriptor+0x8>)
 80047ba:	4770      	bx	lr
 80047bc:	200000c8 	.word	0x200000c8

080047c0 <USBD_CDC_DataOut>:
{      
 80047c0:	b538      	push	{r3, r4, r5, lr}
 80047c2:	4605      	mov	r5, r0
  USBD_CDC_HandleTypeDef   *hcdc = (USBD_CDC_HandleTypeDef*) pdev->pClassData;
 80047c4:	f8d0 4218 	ldr.w	r4, [r0, #536]	; 0x218
  hcdc->RxLength = USBD_LL_GetRxDataSize (pdev, epnum);
 80047c8:	f000 fa8a 	bl	8004ce0 <USBD_LL_GetRxDataSize>
  if(pdev->pClassData != NULL)
 80047cc:	f8d5 3218 	ldr.w	r3, [r5, #536]	; 0x218
  hcdc->RxLength = USBD_LL_GetRxDataSize (pdev, epnum);
 80047d0:	f8c4 020c 	str.w	r0, [r4, #524]	; 0x20c
  if(pdev->pClassData != NULL)
 80047d4:	b14b      	cbz	r3, 80047ea <USBD_CDC_DataOut+0x2a>
    ((USBD_CDC_ItfTypeDef *)pdev->pUserData)->Receive(hcdc->RxBuffer, &hcdc->RxLength);
 80047d6:	f8d5 321c 	ldr.w	r3, [r5, #540]	; 0x21c
 80047da:	f8d4 0204 	ldr.w	r0, [r4, #516]	; 0x204
 80047de:	68db      	ldr	r3, [r3, #12]
 80047e0:	f504 7103 	add.w	r1, r4, #524	; 0x20c
 80047e4:	4798      	blx	r3
    return USBD_OK;
 80047e6:	2000      	movs	r0, #0
 80047e8:	bd38      	pop	{r3, r4, r5, pc}
    return USBD_FAIL;
 80047ea:	2002      	movs	r0, #2
}
 80047ec:	bd38      	pop	{r3, r4, r5, pc}
	...

080047f0 <USBD_CDC_Setup>:
{
 80047f0:	b5f8      	push	{r3, r4, r5, r6, r7, lr}
  switch (req->bmRequest & USB_REQ_TYPE_MASK)
 80047f2:	780f      	ldrb	r7, [r1, #0]
 80047f4:	f017 0360 	ands.w	r3, r7, #96	; 0x60
{
 80047f8:	4606      	mov	r6, r0
 80047fa:	460c      	mov	r4, r1
  switch (req->bmRequest & USB_REQ_TYPE_MASK)
 80047fc:	d023      	beq.n	8004846 <USBD_CDC_Setup+0x56>
 80047fe:	2b20      	cmp	r3, #32
 8004800:	d119      	bne.n	8004836 <USBD_CDC_Setup+0x46>
    if (req->wLength)
 8004802:	88ca      	ldrh	r2, [r1, #6]
 8004804:	784b      	ldrb	r3, [r1, #1]
 8004806:	b1c2      	cbz	r2, 800483a <USBD_CDC_Setup+0x4a>
      if (req->bmRequest & 0x80)
 8004808:	0639      	lsls	r1, r7, #24
  USBD_CDC_HandleTypeDef   *hcdc = (USBD_CDC_HandleTypeDef*) pdev->pClassData;
 800480a:	f8d0 5218 	ldr.w	r5, [r0, #536]	; 0x218
      if (req->bmRequest & 0x80)
 800480e:	d50b      	bpl.n	8004828 <USBD_CDC_Setup+0x38>
        ((USBD_CDC_ItfTypeDef *)pdev->pUserData)->Control(req->bRequest,
 8004810:	f8d0 121c 	ldr.w	r1, [r0, #540]	; 0x21c
 8004814:	4618      	mov	r0, r3
 8004816:	688f      	ldr	r7, [r1, #8]
 8004818:	4629      	mov	r1, r5
 800481a:	47b8      	blx	r7
          USBD_CtlSendData (pdev, 
 800481c:	88e2      	ldrh	r2, [r4, #6]
 800481e:	4629      	mov	r1, r5
 8004820:	4630      	mov	r0, r6
      USBD_CtlSendData (pdev,
 8004822:	f000 fd95 	bl	8005350 <USBD_CtlSendData>
      break;
 8004826:	e006      	b.n	8004836 <USBD_CDC_Setup+0x46>
        hcdc->CmdOpCode = req->bRequest;
 8004828:	f885 3200 	strb.w	r3, [r5, #512]	; 0x200
        hcdc->CmdLength = req->wLength;
 800482c:	f885 2201 	strb.w	r2, [r5, #513]	; 0x201
        USBD_CtlPrepareRx (pdev, 
 8004830:	4629      	mov	r1, r5
 8004832:	f000 fda2 	bl	800537a <USBD_CtlPrepareRx>
}
 8004836:	2000      	movs	r0, #0
 8004838:	bdf8      	pop	{r3, r4, r5, r6, r7, pc}
      ((USBD_CDC_ItfTypeDef *)pdev->pUserData)->Control(req->bRequest,
 800483a:	f8d0 021c 	ldr.w	r0, [r0, #540]	; 0x21c
 800483e:	6884      	ldr	r4, [r0, #8]
 8004840:	4618      	mov	r0, r3
 8004842:	47a0      	blx	r4
 8004844:	e7f7      	b.n	8004836 <USBD_CDC_Setup+0x46>
    switch (req->bRequest)
 8004846:	784b      	ldrb	r3, [r1, #1]
 8004848:	2b0a      	cmp	r3, #10
 800484a:	d1f4      	bne.n	8004836 <USBD_CDC_Setup+0x46>
      USBD_CtlSendData (pdev,
 800484c:	2201      	movs	r2, #1
 800484e:	4901      	ldr	r1, [pc, #4]	; (8004854 <USBD_CDC_Setup+0x64>)
 8004850:	e7e7      	b.n	8004822 <USBD_CDC_Setup+0x32>
 8004852:	bf00      	nop
 8004854:	20000f10 	.word	0x20000f10

08004858 <USBD_CDC_DeInit>:
{
 8004858:	b510      	push	{r4, lr}
  USBD_LL_CloseEP(pdev,
 800485a:	2181      	movs	r1, #129	; 0x81
{
 800485c:	4604      	mov	r4, r0
  USBD_LL_CloseEP(pdev,
 800485e:	f000 f9d7 	bl	8004c10 <USBD_LL_CloseEP>
  USBD_LL_CloseEP(pdev,
 8004862:	2101      	movs	r1, #1
 8004864:	4620      	mov	r0, r4
 8004866:	f000 f9d3 	bl	8004c10 <USBD_LL_CloseEP>
  USBD_LL_CloseEP(pdev,
 800486a:	2182      	movs	r1, #130	; 0x82
 800486c:	4620      	mov	r0, r4
 800486e:	f000 f9cf 	bl	8004c10 <USBD_LL_CloseEP>
  if(pdev->pClassData != NULL)
 8004872:	f8d4 3218 	ldr.w	r3, [r4, #536]	; 0x218
 8004876:	b153      	cbz	r3, 800488e <USBD_CDC_DeInit+0x36>
    ((USBD_CDC_ItfTypeDef *)pdev->pUserData)->DeInit();
 8004878:	f8d4 321c 	ldr.w	r3, [r4, #540]	; 0x21c
 800487c:	685b      	ldr	r3, [r3, #4]
 800487e:	4798      	blx	r3
    USBD_free(pdev->pClassData);
 8004880:	f8d4 0218 	ldr.w	r0, [r4, #536]	; 0x218
 8004884:	f002 fabc 	bl	8006e00 <free>
    pdev->pClassData = NULL;
 8004888:	2300      	movs	r3, #0
 800488a:	f8c4 3218 	str.w	r3, [r4, #536]	; 0x218
}
 800488e:	2000      	movs	r0, #0
 8004890:	bd10      	pop	{r4, pc}

08004892 <USBD_CDC_Init>:
{
 8004892:	b5f8      	push	{r3, r4, r5, r6, r7, lr}
  if(pdev->dev_speed == USBD_SPEED_HIGH  ) 
 8004894:	7c03      	ldrb	r3, [r0, #16]
{
 8004896:	4604      	mov	r4, r0
  if(pdev->dev_speed == USBD_SPEED_HIGH  ) 
 8004898:	bb7b      	cbnz	r3, 80048fa <USBD_CDC_Init+0x68>
    USBD_LL_OpenEP(pdev,
 800489a:	f44f 7300 	mov.w	r3, #512	; 0x200
 800489e:	2202      	movs	r2, #2
 80048a0:	2181      	movs	r1, #129	; 0x81
 80048a2:	f000 f9a5 	bl	8004bf0 <USBD_LL_OpenEP>
    USBD_LL_OpenEP(pdev,
 80048a6:	f44f 7300 	mov.w	r3, #512	; 0x200
    USBD_LL_OpenEP(pdev,
 80048aa:	2202      	movs	r2, #2
 80048ac:	2101      	movs	r1, #1
 80048ae:	4620      	mov	r0, r4
 80048b0:	f000 f99e 	bl	8004bf0 <USBD_LL_OpenEP>
  USBD_LL_OpenEP(pdev,
 80048b4:	2308      	movs	r3, #8
 80048b6:	2203      	movs	r2, #3
 80048b8:	2182      	movs	r1, #130	; 0x82
 80048ba:	4620      	mov	r0, r4
 80048bc:	f000 f998 	bl	8004bf0 <USBD_LL_OpenEP>
  pdev->pClassData = USBD_malloc(sizeof (USBD_CDC_HandleTypeDef));
 80048c0:	f44f 7007 	mov.w	r0, #540	; 0x21c
 80048c4:	f002 fa94 	bl	8006df0 <malloc>
 80048c8:	4606      	mov	r6, r0
 80048ca:	f8c4 0218 	str.w	r0, [r4, #536]	; 0x218
  if(pdev->pClassData == NULL)
 80048ce:	b320      	cbz	r0, 800491a <USBD_CDC_Init+0x88>
    ((USBD_CDC_ItfTypeDef *)pdev->pUserData)->Init();
 80048d0:	f8d4 321c 	ldr.w	r3, [r4, #540]	; 0x21c
 80048d4:	681b      	ldr	r3, [r3, #0]
 80048d6:	4798      	blx	r3
    if(pdev->dev_speed == USBD_SPEED_HIGH  ) 
 80048d8:	7c27      	ldrb	r7, [r4, #16]
    hcdc->TxState =0;
 80048da:	2500      	movs	r5, #0
 80048dc:	f8c6 5214 	str.w	r5, [r6, #532]	; 0x214
    hcdc->RxState =0;
 80048e0:	f8c6 5218 	str.w	r5, [r6, #536]	; 0x218
    if(pdev->dev_speed == USBD_SPEED_HIGH  ) 
 80048e4:	b987      	cbnz	r7, 8004908 <USBD_CDC_Init+0x76>
      USBD_LL_PrepareReceive(pdev,
 80048e6:	f44f 7300 	mov.w	r3, #512	; 0x200
 80048ea:	f8d6 2204 	ldr.w	r2, [r6, #516]	; 0x204
 80048ee:	2101      	movs	r1, #1
 80048f0:	4620      	mov	r0, r4
 80048f2:	f000 f9e7 	bl	8004cc4 <USBD_LL_PrepareReceive>
  uint8_t ret = 0;
 80048f6:	4638      	mov	r0, r7
 80048f8:	bdf8      	pop	{r3, r4, r5, r6, r7, pc}
    USBD_LL_OpenEP(pdev,
 80048fa:	2340      	movs	r3, #64	; 0x40
 80048fc:	2202      	movs	r2, #2
 80048fe:	2181      	movs	r1, #129	; 0x81
 8004900:	f000 f976 	bl	8004bf0 <USBD_LL_OpenEP>
    USBD_LL_OpenEP(pdev,
 8004904:	2340      	movs	r3, #64	; 0x40
 8004906:	e7d0      	b.n	80048aa <USBD_CDC_Init+0x18>
      USBD_LL_PrepareReceive(pdev,
 8004908:	2340      	movs	r3, #64	; 0x40
 800490a:	f8d6 2204 	ldr.w	r2, [r6, #516]	; 0x204
 800490e:	2101      	movs	r1, #1
 8004910:	4620      	mov	r0, r4
 8004912:	f000 f9d7 	bl	8004cc4 <USBD_LL_PrepareReceive>
  uint8_t ret = 0;
 8004916:	4628      	mov	r0, r5
 8004918:	bdf8      	pop	{r3, r4, r5, r6, r7, pc}
    ret = 1; 
 800491a:	2001      	movs	r0, #1
}
 800491c:	bdf8      	pop	{r3, r4, r5, r6, r7, pc}

0800491e <USBD_CDC_RegisterInterface>:
uint8_t  USBD_CDC_RegisterInterface  (USBD_HandleTypeDef   *pdev, 
                                      USBD_CDC_ItfTypeDef *fops)
{
  uint8_t  ret = USBD_FAIL;
  
  if(fops != NULL)
 800491e:	b119      	cbz	r1, 8004928 <USBD_CDC_RegisterInterface+0xa>
  {
    pdev->pUserData= fops;
 8004920:	f8c0 121c 	str.w	r1, [r0, #540]	; 0x21c
    ret = USBD_OK;    
 8004924:	2000      	movs	r0, #0
 8004926:	4770      	bx	lr
  uint8_t  ret = USBD_FAIL;
 8004928:	2002      	movs	r0, #2
  }
  
  return ret;
}
 800492a:	4770      	bx	lr

0800492c <USBD_CDC_SetTxBuffer>:
  */
uint8_t  USBD_CDC_SetTxBuffer  (USBD_HandleTypeDef   *pdev,
                                uint8_t  *pbuff,
                                uint16_t length)
{
  USBD_CDC_HandleTypeDef   *hcdc = (USBD_CDC_HandleTypeDef*) pdev->pClassData;
 800492c:	f8d0 3218 	ldr.w	r3, [r0, #536]	; 0x218
  
  hcdc->TxBuffer = pbuff;
  hcdc->TxLength = length;  
  
  return USBD_OK;  
}
 8004930:	2000      	movs	r0, #0
  hcdc->TxBuffer = pbuff;
 8004932:	f8c3 1208 	str.w	r1, [r3, #520]	; 0x208
  hcdc->TxLength = length;  
 8004936:	f8c3 2210 	str.w	r2, [r3, #528]	; 0x210
}
 800493a:	4770      	bx	lr

0800493c <USBD_CDC_SetRxBuffer>:
uint8_t  USBD_CDC_SetRxBuffer  (USBD_HandleTypeDef   *pdev,
                                   uint8_t  *pbuff)
{
  USBD_CDC_HandleTypeDef   *hcdc = (USBD_CDC_HandleTypeDef*) pdev->pClassData;
  
  hcdc->RxBuffer = pbuff;
 800493c:	f8d0 3218 	ldr.w	r3, [r0, #536]	; 0x218
  
  return USBD_OK;
}
 8004940:	2000      	movs	r0, #0
  hcdc->RxBuffer = pbuff;
 8004942:	f8c3 1204 	str.w	r1, [r3, #516]	; 0x204
}
 8004946:	4770      	bx	lr

08004948 <USBD_CDC_TransmitPacket>:
  * @param  epnum: endpoint number
  * @retval status
  */
uint8_t  USBD_CDC_TransmitPacket(USBD_HandleTypeDef *pdev)
{      
  USBD_CDC_HandleTypeDef   *hcdc = (USBD_CDC_HandleTypeDef*) pdev->pClassData;
 8004948:	f8d0 2218 	ldr.w	r2, [r0, #536]	; 0x218
{      
 800494c:	b510      	push	{r4, lr}
  
  if(pdev->pClassData != NULL)
 800494e:	b172      	cbz	r2, 800496e <USBD_CDC_TransmitPacket+0x26>
  {
    if(hcdc->TxState == 0)
 8004950:	f8d2 4214 	ldr.w	r4, [r2, #532]	; 0x214
 8004954:	2301      	movs	r3, #1
 8004956:	b964      	cbnz	r4, 8004972 <USBD_CDC_TransmitPacket+0x2a>
    {
      /* Tx Transfer in progress */
      hcdc->TxState = 1;
 8004958:	f8c2 3214 	str.w	r3, [r2, #532]	; 0x214
      
      /* Transmit next packet */
      USBD_LL_Transmit(pdev,
 800495c:	2181      	movs	r1, #129	; 0x81
 800495e:	f8b2 3210 	ldrh.w	r3, [r2, #528]	; 0x210
 8004962:	f8d2 2208 	ldr.w	r2, [r2, #520]	; 0x208
 8004966:	f000 f99f 	bl	8004ca8 <USBD_LL_Transmit>
                       CDC_IN_EP,
                       hcdc->TxBuffer,
                       hcdc->TxLength);
      
      return USBD_OK;
 800496a:	4620      	mov	r0, r4
 800496c:	bd10      	pop	{r4, pc}
      return USBD_BUSY;
    }
  }
  else
  {
    return USBD_FAIL;
 800496e:	2002      	movs	r0, #2
 8004970:	bd10      	pop	{r4, pc}
      return USBD_BUSY;
 8004972:	4618      	mov	r0, r3
  }
}
 8004974:	bd10      	pop	{r4, pc}

08004976 <USBD_CDC_ReceivePacket>:
  * @param  pdev: device instance
  * @retval status
  */
uint8_t  USBD_CDC_ReceivePacket(USBD_HandleTypeDef *pdev)
{      
  USBD_CDC_HandleTypeDef   *hcdc = (USBD_CDC_HandleTypeDef*) pdev->pClassData;
 8004976:	f8d0 2218 	ldr.w	r2, [r0, #536]	; 0x218
{      
 800497a:	b510      	push	{r4, lr}
  
  /* Suspend or Resume USB Out process */
  if(pdev->pClassData != NULL)
 800497c:	b162      	cbz	r2, 8004998 <USBD_CDC_ReceivePacket+0x22>
  {
    if(pdev->dev_speed == USBD_SPEED_HIGH  ) 
 800497e:	7c04      	ldrb	r4, [r0, #16]
 8004980:	b944      	cbnz	r4, 8004994 <USBD_CDC_ReceivePacket+0x1e>
    {      
      /* Prepare Out endpoint to receive next packet */
      USBD_LL_PrepareReceive(pdev,
 8004982:	f44f 7300 	mov.w	r3, #512	; 0x200
                             CDC_DATA_HS_OUT_PACKET_SIZE);
    }
    else
    {
      /* Prepare Out endpoint to receive next packet */
      USBD_LL_PrepareReceive(pdev,
 8004986:	f8d2 2204 	ldr.w	r2, [r2, #516]	; 0x204
 800498a:	2101      	movs	r1, #1
 800498c:	f000 f99a 	bl	8004cc4 <USBD_LL_PrepareReceive>
                             CDC_OUT_EP,
                             hcdc->RxBuffer,
                             CDC_DATA_FS_OUT_PACKET_SIZE);
    }
    return USBD_OK;
 8004990:	2000      	movs	r0, #0
 8004992:	bd10      	pop	{r4, pc}
      USBD_LL_PrepareReceive(pdev,
 8004994:	2340      	movs	r3, #64	; 0x40
 8004996:	e7f6      	b.n	8004986 <USBD_CDC_ReceivePacket+0x10>
  }
  else
  {
    return USBD_FAIL;
 8004998:	2002      	movs	r0, #2
  }
}
 800499a:	bd10      	pop	{r4, pc}

0800499c <MX_USB_DEVICE_Init>:
/**
  * Init USB device Library, add supported class and start the library
  * @retval None
  */
void MX_USB_DEVICE_Init(void)
{
 800499c:	b510      	push	{r4, lr}
  /* USER CODE BEGIN USB_DEVICE_Init_PreTreatment */
  
  /* USER CODE END USB_DEVICE_Init_PreTreatment */
  
  /* Init Device Library, add supported class and start the library. */
  USBD_Init(&hUsbDeviceFS, &FS_Desc, DEVICE_FS);
 800499e:	4c09      	ldr	r4, [pc, #36]	; (80049c4 <MX_USB_DEVICE_Init+0x28>)
 80049a0:	4909      	ldr	r1, [pc, #36]	; (80049c8 <MX_USB_DEVICE_Init+0x2c>)
 80049a2:	2200      	movs	r2, #0
 80049a4:	4620      	mov	r0, r4
 80049a6:	f000 f9a1 	bl	8004cec <USBD_Init>

  USBD_RegisterClass(&hUsbDeviceFS, &USBD_CDC);
 80049aa:	4908      	ldr	r1, [pc, #32]	; (80049cc <MX_USB_DEVICE_Init+0x30>)
 80049ac:	4620      	mov	r0, r4
 80049ae:	f000 f9b2 	bl	8004d16 <USBD_RegisterClass>

  USBD_CDC_RegisterInterface(&hUsbDeviceFS, &USBD_Interface_fops_FS);
 80049b2:	4620      	mov	r0, r4
 80049b4:	4906      	ldr	r1, [pc, #24]	; (80049d0 <MX_USB_DEVICE_Init+0x34>)
 80049b6:	f7ff ffb2 	bl	800491e <USBD_CDC_RegisterInterface>

  USBD_Start(&hUsbDeviceFS);
 80049ba:	4620      	mov	r0, r4

  /* USER CODE BEGIN USB_DEVICE_Init_PostTreatment */
  
  /* USER CODE END USB_DEVICE_Init_PostTreatment */
}
 80049bc:	e8bd 4010 	ldmia.w	sp!, {r4, lr}
  USBD_Start(&hUsbDeviceFS);
 80049c0:	f000 b9b0 	b.w	8004d24 <USBD_Start>
 80049c4:	2001129c 	.word	0x2001129c
 80049c8:	20000128 	.word	0x20000128
 80049cc:	20000008 	.word	0x20000008
 80049d0:	20000118 	.word	0x20000118

080049d4 <CDC_DeInit_FS>:
static int8_t CDC_DeInit_FS(void)
{
  /* USER CODE BEGIN 4 */
  return (USBD_OK);
  /* USER CODE END 4 */
}
 80049d4:	2000      	movs	r0, #0
 80049d6:	4770      	bx	lr

080049d8 <CDC_Control_FS>:
    break;
  }

  return (USBD_OK);
  /* USER CODE END 5 */
}
 80049d8:	2000      	movs	r0, #0
 80049da:	4770      	bx	lr

080049dc <CDC_Receive_FS>:
  * @param  Buf: Buffer of data to be received
  * @param  Len: Number of data received (in bytes)
  * @retval Result of the operation: USBD_OK if all operations are OK else USBD_FAIL
  */
static int8_t CDC_Receive_FS(uint8_t* Buf, uint32_t *Len)
{
 80049dc:	b570      	push	{r4, r5, r6, lr}
  /* USER CODE BEGIN 6 */
  USBD_CDC_SetRxBuffer(&hUsbDeviceFS, &Buf[0]);
 80049de:	4d08      	ldr	r5, [pc, #32]	; (8004a00 <CDC_Receive_FS+0x24>)
{
 80049e0:	4604      	mov	r4, r0
 80049e2:	460e      	mov	r6, r1
  USBD_CDC_SetRxBuffer(&hUsbDeviceFS, &Buf[0]);
 80049e4:	4601      	mov	r1, r0
 80049e6:	4628      	mov	r0, r5
 80049e8:	f7ff ffa8 	bl	800493c <USBD_CDC_SetRxBuffer>
  USBD_CDC_ReceivePacket(&hUsbDeviceFS);
 80049ec:	4628      	mov	r0, r5
 80049ee:	f7ff ffc2 	bl	8004976 <USBD_CDC_ReceivePacket>

  BSP_Usb_ReceiveCallback(Buf,Len);
 80049f2:	4620      	mov	r0, r4
 80049f4:	4631      	mov	r1, r6
 80049f6:	f7fd fab5 	bl	8001f64 <BSP_Usb_ReceiveCallback>

  return (USBD_OK);
  /* USER CODE END 6 */
}
 80049fa:	2000      	movs	r0, #0
 80049fc:	bd70      	pop	{r4, r5, r6, pc}
 80049fe:	bf00      	nop
 8004a00:	2001129c 	.word	0x2001129c

08004a04 <CDC_Init_FS>:
{
 8004a04:	b510      	push	{r4, lr}
  USBD_CDC_SetTxBuffer(&hUsbDeviceFS, UserTxBufferFS, 0);
 8004a06:	4c06      	ldr	r4, [pc, #24]	; (8004a20 <CDC_Init_FS+0x1c>)
 8004a08:	4906      	ldr	r1, [pc, #24]	; (8004a24 <CDC_Init_FS+0x20>)
 8004a0a:	2200      	movs	r2, #0
 8004a0c:	4620      	mov	r0, r4
 8004a0e:	f7ff ff8d 	bl	800492c <USBD_CDC_SetTxBuffer>
  USBD_CDC_SetRxBuffer(&hUsbDeviceFS, UserRxBufferFS);
 8004a12:	4905      	ldr	r1, [pc, #20]	; (8004a28 <CDC_Init_FS+0x24>)
 8004a14:	4620      	mov	r0, r4
 8004a16:	f7ff ff91 	bl	800493c <USBD_CDC_SetRxBuffer>
}
 8004a1a:	2000      	movs	r0, #0
 8004a1c:	bd10      	pop	{r4, pc}
 8004a1e:	bf00      	nop
 8004a20:	2001129c 	.word	0x2001129c
 8004a24:	20011540 	.word	0x20011540
 8004a28:	200114c0 	.word	0x200114c0

08004a2c <CDC_Transmit_FS>:
  * @param  Buf: Buffer of data to be sent
  * @param  Len: Number of data to be sent (in bytes)
  * @retval USBD_OK if all operations are OK else USBD_FAIL or USBD_BUSY
  */
uint8_t CDC_Transmit_FS(uint8_t* Buf, uint16_t Len)
{
 8004a2c:	b510      	push	{r4, lr}
  uint8_t result = USBD_OK;
  /* USER CODE BEGIN 7 */
  USBD_CDC_HandleTypeDef *hcdc = (USBD_CDC_HandleTypeDef*)hUsbDeviceFS.pClassData;
 8004a2e:	4c09      	ldr	r4, [pc, #36]	; (8004a54 <CDC_Transmit_FS+0x28>)
 8004a30:	f8d4 3218 	ldr.w	r3, [r4, #536]	; 0x218
  if (hcdc->TxState != 0){
 8004a34:	f8d3 3214 	ldr.w	r3, [r3, #532]	; 0x214
{
 8004a38:	460a      	mov	r2, r1
  if (hcdc->TxState != 0){
 8004a3a:	b943      	cbnz	r3, 8004a4e <CDC_Transmit_FS+0x22>
    return USBD_BUSY;
  }
  USBD_CDC_SetTxBuffer(&hUsbDeviceFS, Buf, Len);
 8004a3c:	4601      	mov	r1, r0
 8004a3e:	4620      	mov	r0, r4
 8004a40:	f7ff ff74 	bl	800492c <USBD_CDC_SetTxBuffer>
  result = USBD_CDC_TransmitPacket(&hUsbDeviceFS);
 8004a44:	4620      	mov	r0, r4
  /* USER CODE END 7 */
  return result;
}
 8004a46:	e8bd 4010 	ldmia.w	sp!, {r4, lr}
  result = USBD_CDC_TransmitPacket(&hUsbDeviceFS);
 8004a4a:	f7ff bf7d 	b.w	8004948 <USBD_CDC_TransmitPacket>
}
 8004a4e:	2001      	movs	r0, #1
 8004a50:	bd10      	pop	{r4, pc}
 8004a52:	bf00      	nop
 8004a54:	2001129c 	.word	0x2001129c

08004a58 <HAL_PCD_MspInit>:
                       LL Driver Callbacks (PCD -> USB Device Library)
*******************************************************************************/
/* MSP Init */

void HAL_PCD_MspInit(PCD_HandleTypeDef* pcdHandle)
{
 8004a58:	b510      	push	{r4, lr}
  GPIO_InitTypeDef GPIO_InitStruct;
  if(pcdHandle->Instance==USB_OTG_FS)
 8004a5a:	6803      	ldr	r3, [r0, #0]
 8004a5c:	f1b3 4fa0 	cmp.w	r3, #1342177280	; 0x50000000
{
 8004a60:	b086      	sub	sp, #24
  if(pcdHandle->Instance==USB_OTG_FS)
 8004a62:	d125      	bne.n	8004ab0 <HAL_PCD_MspInit+0x58>
  
    /**USB_OTG_FS GPIO Configuration    
    PA11     ------> USB_OTG_FS_DM
    PA12     ------> USB_OTG_FS_DP 
    */
    GPIO_InitStruct.Pin = GPIO_PIN_11|GPIO_PIN_12;
 8004a64:	f44f 53c0 	mov.w	r3, #6144	; 0x1800
 8004a68:	9301      	str	r3, [sp, #4]
    GPIO_InitStruct.Mode = GPIO_MODE_AF_PP;
 8004a6a:	2302      	movs	r3, #2
 8004a6c:	9302      	str	r3, [sp, #8]
    GPIO_InitStruct.Pull = GPIO_NOPULL;
    GPIO_InitStruct.Speed = GPIO_SPEED_FREQ_VERY_HIGH;
 8004a6e:	2303      	movs	r3, #3
    GPIO_InitStruct.Pull = GPIO_NOPULL;
 8004a70:	2400      	movs	r4, #0
    GPIO_InitStruct.Speed = GPIO_SPEED_FREQ_VERY_HIGH;
 8004a72:	9304      	str	r3, [sp, #16]
    GPIO_InitStruct.Alternate = GPIO_AF10_OTG_FS;
    HAL_GPIO_Init(GPIOA, &GPIO_InitStruct);
 8004a74:	a901      	add	r1, sp, #4
    GPIO_InitStruct.Alternate = GPIO_AF10_OTG_FS;
 8004a76:	230a      	movs	r3, #10
    HAL_GPIO_Init(GPIOA, &GPIO_InitStruct);
 8004a78:	480e      	ldr	r0, [pc, #56]	; (8004ab4 <HAL_PCD_MspInit+0x5c>)
    GPIO_InitStruct.Alternate = GPIO_AF10_OTG_FS;
 8004a7a:	9305      	str	r3, [sp, #20]
    GPIO_InitStruct.Pull = GPIO_NOPULL;
 8004a7c:	9403      	str	r4, [sp, #12]
    HAL_GPIO_Init(GPIOA, &GPIO_InitStruct);
 8004a7e:	f7fd ff89 	bl	8002994 <HAL_GPIO_Init>

    /* Peripheral clock enable */
    __HAL_RCC_USB_OTG_FS_CLK_ENABLE();
 8004a82:	4b0d      	ldr	r3, [pc, #52]	; (8004ab8 <HAL_PCD_MspInit+0x60>)
 8004a84:	6b5a      	ldr	r2, [r3, #52]	; 0x34
 8004a86:	f042 0280 	orr.w	r2, r2, #128	; 0x80
 8004a8a:	635a      	str	r2, [r3, #52]	; 0x34
 8004a8c:	9400      	str	r4, [sp, #0]
 8004a8e:	6c5a      	ldr	r2, [r3, #68]	; 0x44
 8004a90:	f442 4280 	orr.w	r2, r2, #16384	; 0x4000
 8004a94:	645a      	str	r2, [r3, #68]	; 0x44
 8004a96:	6c5b      	ldr	r3, [r3, #68]	; 0x44
 8004a98:	f403 4380 	and.w	r3, r3, #16384	; 0x4000
 8004a9c:	9300      	str	r3, [sp, #0]

    /* Peripheral interrupt init */
    HAL_NVIC_SetPriority(OTG_FS_IRQn, 5, 0);
 8004a9e:	2043      	movs	r0, #67	; 0x43
 8004aa0:	4622      	mov	r2, r4
 8004aa2:	2105      	movs	r1, #5
    __HAL_RCC_USB_OTG_FS_CLK_ENABLE();
 8004aa4:	9b00      	ldr	r3, [sp, #0]
    HAL_NVIC_SetPriority(OTG_FS_IRQn, 5, 0);
 8004aa6:	f7fd fd87 	bl	80025b8 <HAL_NVIC_SetPriority>
    HAL_NVIC_EnableIRQ(OTG_FS_IRQn);
 8004aaa:	2043      	movs	r0, #67	; 0x43
 8004aac:	f7fd fdb8 	bl	8002620 <HAL_NVIC_EnableIRQ>
  /* USER CODE BEGIN USB_OTG_FS_MspInit 1 */

  /* USER CODE END USB_OTG_FS_MspInit 1 */
  }
}
 8004ab0:	b006      	add	sp, #24
 8004ab2:	bd10      	pop	{r4, pc}
 8004ab4:	40020000 	.word	0x40020000
 8004ab8:	40023800 	.word	0x40023800

08004abc <HAL_PCD_SetupStageCallback>:
  * @param  hpcd: PCD handle
  * @retval None
  */
void HAL_PCD_SetupStageCallback(PCD_HandleTypeDef *hpcd)
{
  USBD_LL_SetupStage((USBD_HandleTypeDef*)hpcd->pData, (uint8_t *)hpcd->Setup);
 8004abc:	f500 716f 	add.w	r1, r0, #956	; 0x3bc
 8004ac0:	f8d0 03ec 	ldr.w	r0, [r0, #1004]	; 0x3ec
 8004ac4:	f000 b945 	b.w	8004d52 <USBD_LL_SetupStage>

08004ac8 <HAL_PCD_DataOutStageCallback>:
  * @param  epnum: Endpoint number
  * @retval None
  */
void HAL_PCD_DataOutStageCallback(PCD_HandleTypeDef *hpcd, uint8_t epnum)
{
  USBD_LL_DataOutStage((USBD_HandleTypeDef*)hpcd->pData, epnum, hpcd->OUT_ep[epnum].xfer_buff);
 8004ac8:	231c      	movs	r3, #28
 8004aca:	fb03 0301 	mla	r3, r3, r1, r0
 8004ace:	f8d0 03ec 	ldr.w	r0, [r0, #1004]	; 0x3ec
 8004ad2:	f8d3 2204 	ldr.w	r2, [r3, #516]	; 0x204
 8004ad6:	f000 b969 	b.w	8004dac <USBD_LL_DataOutStage>

08004ada <HAL_PCD_DataInStageCallback>:
  * @param  epnum: Endpoint number
  * @retval None
  */
void HAL_PCD_DataInStageCallback(PCD_HandleTypeDef *hpcd, uint8_t epnum)
{
  USBD_LL_DataInStage((USBD_HandleTypeDef*)hpcd->pData, epnum, hpcd->IN_ep[epnum].xfer_buff);
 8004ada:	231c      	movs	r3, #28
 8004adc:	fb03 0301 	mla	r3, r3, r1, r0
 8004ae0:	f8d0 03ec 	ldr.w	r0, [r0, #1004]	; 0x3ec
 8004ae4:	6c5a      	ldr	r2, [r3, #68]	; 0x44
 8004ae6:	f000 b993 	b.w	8004e10 <USBD_LL_DataInStage>

08004aea <HAL_PCD_SOFCallback>:
  * @param  hpcd: PCD handle
  * @retval None
  */
void HAL_PCD_SOFCallback(PCD_HandleTypeDef *hpcd)
{
  USBD_LL_SOF((USBD_HandleTypeDef*)hpcd->pData);
 8004aea:	f8d0 03ec 	ldr.w	r0, [r0, #1004]	; 0x3ec
 8004aee:	f000 ba0f 	b.w	8004f10 <USBD_LL_SOF>

08004af2 <HAL_PCD_ResetCallback>:
  * @brief  Reset callback.
  * @param  hpcd: PCD handle
  * @retval None
  */
void HAL_PCD_ResetCallback(PCD_HandleTypeDef *hpcd)
{ 
 8004af2:	b510      	push	{r4, lr}
  USBD_SpeedTypeDef speed = USBD_SPEED_FULL;

  /* Set USB current speed. */
  switch (hpcd->Init.speed)
 8004af4:	68c1      	ldr	r1, [r0, #12]
{ 
 8004af6:	4604      	mov	r4, r0
	
  default:
    speed = USBD_SPEED_FULL;
    break;    
  }
  USBD_LL_SetSpeed((USBD_HandleTypeDef*)hpcd->pData, speed);
 8004af8:	3100      	adds	r1, #0
 8004afa:	bf18      	it	ne
 8004afc:	2101      	movne	r1, #1
 8004afe:	f8d0 03ec 	ldr.w	r0, [r0, #1004]	; 0x3ec
 8004b02:	f000 f9f3 	bl	8004eec <USBD_LL_SetSpeed>
  
  /* Reset Device. */
  USBD_LL_Reset((USBD_HandleTypeDef*)hpcd->pData);
 8004b06:	f8d4 03ec 	ldr.w	r0, [r4, #1004]	; 0x3ec
}
 8004b0a:	e8bd 4010 	ldmia.w	sp!, {r4, lr}
  USBD_LL_Reset((USBD_HandleTypeDef*)hpcd->pData);
 8004b0e:	f000 b9ce 	b.w	8004eae <USBD_LL_Reset>
	...

08004b14 <HAL_PCD_SuspendCallback>:
  * When Low power mode is enabled the debug cannot be used (IAR, Keil doesn't support it)
  * @param  hpcd: PCD handle
  * @retval None
  */
void HAL_PCD_SuspendCallback(PCD_HandleTypeDef *hpcd)
{
 8004b14:	b510      	push	{r4, lr}
 8004b16:	4604      	mov	r4, r0
  /* Inform USB library that core enters in suspend Mode. */
  USBD_LL_Suspend((USBD_HandleTypeDef*)hpcd->pData);
 8004b18:	f8d0 03ec 	ldr.w	r0, [r0, #1004]	; 0x3ec
 8004b1c:	f000 f9e9 	bl	8004ef2 <USBD_LL_Suspend>
  __HAL_PCD_GATE_PHYCLOCK(hpcd);
 8004b20:	6822      	ldr	r2, [r4, #0]
 8004b22:	f8d2 3e00 	ldr.w	r3, [r2, #3584]	; 0xe00
 8004b26:	f043 0301 	orr.w	r3, r3, #1
 8004b2a:	f8c2 3e00 	str.w	r3, [r2, #3584]	; 0xe00
  /* Enter in STOP mode. */
  /* USER CODE BEGIN 2 */
  if (hpcd->Init.low_power_enable)
 8004b2e:	6a23      	ldr	r3, [r4, #32]
 8004b30:	b123      	cbz	r3, 8004b3c <HAL_PCD_SuspendCallback+0x28>
  {
    /* Set SLEEPDEEP bit and SleepOnExit of Cortex System Control Register. */
    SCB->SCR |= (uint32_t)((uint32_t)(SCB_SCR_SLEEPDEEP_Msk | SCB_SCR_SLEEPONEXIT_Msk));
 8004b32:	4a03      	ldr	r2, [pc, #12]	; (8004b40 <HAL_PCD_SuspendCallback+0x2c>)
 8004b34:	6913      	ldr	r3, [r2, #16]
 8004b36:	f043 0306 	orr.w	r3, r3, #6
 8004b3a:	6113      	str	r3, [r2, #16]
 8004b3c:	bd10      	pop	{r4, pc}
 8004b3e:	bf00      	nop
 8004b40:	e000ed00 	.word	0xe000ed00

08004b44 <HAL_PCD_ResumeCallback>:
void HAL_PCD_ResumeCallback(PCD_HandleTypeDef *hpcd)
{
  /* USER CODE BEGIN 3 */

  /* USER CODE END 3 */
  USBD_LL_Resume((USBD_HandleTypeDef*)hpcd->pData);
 8004b44:	f8d0 03ec 	ldr.w	r0, [r0, #1004]	; 0x3ec
 8004b48:	f000 b9dc 	b.w	8004f04 <USBD_LL_Resume>

08004b4c <HAL_PCD_ISOOUTIncompleteCallback>:
  * @param  epnum: Endpoint number
  * @retval None
  */
void HAL_PCD_ISOOUTIncompleteCallback(PCD_HandleTypeDef *hpcd, uint8_t epnum)
{
  USBD_LL_IsoOUTIncomplete((USBD_HandleTypeDef*)hpcd->pData, epnum);
 8004b4c:	f8d0 03ec 	ldr.w	r0, [r0, #1004]	; 0x3ec
 8004b50:	f000 b9ec 	b.w	8004f2c <USBD_LL_IsoOUTIncomplete>

08004b54 <HAL_PCD_ISOINIncompleteCallback>:
  * @param  epnum: Endpoint number
  * @retval None
  */
void HAL_PCD_ISOINIncompleteCallback(PCD_HandleTypeDef *hpcd, uint8_t epnum)
{
  USBD_LL_IsoINIncomplete((USBD_HandleTypeDef*)hpcd->pData, epnum);
 8004b54:	f8d0 03ec 	ldr.w	r0, [r0, #1004]	; 0x3ec
 8004b58:	f000 b9e6 	b.w	8004f28 <USBD_LL_IsoINIncomplete>

08004b5c <HAL_PCD_ConnectCallback>:
  * @param  hpcd: PCD handle
  * @retval None
  */
void HAL_PCD_ConnectCallback(PCD_HandleTypeDef *hpcd)
{
  USBD_LL_DevConnected((USBD_HandleTypeDef*)hpcd->pData);
 8004b5c:	f8d0 03ec 	ldr.w	r0, [r0, #1004]	; 0x3ec
 8004b60:	f000 b9e6 	b.w	8004f30 <USBD_LL_DevConnected>

08004b64 <HAL_PCD_DisconnectCallback>:
  * @param  hpcd: PCD handle
  * @retval None
  */
void HAL_PCD_DisconnectCallback(PCD_HandleTypeDef *hpcd)
{
  USBD_LL_DevDisconnected((USBD_HandleTypeDef*)hpcd->pData);
 8004b64:	f8d0 03ec 	ldr.w	r0, [r0, #1004]	; 0x3ec
 8004b68:	f000 b9e4 	b.w	8004f34 <USBD_LL_DevDisconnected>

08004b6c <USBD_LL_Init>:
  * @brief  Initializes the low level portion of the device driver.
  * @param  pdev: Device handle
  * @retval USBD status
  */
USBD_StatusTypeDef USBD_LL_Init(USBD_HandleTypeDef *pdev)
{
 8004b6c:	b508      	push	{r3, lr}
  /* Init USB Ip. */
  if (pdev->id == DEVICE_FS) {
 8004b6e:	7802      	ldrb	r2, [r0, #0]
 8004b70:	bb52      	cbnz	r2, 8004bc8 <USBD_LL_Init+0x5c>
  /* Link the driver to the stack. */
  hpcd_USB_OTG_FS.pData = pdev;
 8004b72:	4b16      	ldr	r3, [pc, #88]	; (8004bcc <USBD_LL_Init+0x60>)
  pdev->pData = &hpcd_USB_OTG_FS;
  
  hpcd_USB_OTG_FS.Instance = USB_OTG_FS;
  hpcd_USB_OTG_FS.Init.dev_endpoints = 4;
 8004b74:	2104      	movs	r1, #4
  hpcd_USB_OTG_FS.pData = pdev;
 8004b76:	f8c3 03ec 	str.w	r0, [r3, #1004]	; 0x3ec
  pdev->pData = &hpcd_USB_OTG_FS;
 8004b7a:	f8c0 3220 	str.w	r3, [r0, #544]	; 0x220
  hpcd_USB_OTG_FS.Init.dev_endpoints = 4;
 8004b7e:	f04f 40a0 	mov.w	r0, #1342177280	; 0x50000000
 8004b82:	e883 0003 	stmia.w	r3, {r0, r1}
  hpcd_USB_OTG_FS.Init.speed = PCD_SPEED_FULL;
 8004b86:	2102      	movs	r1, #2
  hpcd_USB_OTG_FS.Init.Sof_enable = DISABLE;
  hpcd_USB_OTG_FS.Init.low_power_enable = DISABLE;
  hpcd_USB_OTG_FS.Init.lpm_enable = DISABLE;
  hpcd_USB_OTG_FS.Init.vbus_sensing_enable = DISABLE;
  hpcd_USB_OTG_FS.Init.use_dedicated_ep1 = DISABLE;
  if (HAL_PCD_Init(&hpcd_USB_OTG_FS) != HAL_OK)
 8004b88:	4618      	mov	r0, r3
  hpcd_USB_OTG_FS.Init.speed = PCD_SPEED_FULL;
 8004b8a:	60d9      	str	r1, [r3, #12]
  hpcd_USB_OTG_FS.Init.dma_enable = DISABLE;
 8004b8c:	611a      	str	r2, [r3, #16]
  hpcd_USB_OTG_FS.Init.ep0_mps = DEP0CTL_MPS_64;
 8004b8e:	615a      	str	r2, [r3, #20]
  hpcd_USB_OTG_FS.Init.phy_itface = PCD_PHY_EMBEDDED;
 8004b90:	6199      	str	r1, [r3, #24]
  hpcd_USB_OTG_FS.Init.Sof_enable = DISABLE;
 8004b92:	61da      	str	r2, [r3, #28]
  hpcd_USB_OTG_FS.Init.low_power_enable = DISABLE;
 8004b94:	621a      	str	r2, [r3, #32]
  hpcd_USB_OTG_FS.Init.lpm_enable = DISABLE;
 8004b96:	625a      	str	r2, [r3, #36]	; 0x24
  hpcd_USB_OTG_FS.Init.vbus_sensing_enable = DISABLE;
 8004b98:	62da      	str	r2, [r3, #44]	; 0x2c
  hpcd_USB_OTG_FS.Init.use_dedicated_ep1 = DISABLE;
 8004b9a:	631a      	str	r2, [r3, #48]	; 0x30
  if (HAL_PCD_Init(&hpcd_USB_OTG_FS) != HAL_OK)
 8004b9c:	f7fd ffeb 	bl	8002b76 <HAL_PCD_Init>
 8004ba0:	b120      	cbz	r0, 8004bac <USBD_LL_Init+0x40>
  {
    _Error_Handler(__FILE__, __LINE__);
 8004ba2:	f44f 71a5 	mov.w	r1, #330	; 0x14a
 8004ba6:	480a      	ldr	r0, [pc, #40]	; (8004bd0 <USBD_LL_Init+0x64>)
 8004ba8:	f7fc fa9c 	bl	80010e4 <_Error_Handler>
  }

  HAL_PCDEx_SetRxFiFo(&hpcd_USB_OTG_FS, 0x80);
 8004bac:	2180      	movs	r1, #128	; 0x80
 8004bae:	4807      	ldr	r0, [pc, #28]	; (8004bcc <USBD_LL_Init+0x60>)
 8004bb0:	f7fe fc2f 	bl	8003412 <HAL_PCDEx_SetRxFiFo>
  HAL_PCDEx_SetTxFiFo(&hpcd_USB_OTG_FS, 0, 0x40);
 8004bb4:	2240      	movs	r2, #64	; 0x40
 8004bb6:	2100      	movs	r1, #0
 8004bb8:	4804      	ldr	r0, [pc, #16]	; (8004bcc <USBD_LL_Init+0x60>)
 8004bba:	f7fe fc09 	bl	80033d0 <HAL_PCDEx_SetTxFiFo>
  HAL_PCDEx_SetTxFiFo(&hpcd_USB_OTG_FS, 1, 0x80);
 8004bbe:	2280      	movs	r2, #128	; 0x80
 8004bc0:	2101      	movs	r1, #1
 8004bc2:	4802      	ldr	r0, [pc, #8]	; (8004bcc <USBD_LL_Init+0x60>)
 8004bc4:	f7fe fc04 	bl	80033d0 <HAL_PCDEx_SetTxFiFo>
  }
  return USBD_OK;
}
 8004bc8:	2000      	movs	r0, #0
 8004bca:	bd08      	pop	{r3, pc}
 8004bcc:	20011940 	.word	0x20011940
 8004bd0:	080076e0 	.word	0x080076e0

08004bd4 <USBD_LL_Start>:
  * @brief  Starts the low level portion of the device driver. 
  * @param  pdev: Device handle
  * @retval USBD status
  */
USBD_StatusTypeDef USBD_LL_Start(USBD_HandleTypeDef *pdev)
{
 8004bd4:	b508      	push	{r3, lr}
  HAL_StatusTypeDef hal_status = HAL_OK;
  USBD_StatusTypeDef usb_status = USBD_OK;
 
  hal_status = HAL_PCD_Start(pdev->pData);
 8004bd6:	f8d0 0220 	ldr.w	r0, [r0, #544]	; 0x220
 8004bda:	f7fe f838 	bl	8002c4e <HAL_PCD_Start>
 8004bde:	2803      	cmp	r0, #3
 8004be0:	bf9a      	itte	ls
 8004be2:	4b02      	ldrls	r3, [pc, #8]	; (8004bec <USBD_LL_Start+0x18>)
 8004be4:	5c18      	ldrbls	r0, [r3, r0]
 8004be6:	2002      	movhi	r0, #2
    default :
      usb_status = USBD_FAIL;
    break;
  }
  return usb_status;
}
 8004be8:	bd08      	pop	{r3, pc}
 8004bea:	bf00      	nop
 8004bec:	080076dc 	.word	0x080076dc

08004bf0 <USBD_LL_OpenEP>:
  * @param  ep_type: Endpoint type
  * @param  ep_mps: Endpoint max packet size
  * @retval USBD status
  */
USBD_StatusTypeDef USBD_LL_OpenEP(USBD_HandleTypeDef *pdev, uint8_t ep_addr, uint8_t ep_type, uint16_t ep_mps)
{
 8004bf0:	b510      	push	{r4, lr}
 8004bf2:	461c      	mov	r4, r3
  HAL_StatusTypeDef hal_status = HAL_OK;
  USBD_StatusTypeDef usb_status = USBD_OK;

  hal_status = HAL_PCD_EP_Open(pdev->pData, ep_addr, ep_mps, ep_type);
 8004bf4:	f8d0 0220 	ldr.w	r0, [r0, #544]	; 0x220
 8004bf8:	4613      	mov	r3, r2
 8004bfa:	4622      	mov	r2, r4
 8004bfc:	f7fe fafa 	bl	80031f4 <HAL_PCD_EP_Open>
 8004c00:	2803      	cmp	r0, #3
 8004c02:	bf9a      	itte	ls
 8004c04:	4b01      	ldrls	r3, [pc, #4]	; (8004c0c <USBD_LL_OpenEP+0x1c>)
 8004c06:	5c18      	ldrbls	r0, [r3, r0]
 8004c08:	2002      	movhi	r0, #2
    default :
      usb_status = USBD_FAIL;
    break;
  }
  return usb_status;
}
 8004c0a:	bd10      	pop	{r4, pc}
 8004c0c:	080076dc 	.word	0x080076dc

08004c10 <USBD_LL_CloseEP>:
  * @param  pdev: Device handle
  * @param  ep_addr: Endpoint number
  * @retval USBD status
  */
USBD_StatusTypeDef USBD_LL_CloseEP(USBD_HandleTypeDef *pdev, uint8_t ep_addr)
{
 8004c10:	b508      	push	{r3, lr}
  HAL_StatusTypeDef hal_status = HAL_OK;
  USBD_StatusTypeDef usb_status = USBD_OK;
  
  hal_status = HAL_PCD_EP_Close(pdev->pData, ep_addr);
 8004c12:	f8d0 0220 	ldr.w	r0, [r0, #544]	; 0x220
 8004c16:	f7fe fb1b 	bl	8003250 <HAL_PCD_EP_Close>
 8004c1a:	2803      	cmp	r0, #3
 8004c1c:	bf9a      	itte	ls
 8004c1e:	4b02      	ldrls	r3, [pc, #8]	; (8004c28 <USBD_LL_CloseEP+0x18>)
 8004c20:	5c18      	ldrbls	r0, [r3, r0]
 8004c22:	2002      	movhi	r0, #2
    default :
      usb_status = USBD_FAIL;
    break;
  }
  return usb_status;  
}
 8004c24:	bd08      	pop	{r3, pc}
 8004c26:	bf00      	nop
 8004c28:	080076dc 	.word	0x080076dc

08004c2c <USBD_LL_StallEP>:
  * @param  pdev: Device handle
  * @param  ep_addr: Endpoint number
  * @retval USBD status
  */
USBD_StatusTypeDef USBD_LL_StallEP(USBD_HandleTypeDef *pdev, uint8_t ep_addr)
{
 8004c2c:	b508      	push	{r3, lr}
  HAL_StatusTypeDef hal_status = HAL_OK;
  USBD_StatusTypeDef usb_status = USBD_OK;
  
  hal_status = HAL_PCD_EP_SetStall(pdev->pData, ep_addr);
 8004c2e:	f8d0 0220 	ldr.w	r0, [r0, #544]	; 0x220
 8004c32:	f7fe fb7c 	bl	800332e <HAL_PCD_EP_SetStall>
 8004c36:	2803      	cmp	r0, #3
 8004c38:	bf9a      	itte	ls
 8004c3a:	4b02      	ldrls	r3, [pc, #8]	; (8004c44 <USBD_LL_StallEP+0x18>)
 8004c3c:	5c18      	ldrbls	r0, [r3, r0]
 8004c3e:	2002      	movhi	r0, #2
    default :
      usb_status = USBD_FAIL;
    break;
  }
  return usb_status;  
}
 8004c40:	bd08      	pop	{r3, pc}
 8004c42:	bf00      	nop
 8004c44:	080076dc 	.word	0x080076dc

08004c48 <USBD_LL_ClearStallEP>:
  * @param  pdev: Device handle
  * @param  ep_addr: Endpoint number
  * @retval USBD status
  */
USBD_StatusTypeDef USBD_LL_ClearStallEP(USBD_HandleTypeDef *pdev, uint8_t ep_addr)
{
 8004c48:	b508      	push	{r3, lr}
  HAL_StatusTypeDef hal_status = HAL_OK;
  USBD_StatusTypeDef usb_status = USBD_OK;
  
  hal_status = HAL_PCD_EP_ClrStall(pdev->pData, ep_addr);  
 8004c4a:	f8d0 0220 	ldr.w	r0, [r0, #544]	; 0x220
 8004c4e:	f7fe fb9a 	bl	8003386 <HAL_PCD_EP_ClrStall>
 8004c52:	2803      	cmp	r0, #3
 8004c54:	bf9a      	itte	ls
 8004c56:	4b02      	ldrls	r3, [pc, #8]	; (8004c60 <USBD_LL_ClearStallEP+0x18>)
 8004c58:	5c18      	ldrbls	r0, [r3, r0]
 8004c5a:	2002      	movhi	r0, #2
    default :
      usb_status = USBD_FAIL;
    break;
  }
  return usb_status; 
}
 8004c5c:	bd08      	pop	{r3, pc}
 8004c5e:	bf00      	nop
 8004c60:	080076dc 	.word	0x080076dc

08004c64 <USBD_LL_IsStallEP>:
  */
uint8_t USBD_LL_IsStallEP(USBD_HandleTypeDef *pdev, uint8_t ep_addr)
{
  PCD_HandleTypeDef *hpcd = (PCD_HandleTypeDef*) pdev->pData;
  
  if((ep_addr & 0x80) == 0x80)
 8004c64:	f011 0f80 	tst.w	r1, #128	; 0x80
  PCD_HandleTypeDef *hpcd = (PCD_HandleTypeDef*) pdev->pData;
 8004c68:	f8d0 3220 	ldr.w	r3, [r0, #544]	; 0x220
 8004c6c:	f04f 021c 	mov.w	r2, #28
  {
    return hpcd->IN_ep[ep_addr & 0x7F].is_stall; 
 8004c70:	bf1b      	ittet	ne
 8004c72:	f001 017f 	andne.w	r1, r1, #127	; 0x7f
 8004c76:	fb02 3101 	mlane	r1, r2, r1, r3
  }
  else
  {
    return hpcd->OUT_ep[ep_addr & 0x7F].is_stall; 
 8004c7a:	fb02 3101 	mlaeq	r1, r2, r1, r3
    return hpcd->IN_ep[ep_addr & 0x7F].is_stall; 
 8004c7e:	f891 003a 	ldrbne.w	r0, [r1, #58]	; 0x3a
    return hpcd->OUT_ep[ep_addr & 0x7F].is_stall; 
 8004c82:	bf08      	it	eq
 8004c84:	f891 01fa 	ldrbeq.w	r0, [r1, #506]	; 0x1fa
  }
}
 8004c88:	4770      	bx	lr
	...

08004c8c <USBD_LL_SetUSBAddress>:
  * @param  pdev: Device handle
  * @param  dev_addr: Device address
  * @retval USBD status
  */
USBD_StatusTypeDef USBD_LL_SetUSBAddress(USBD_HandleTypeDef *pdev, uint8_t dev_addr)
{
 8004c8c:	b508      	push	{r3, lr}
  HAL_StatusTypeDef hal_status = HAL_OK;
  USBD_StatusTypeDef usb_status = USBD_OK;
  
  hal_status = HAL_PCD_SetAddress(pdev->pData, dev_addr);
 8004c8e:	f8d0 0220 	ldr.w	r0, [r0, #544]	; 0x220
 8004c92:	f7fe fa9d 	bl	80031d0 <HAL_PCD_SetAddress>
 8004c96:	2803      	cmp	r0, #3
 8004c98:	bf9a      	itte	ls
 8004c9a:	4b02      	ldrls	r3, [pc, #8]	; (8004ca4 <USBD_LL_SetUSBAddress+0x18>)
 8004c9c:	5c18      	ldrbls	r0, [r3, r0]
 8004c9e:	2002      	movhi	r0, #2
    default :
      usb_status = USBD_FAIL;
    break;
  }
  return usb_status;  
}
 8004ca0:	bd08      	pop	{r3, pc}
 8004ca2:	bf00      	nop
 8004ca4:	080076dc 	.word	0x080076dc

08004ca8 <USBD_LL_Transmit>:
  * @param  pbuf: Pointer to data to be sent
  * @param  size: Data size    
  * @retval USBD status
  */
USBD_StatusTypeDef USBD_LL_Transmit(USBD_HandleTypeDef *pdev, uint8_t ep_addr, uint8_t *pbuf, uint16_t size)
{
 8004ca8:	b508      	push	{r3, lr}
  HAL_StatusTypeDef hal_status = HAL_OK;
  USBD_StatusTypeDef usb_status = USBD_OK;

  hal_status = HAL_PCD_EP_Transmit(pdev->pData, ep_addr, pbuf, size);
 8004caa:	f8d0 0220 	ldr.w	r0, [r0, #544]	; 0x220
 8004cae:	f7fe fb1e 	bl	80032ee <HAL_PCD_EP_Transmit>
 8004cb2:	2803      	cmp	r0, #3
 8004cb4:	bf9a      	itte	ls
 8004cb6:	4b02      	ldrls	r3, [pc, #8]	; (8004cc0 <USBD_LL_Transmit+0x18>)
 8004cb8:	5c18      	ldrbls	r0, [r3, r0]
 8004cba:	2002      	movhi	r0, #2
    default :
      usb_status = USBD_FAIL;
    break;
  }
  return usb_status;    
}
 8004cbc:	bd08      	pop	{r3, pc}
 8004cbe:	bf00      	nop
 8004cc0:	080076dc 	.word	0x080076dc

08004cc4 <USBD_LL_PrepareReceive>:
  * @param  pbuf: Pointer to data to be received
  * @param  size: Data size
  * @retval USBD status
  */
USBD_StatusTypeDef USBD_LL_PrepareReceive(USBD_HandleTypeDef *pdev, uint8_t ep_addr, uint8_t *pbuf, uint16_t size)
{
 8004cc4:	b508      	push	{r3, lr}
  HAL_StatusTypeDef hal_status = HAL_OK;
  USBD_StatusTypeDef usb_status = USBD_OK;

  hal_status = HAL_PCD_EP_Receive(pdev->pData, ep_addr, pbuf, size);
 8004cc6:	f8d0 0220 	ldr.w	r0, [r0, #544]	; 0x220
 8004cca:	f7fe fae4 	bl	8003296 <HAL_PCD_EP_Receive>
 8004cce:	2803      	cmp	r0, #3
 8004cd0:	bf9a      	itte	ls
 8004cd2:	4b02      	ldrls	r3, [pc, #8]	; (8004cdc <USBD_LL_PrepareReceive+0x18>)
 8004cd4:	5c18      	ldrbls	r0, [r3, r0]
 8004cd6:	2002      	movhi	r0, #2
    default :
      usb_status = USBD_FAIL;
    break;
  }
  return usb_status; 
}
 8004cd8:	bd08      	pop	{r3, pc}
 8004cda:	bf00      	nop
 8004cdc:	080076dc 	.word	0x080076dc

08004ce0 <USBD_LL_GetRxDataSize>:
  * @param  pdev: Device handle
  * @param  ep_addr: Endpoint number
  * @retval Recived Data Size
  */
uint32_t USBD_LL_GetRxDataSize(USBD_HandleTypeDef *pdev, uint8_t ep_addr)
{
 8004ce0:	b508      	push	{r3, lr}
  return HAL_PCD_EP_GetRxCount((PCD_HandleTypeDef*) pdev->pData, ep_addr);
 8004ce2:	f8d0 0220 	ldr.w	r0, [r0, #544]	; 0x220
 8004ce6:	f7fe fafa 	bl	80032de <HAL_PCD_EP_GetRxCount>
}
 8004cea:	bd08      	pop	{r3, pc}

08004cec <USBD_Init>:
* @param  pdesc: Descriptor structure address
* @param  id: Low level core index
* @retval None
*/
USBD_StatusTypeDef USBD_Init(USBD_HandleTypeDef *pdev, USBD_DescriptorsTypeDef *pdesc, uint8_t id)
{
 8004cec:	b508      	push	{r3, lr}
  /* Check whether the USB Host handle is valid */
  if(pdev == NULL)
 8004cee:	b180      	cbz	r0, 8004d12 <USBD_Init+0x26>
    USBD_ErrLog("Invalid Device handle");
    return USBD_FAIL; 
  }
  
  /* Unlink previous class*/
  if(pdev->pClass != NULL)
 8004cf0:	f8d0 3214 	ldr.w	r3, [r0, #532]	; 0x214
 8004cf4:	b113      	cbz	r3, 8004cfc <USBD_Init+0x10>
  {
    pdev->pClass = NULL;
 8004cf6:	2300      	movs	r3, #0
 8004cf8:	f8c0 3214 	str.w	r3, [r0, #532]	; 0x214
  }
  
  /* Assign USBD Descriptors */
  if(pdesc != NULL)
 8004cfc:	b109      	cbz	r1, 8004d02 <USBD_Init+0x16>
  {
    pdev->pDesc = pdesc;
 8004cfe:	f8c0 1210 	str.w	r1, [r0, #528]	; 0x210
  }
  
  /* Set Device initial State */
  pdev->dev_state  = USBD_STATE_DEFAULT;
 8004d02:	2301      	movs	r3, #1
 8004d04:	f880 31fc 	strb.w	r3, [r0, #508]	; 0x1fc
  pdev->id = id;
 8004d08:	7002      	strb	r2, [r0, #0]
  /* Initialize low level driver */
  USBD_LL_Init(pdev);
 8004d0a:	f7ff ff2f 	bl	8004b6c <USBD_LL_Init>
  
  return USBD_OK; 
 8004d0e:	2000      	movs	r0, #0
 8004d10:	bd08      	pop	{r3, pc}
    return USBD_FAIL; 
 8004d12:	2002      	movs	r0, #2
}
 8004d14:	bd08      	pop	{r3, pc}

08004d16 <USBD_RegisterClass>:
  * @retval USBD Status
  */
USBD_StatusTypeDef  USBD_RegisterClass(USBD_HandleTypeDef *pdev, USBD_ClassTypeDef *pclass)
{
  USBD_StatusTypeDef   status = USBD_OK;
  if(pclass != 0)
 8004d16:	b119      	cbz	r1, 8004d20 <USBD_RegisterClass+0xa>
  {
    /* link the class to the USB Device handle */
    pdev->pClass = pclass;
 8004d18:	f8c0 1214 	str.w	r1, [r0, #532]	; 0x214
    status = USBD_OK;
 8004d1c:	2000      	movs	r0, #0
 8004d1e:	4770      	bx	lr
  }
  else
  {
    USBD_ErrLog("Invalid Class handle");
    status = USBD_FAIL; 
 8004d20:	2002      	movs	r0, #2
  }
  
  return status;
}
 8004d22:	4770      	bx	lr

08004d24 <USBD_Start>:
  *         Start the USB Device Core.
  * @param  pdev: Device Handle
  * @retval USBD Status
  */
USBD_StatusTypeDef  USBD_Start  (USBD_HandleTypeDef *pdev)
{
 8004d24:	b508      	push	{r3, lr}
  
  /* Start the low level driver  */
  USBD_LL_Start(pdev); 
 8004d26:	f7ff ff55 	bl	8004bd4 <USBD_LL_Start>
  
  return USBD_OK;  
}
 8004d2a:	2000      	movs	r0, #0
 8004d2c:	bd08      	pop	{r3, pc}

08004d2e <USBD_SetClassConfig>:
* @param  cfgidx: configuration index
* @retval status
*/

USBD_StatusTypeDef USBD_SetClassConfig(USBD_HandleTypeDef  *pdev, uint8_t cfgidx)
{
 8004d2e:	b508      	push	{r3, lr}
  USBD_StatusTypeDef   ret = USBD_FAIL;
  
  if(pdev->pClass != NULL)
 8004d30:	f8d0 3214 	ldr.w	r3, [r0, #532]	; 0x214
 8004d34:	b90b      	cbnz	r3, 8004d3a <USBD_SetClassConfig+0xc>
  USBD_StatusTypeDef   ret = USBD_FAIL;
 8004d36:	2002      	movs	r0, #2
 8004d38:	bd08      	pop	{r3, pc}
  {
    /* Set configuration  and Start the Class*/
    if(pdev->pClass->Init(pdev, cfgidx) == 0)
 8004d3a:	681b      	ldr	r3, [r3, #0]
 8004d3c:	4798      	blx	r3
 8004d3e:	2800      	cmp	r0, #0
 8004d40:	d1f9      	bne.n	8004d36 <USBD_SetClassConfig+0x8>
    {
      ret = USBD_OK;
    }
  }
  return ret; 
}
 8004d42:	bd08      	pop	{r3, pc}

08004d44 <USBD_ClrClassConfig>:
* @param  pdev: device instance
* @param  cfgidx: configuration index
* @retval status: USBD_StatusTypeDef
*/
USBD_StatusTypeDef USBD_ClrClassConfig(USBD_HandleTypeDef  *pdev, uint8_t cfgidx)
{
 8004d44:	b508      	push	{r3, lr}
  /* Clear configuration  and De-initialize the Class process*/
  pdev->pClass->DeInit(pdev, cfgidx);  
 8004d46:	f8d0 3214 	ldr.w	r3, [r0, #532]	; 0x214
 8004d4a:	685b      	ldr	r3, [r3, #4]
 8004d4c:	4798      	blx	r3
  return USBD_OK;
}
 8004d4e:	2000      	movs	r0, #0
 8004d50:	bd08      	pop	{r3, pc}

08004d52 <USBD_LL_SetupStage>:
*         Handle the setup stage
* @param  pdev: device instance
* @retval status
*/
USBD_StatusTypeDef USBD_LL_SetupStage(USBD_HandleTypeDef *pdev, uint8_t *psetup)
{
 8004d52:	b538      	push	{r3, r4, r5, lr}
 8004d54:	4604      	mov	r4, r0

  USBD_ParseSetupRequest(&pdev->request, psetup);
 8004d56:	f500 7502 	add.w	r5, r0, #520	; 0x208
 8004d5a:	4628      	mov	r0, r5
 8004d5c:	f000 fa75 	bl	800524a <USBD_ParseSetupRequest>
  
  pdev->ep0_state = USBD_EP0_SETUP;
 8004d60:	2301      	movs	r3, #1
  pdev->ep0_data_len = pdev->request.wLength;
  
  switch (pdev->request.bmRequest & 0x1F) 
 8004d62:	f894 1208 	ldrb.w	r1, [r4, #520]	; 0x208
  pdev->ep0_state = USBD_EP0_SETUP;
 8004d66:	f8c4 31f4 	str.w	r3, [r4, #500]	; 0x1f4
  pdev->ep0_data_len = pdev->request.wLength;
 8004d6a:	f8b4 320e 	ldrh.w	r3, [r4, #526]	; 0x20e
 8004d6e:	f8c4 31f8 	str.w	r3, [r4, #504]	; 0x1f8
  switch (pdev->request.bmRequest & 0x1F) 
 8004d72:	f001 031f 	and.w	r3, r1, #31
 8004d76:	2b01      	cmp	r3, #1
 8004d78:	d00e      	beq.n	8004d98 <USBD_LL_SetupStage+0x46>
 8004d7a:	d307      	bcc.n	8004d8c <USBD_LL_SetupStage+0x3a>
 8004d7c:	2b02      	cmp	r3, #2
 8004d7e:	d010      	beq.n	8004da2 <USBD_LL_SetupStage+0x50>
  case USB_REQ_RECIPIENT_ENDPOINT:        
    USBD_StdEPReq(pdev, &pdev->request);   
    break;
    
  default:           
    USBD_LL_StallEP(pdev , pdev->request.bmRequest & 0x80);
 8004d80:	f001 0180 	and.w	r1, r1, #128	; 0x80
 8004d84:	4620      	mov	r0, r4
 8004d86:	f7ff ff51 	bl	8004c2c <USBD_LL_StallEP>
    break;
 8004d8a:	e003      	b.n	8004d94 <USBD_LL_SetupStage+0x42>
    USBD_StdDevReq (pdev, &pdev->request);
 8004d8c:	4629      	mov	r1, r5
 8004d8e:	4620      	mov	r0, r4
 8004d90:	f000 f8e6 	bl	8004f60 <USBD_StdDevReq>
  }  
  return USBD_OK;  
}
 8004d94:	2000      	movs	r0, #0
 8004d96:	bd38      	pop	{r3, r4, r5, pc}
    USBD_StdItfReq(pdev, &pdev->request);
 8004d98:	4629      	mov	r1, r5
 8004d9a:	4620      	mov	r0, r4
 8004d9c:	f000 f9da 	bl	8005154 <USBD_StdItfReq>
    break;
 8004da0:	e7f8      	b.n	8004d94 <USBD_LL_SetupStage+0x42>
    USBD_StdEPReq(pdev, &pdev->request);   
 8004da2:	4629      	mov	r1, r5
 8004da4:	4620      	mov	r0, r4
 8004da6:	f000 f9ed 	bl	8005184 <USBD_StdEPReq>
    break;
 8004daa:	e7f3      	b.n	8004d94 <USBD_LL_SetupStage+0x42>

08004dac <USBD_LL_DataOutStage>:
* @param  pdev: device instance
* @param  epnum: endpoint index
* @retval status
*/
USBD_StatusTypeDef USBD_LL_DataOutStage(USBD_HandleTypeDef *pdev , uint8_t epnum, uint8_t *pdata)
{
 8004dac:	b538      	push	{r3, r4, r5, lr}
 8004dae:	4604      	mov	r4, r0
 8004db0:	4615      	mov	r5, r2
  USBD_EndpointTypeDef    *pep;
  
  if(epnum == 0) 
 8004db2:	bb11      	cbnz	r1, 8004dfa <USBD_LL_DataOutStage+0x4e>
  {
    pep = &pdev->ep_out[0];
    
    if ( pdev->ep0_state == USBD_EP0_DATA_OUT)
 8004db4:	f8d0 31f4 	ldr.w	r3, [r0, #500]	; 0x1f4
 8004db8:	2b03      	cmp	r3, #3
 8004dba:	d10f      	bne.n	8004ddc <USBD_LL_DataOutStage+0x30>
    {
      if(pep->rem_length > pep->maxpacket)
 8004dbc:	f8d0 310c 	ldr.w	r3, [r0, #268]	; 0x10c
 8004dc0:	f8d0 2110 	ldr.w	r2, [r0, #272]	; 0x110
 8004dc4:	4293      	cmp	r3, r2
 8004dc6:	d90b      	bls.n	8004de0 <USBD_LL_DataOutStage+0x34>
      {
        pep->rem_length -=  pep->maxpacket;
 8004dc8:	1a9b      	subs	r3, r3, r2
       
        USBD_CtlContinueRx (pdev, 
                            pdata,
                            MIN(pep->rem_length ,pep->maxpacket));
 8004dca:	429a      	cmp	r2, r3
 8004dcc:	bf28      	it	cs
 8004dce:	461a      	movcs	r2, r3
        pep->rem_length -=  pep->maxpacket;
 8004dd0:	f8c0 310c 	str.w	r3, [r0, #268]	; 0x10c
        USBD_CtlContinueRx (pdev, 
 8004dd4:	b292      	uxth	r2, r2
 8004dd6:	4629      	mov	r1, r5
 8004dd8:	f000 fade 	bl	8005398 <USBD_CtlContinueRx>
          (pdev->dev_state == USBD_STATE_CONFIGURED))
  {
    pdev->pClass->DataOut(pdev, epnum); 
  }  
  return USBD_OK;
}
 8004ddc:	2000      	movs	r0, #0
 8004dde:	bd38      	pop	{r3, r4, r5, pc}
        if((pdev->pClass->EP0_RxReady != NULL)&&
 8004de0:	f8d0 3214 	ldr.w	r3, [r0, #532]	; 0x214
 8004de4:	691b      	ldr	r3, [r3, #16]
 8004de6:	b123      	cbz	r3, 8004df2 <USBD_LL_DataOutStage+0x46>
 8004de8:	f890 21fc 	ldrb.w	r2, [r0, #508]	; 0x1fc
 8004dec:	2a03      	cmp	r2, #3
 8004dee:	d100      	bne.n	8004df2 <USBD_LL_DataOutStage+0x46>
          pdev->pClass->EP0_RxReady(pdev); 
 8004df0:	4798      	blx	r3
        USBD_CtlSendStatus(pdev);
 8004df2:	4620      	mov	r0, r4
 8004df4:	f000 fad8 	bl	80053a8 <USBD_CtlSendStatus>
 8004df8:	e7f0      	b.n	8004ddc <USBD_LL_DataOutStage+0x30>
  else if((pdev->pClass->DataOut != NULL)&&
 8004dfa:	f8d0 3214 	ldr.w	r3, [r0, #532]	; 0x214
 8004dfe:	699b      	ldr	r3, [r3, #24]
 8004e00:	2b00      	cmp	r3, #0
 8004e02:	d0eb      	beq.n	8004ddc <USBD_LL_DataOutStage+0x30>
 8004e04:	f890 21fc 	ldrb.w	r2, [r0, #508]	; 0x1fc
 8004e08:	2a03      	cmp	r2, #3
 8004e0a:	d1e7      	bne.n	8004ddc <USBD_LL_DataOutStage+0x30>
    pdev->pClass->DataOut(pdev, epnum); 
 8004e0c:	4798      	blx	r3
 8004e0e:	e7e5      	b.n	8004ddc <USBD_LL_DataOutStage+0x30>

08004e10 <USBD_LL_DataInStage>:
* @param  pdev: device instance
* @param  epnum: endpoint index
* @retval status
*/
USBD_StatusTypeDef USBD_LL_DataInStage(USBD_HandleTypeDef *pdev ,uint8_t epnum, uint8_t *pdata)
{
 8004e10:	b570      	push	{r4, r5, r6, lr}
 8004e12:	4613      	mov	r3, r2
 8004e14:	4604      	mov	r4, r0
  USBD_EndpointTypeDef    *pep;
    
  if(epnum == 0) 
 8004e16:	460e      	mov	r6, r1
 8004e18:	2900      	cmp	r1, #0
 8004e1a:	d13d      	bne.n	8004e98 <USBD_LL_DataInStage+0x88>
  {
    pep = &pdev->ep_in[0];
    
    if ( pdev->ep0_state == USBD_EP0_DATA_IN)
 8004e1c:	f8d0 21f4 	ldr.w	r2, [r0, #500]	; 0x1f4
 8004e20:	2a02      	cmp	r2, #2
 8004e22:	d10f      	bne.n	8004e44 <USBD_LL_DataInStage+0x34>
    {
      if(pep->rem_length > pep->maxpacket)
 8004e24:	69c5      	ldr	r5, [r0, #28]
 8004e26:	6a02      	ldr	r2, [r0, #32]
 8004e28:	4295      	cmp	r5, r2
 8004e2a:	d914      	bls.n	8004e56 <USBD_LL_DataInStage+0x46>
      {
        pep->rem_length -=  pep->maxpacket;
 8004e2c:	1aaa      	subs	r2, r5, r2
 8004e2e:	61c2      	str	r2, [r0, #28]
        
        USBD_CtlContinueSendData (pdev, 
 8004e30:	4619      	mov	r1, r3
 8004e32:	b292      	uxth	r2, r2
 8004e34:	f000 fa99 	bl	800536a <USBD_CtlContinueSendData>
                                  pdata, 
                                  pep->rem_length);
        
        /* Prepare endpoint for premature end of transfer */
        USBD_LL_PrepareReceive (pdev,
 8004e38:	4633      	mov	r3, r6
          
          USBD_CtlContinueSendData(pdev , NULL, 0);
          pdev->ep0_data_len = 0;
          
        /* Prepare endpoint for premature end of transfer */
        USBD_LL_PrepareReceive (pdev,
 8004e3a:	461a      	mov	r2, r3
 8004e3c:	4619      	mov	r1, r3
 8004e3e:	4620      	mov	r0, r4
 8004e40:	f7ff ff40 	bl	8004cc4 <USBD_LL_PrepareReceive>
          }          
          USBD_CtlReceiveStatus(pdev);
        }
      }
    }
    if (pdev->dev_test_mode == 1)
 8004e44:	f894 3200 	ldrb.w	r3, [r4, #512]	; 0x200
 8004e48:	2b01      	cmp	r3, #1
 8004e4a:	d102      	bne.n	8004e52 <USBD_LL_DataInStage+0x42>
    {
      USBD_RunTestMode(pdev); 
      pdev->dev_test_mode = 0;
 8004e4c:	2300      	movs	r3, #0
 8004e4e:	f884 3200 	strb.w	r3, [r4, #512]	; 0x200
          (pdev->dev_state == USBD_STATE_CONFIGURED))
  {
    pdev->pClass->DataIn(pdev, epnum); 
  }  
  return USBD_OK;
}
 8004e52:	2000      	movs	r0, #0
 8004e54:	bd70      	pop	{r4, r5, r6, pc}
        if((pep->total_length % pep->maxpacket == 0) &&
 8004e56:	6983      	ldr	r3, [r0, #24]
 8004e58:	fbb3 f5f2 	udiv	r5, r3, r2
 8004e5c:	fb02 3515 	mls	r5, r2, r5, r3
 8004e60:	b965      	cbnz	r5, 8004e7c <USBD_LL_DataInStage+0x6c>
 8004e62:	429a      	cmp	r2, r3
 8004e64:	d80a      	bhi.n	8004e7c <USBD_LL_DataInStage+0x6c>
           (pep->total_length >= pep->maxpacket) &&
 8004e66:	f8d0 21f8 	ldr.w	r2, [r0, #504]	; 0x1f8
 8004e6a:	4293      	cmp	r3, r2
 8004e6c:	d206      	bcs.n	8004e7c <USBD_LL_DataInStage+0x6c>
          USBD_CtlContinueSendData(pdev , NULL, 0);
 8004e6e:	462a      	mov	r2, r5
 8004e70:	f000 fa7b 	bl	800536a <USBD_CtlContinueSendData>
          pdev->ep0_data_len = 0;
 8004e74:	f8c4 51f8 	str.w	r5, [r4, #504]	; 0x1f8
        USBD_LL_PrepareReceive (pdev,
 8004e78:	462b      	mov	r3, r5
 8004e7a:	e7de      	b.n	8004e3a <USBD_LL_DataInStage+0x2a>
          if((pdev->pClass->EP0_TxSent != NULL)&&
 8004e7c:	f8d4 3214 	ldr.w	r3, [r4, #532]	; 0x214
 8004e80:	68db      	ldr	r3, [r3, #12]
 8004e82:	b12b      	cbz	r3, 8004e90 <USBD_LL_DataInStage+0x80>
 8004e84:	f894 21fc 	ldrb.w	r2, [r4, #508]	; 0x1fc
 8004e88:	2a03      	cmp	r2, #3
 8004e8a:	d101      	bne.n	8004e90 <USBD_LL_DataInStage+0x80>
            pdev->pClass->EP0_TxSent(pdev); 
 8004e8c:	4620      	mov	r0, r4
 8004e8e:	4798      	blx	r3
          USBD_CtlReceiveStatus(pdev);
 8004e90:	4620      	mov	r0, r4
 8004e92:	f000 fa94 	bl	80053be <USBD_CtlReceiveStatus>
 8004e96:	e7d5      	b.n	8004e44 <USBD_LL_DataInStage+0x34>
  else if((pdev->pClass->DataIn != NULL)&& 
 8004e98:	f8d0 3214 	ldr.w	r3, [r0, #532]	; 0x214
 8004e9c:	695b      	ldr	r3, [r3, #20]
 8004e9e:	2b00      	cmp	r3, #0
 8004ea0:	d0d7      	beq.n	8004e52 <USBD_LL_DataInStage+0x42>
 8004ea2:	f890 21fc 	ldrb.w	r2, [r0, #508]	; 0x1fc
 8004ea6:	2a03      	cmp	r2, #3
 8004ea8:	d1d3      	bne.n	8004e52 <USBD_LL_DataInStage+0x42>
    pdev->pClass->DataIn(pdev, epnum); 
 8004eaa:	4798      	blx	r3
 8004eac:	e7d1      	b.n	8004e52 <USBD_LL_DataInStage+0x42>

08004eae <USBD_LL_Reset>:
* @param  pdev: device instance
* @retval status
*/

USBD_StatusTypeDef USBD_LL_Reset(USBD_HandleTypeDef  *pdev)
{
 8004eae:	b538      	push	{r3, r4, r5, lr}
  /* Open EP0 OUT */
  USBD_LL_OpenEP(pdev,
 8004eb0:	2200      	movs	r2, #0
{
 8004eb2:	4604      	mov	r4, r0
  USBD_LL_OpenEP(pdev,
 8004eb4:	4611      	mov	r1, r2
              0x00,
              USBD_EP_TYPE_CTRL,
              USB_MAX_EP0_SIZE);
  
  pdev->ep_out[0].maxpacket = USB_MAX_EP0_SIZE;
 8004eb6:	2540      	movs	r5, #64	; 0x40
  USBD_LL_OpenEP(pdev,
 8004eb8:	2340      	movs	r3, #64	; 0x40
 8004eba:	f7ff fe99 	bl	8004bf0 <USBD_LL_OpenEP>
  
  /* Open EP0 IN */
  USBD_LL_OpenEP(pdev,
 8004ebe:	462b      	mov	r3, r5
  pdev->ep_out[0].maxpacket = USB_MAX_EP0_SIZE;
 8004ec0:	f8c4 5110 	str.w	r5, [r4, #272]	; 0x110
  USBD_LL_OpenEP(pdev,
 8004ec4:	2200      	movs	r2, #0
 8004ec6:	2180      	movs	r1, #128	; 0x80
 8004ec8:	4620      	mov	r0, r4
 8004eca:	f7ff fe91 	bl	8004bf0 <USBD_LL_OpenEP>
              USBD_EP_TYPE_CTRL,
              USB_MAX_EP0_SIZE);
  
  pdev->ep_in[0].maxpacket = USB_MAX_EP0_SIZE;
  /* Upon Reset call user call back */
  pdev->dev_state = USBD_STATE_DEFAULT;
 8004ece:	2301      	movs	r3, #1
 8004ed0:	f884 31fc 	strb.w	r3, [r4, #508]	; 0x1fc
  
  if (pdev->pClassData) 
 8004ed4:	f8d4 3218 	ldr.w	r3, [r4, #536]	; 0x218
  pdev->ep_in[0].maxpacket = USB_MAX_EP0_SIZE;
 8004ed8:	6225      	str	r5, [r4, #32]
  if (pdev->pClassData) 
 8004eda:	b12b      	cbz	r3, 8004ee8 <USBD_LL_Reset+0x3a>
    pdev->pClass->DeInit(pdev, pdev->dev_config);  
 8004edc:	f8d4 3214 	ldr.w	r3, [r4, #532]	; 0x214
 8004ee0:	7921      	ldrb	r1, [r4, #4]
 8004ee2:	685b      	ldr	r3, [r3, #4]
 8004ee4:	4620      	mov	r0, r4
 8004ee6:	4798      	blx	r3
 
  
  return USBD_OK;
}
 8004ee8:	2000      	movs	r0, #0
 8004eea:	bd38      	pop	{r3, r4, r5, pc}

08004eec <USBD_LL_SetSpeed>:
* @param  pdev: device instance
* @retval status
*/
USBD_StatusTypeDef USBD_LL_SetSpeed(USBD_HandleTypeDef  *pdev, USBD_SpeedTypeDef speed)
{
  pdev->dev_speed = speed;
 8004eec:	7401      	strb	r1, [r0, #16]
  return USBD_OK;
}
 8004eee:	2000      	movs	r0, #0
 8004ef0:	4770      	bx	lr

08004ef2 <USBD_LL_Suspend>:
* @retval status
*/

USBD_StatusTypeDef USBD_LL_Suspend(USBD_HandleTypeDef  *pdev)
{
  pdev->dev_old_state =  pdev->dev_state;
 8004ef2:	f890 31fc 	ldrb.w	r3, [r0, #508]	; 0x1fc
 8004ef6:	f880 31fd 	strb.w	r3, [r0, #509]	; 0x1fd
  pdev->dev_state  = USBD_STATE_SUSPENDED;
 8004efa:	2304      	movs	r3, #4
 8004efc:	f880 31fc 	strb.w	r3, [r0, #508]	; 0x1fc
  return USBD_OK;
}
 8004f00:	2000      	movs	r0, #0
 8004f02:	4770      	bx	lr

08004f04 <USBD_LL_Resume>:
* @retval status
*/

USBD_StatusTypeDef USBD_LL_Resume(USBD_HandleTypeDef  *pdev)
{
  pdev->dev_state = pdev->dev_old_state;  
 8004f04:	f890 31fd 	ldrb.w	r3, [r0, #509]	; 0x1fd
 8004f08:	f880 31fc 	strb.w	r3, [r0, #508]	; 0x1fc
  return USBD_OK;
}
 8004f0c:	2000      	movs	r0, #0
 8004f0e:	4770      	bx	lr

08004f10 <USBD_LL_SOF>:
* @param  pdev: device instance
* @retval status
*/

USBD_StatusTypeDef USBD_LL_SOF(USBD_HandleTypeDef  *pdev)
{
 8004f10:	b508      	push	{r3, lr}
  if(pdev->dev_state == USBD_STATE_CONFIGURED)
 8004f12:	f890 21fc 	ldrb.w	r2, [r0, #508]	; 0x1fc
 8004f16:	2a03      	cmp	r2, #3
 8004f18:	d104      	bne.n	8004f24 <USBD_LL_SOF+0x14>
  {
    if(pdev->pClass->SOF != NULL)
 8004f1a:	f8d0 3214 	ldr.w	r3, [r0, #532]	; 0x214
 8004f1e:	69db      	ldr	r3, [r3, #28]
 8004f20:	b103      	cbz	r3, 8004f24 <USBD_LL_SOF+0x14>
    {
      pdev->pClass->SOF(pdev);
 8004f22:	4798      	blx	r3
    }
  }
  return USBD_OK;
}
 8004f24:	2000      	movs	r0, #0
 8004f26:	bd08      	pop	{r3, pc}

08004f28 <USBD_LL_IsoINIncomplete>:
 8004f28:	2000      	movs	r0, #0
 8004f2a:	4770      	bx	lr

08004f2c <USBD_LL_IsoOUTIncomplete>:
* @retval status
*/
USBD_StatusTypeDef USBD_LL_IsoOUTIncomplete(USBD_HandleTypeDef  *pdev, uint8_t epnum)
{
  return USBD_OK;
}
 8004f2c:	2000      	movs	r0, #0
 8004f2e:	4770      	bx	lr

08004f30 <USBD_LL_DevConnected>:
* @retval status
*/
USBD_StatusTypeDef USBD_LL_DevConnected(USBD_HandleTypeDef  *pdev)
{
  return USBD_OK;
}
 8004f30:	2000      	movs	r0, #0
 8004f32:	4770      	bx	lr

08004f34 <USBD_LL_DevDisconnected>:
*         Handle device disconnection event
* @param  pdev: device instance
* @retval status
*/
USBD_StatusTypeDef USBD_LL_DevDisconnected(USBD_HandleTypeDef  *pdev)
{
 8004f34:	b508      	push	{r3, lr}
  /* Free Class Resources */
  pdev->dev_state = USBD_STATE_DEFAULT;
 8004f36:	2201      	movs	r2, #1
 8004f38:	f880 21fc 	strb.w	r2, [r0, #508]	; 0x1fc
  pdev->pClass->DeInit(pdev, pdev->dev_config);  
 8004f3c:	f8d0 2214 	ldr.w	r2, [r0, #532]	; 0x214
 8004f40:	7901      	ldrb	r1, [r0, #4]
 8004f42:	6852      	ldr	r2, [r2, #4]
 8004f44:	4790      	blx	r2
   
  return USBD_OK;
}
 8004f46:	2000      	movs	r0, #0
 8004f48:	bd08      	pop	{r3, pc}

08004f4a <USBD_CtlError.constprop.0>:
* @param  pdev: device instance
* @param  req: usb request
* @retval None
*/

void USBD_CtlError( USBD_HandleTypeDef *pdev ,
 8004f4a:	b510      	push	{r4, lr}
                            USBD_SetupReqTypedef *req)
{
  USBD_LL_StallEP(pdev , 0x80);
 8004f4c:	2180      	movs	r1, #128	; 0x80
void USBD_CtlError( USBD_HandleTypeDef *pdev ,
 8004f4e:	4604      	mov	r4, r0
  USBD_LL_StallEP(pdev , 0x80);
 8004f50:	f7ff fe6c 	bl	8004c2c <USBD_LL_StallEP>
  USBD_LL_StallEP(pdev , 0);
 8004f54:	4620      	mov	r0, r4
 8004f56:	2100      	movs	r1, #0
}
 8004f58:	e8bd 4010 	ldmia.w	sp!, {r4, lr}
  USBD_LL_StallEP(pdev , 0);
 8004f5c:	f7ff be66 	b.w	8004c2c <USBD_LL_StallEP>

08004f60 <USBD_StdDevReq>:
{
 8004f60:	b537      	push	{r0, r1, r2, r4, r5, lr}
  switch (req->bRequest) 
 8004f62:	784b      	ldrb	r3, [r1, #1]
{
 8004f64:	4604      	mov	r4, r0
 8004f66:	460d      	mov	r5, r1
  switch (req->bRequest) 
 8004f68:	2b09      	cmp	r3, #9
 8004f6a:	d879      	bhi.n	8005060 <USBD_StdDevReq+0x100>
 8004f6c:	e8df f013 	tbh	[pc, r3, lsl #1]
 8004f70:	00e500c9 	.word	0x00e500c9
 8004f74:	00d90078 	.word	0x00d90078
 8004f78:	006d0078 	.word	0x006d0078
 8004f7c:	0078000a 	.word	0x0078000a
 8004f80:	008d00b9 	.word	0x008d00b9
  switch (req->wValue >> 8)
 8004f84:	884b      	ldrh	r3, [r1, #2]
 8004f86:	0a1a      	lsrs	r2, r3, #8
 8004f88:	3a01      	subs	r2, #1
 8004f8a:	2a06      	cmp	r2, #6
 8004f8c:	d868      	bhi.n	8005060 <USBD_StdDevReq+0x100>
 8004f8e:	e8df f002 	tbb	[pc, r2]
 8004f92:	1c04      	.short	0x1c04
 8004f94:	49676729 	.word	0x49676729
 8004f98:	52          	.byte	0x52
 8004f99:	00          	.byte	0x00
    pbuf = pdev->pDesc->GetDeviceDescriptor(pdev->dev_speed, &len);
 8004f9a:	f8d0 3210 	ldr.w	r3, [r0, #528]	; 0x210
 8004f9e:	681b      	ldr	r3, [r3, #0]
     pbuf = pdev->pDesc->GetLangIDStrDescriptor(pdev->dev_speed, &len);        
 8004fa0:	7c20      	ldrb	r0, [r4, #16]
 8004fa2:	f10d 0106 	add.w	r1, sp, #6
 8004fa6:	4798      	blx	r3
  if((len != 0)&& (req->wLength != 0))
 8004fa8:	f8bd 2006 	ldrh.w	r2, [sp, #6]
 8004fac:	2a00      	cmp	r2, #0
 8004fae:	d067      	beq.n	8005080 <USBD_StdDevReq+0x120>
 8004fb0:	88eb      	ldrh	r3, [r5, #6]
 8004fb2:	2b00      	cmp	r3, #0
 8004fb4:	d064      	beq.n	8005080 <USBD_StdDevReq+0x120>
    len = MIN(len , req->wLength);
 8004fb6:	429a      	cmp	r2, r3
 8004fb8:	bf28      	it	cs
 8004fba:	461a      	movcs	r2, r3
 8004fbc:	f8ad 2006 	strh.w	r2, [sp, #6]
    USBD_CtlSendData (pdev, 
 8004fc0:	4601      	mov	r1, r0
    USBD_CtlSendData (pdev, 
 8004fc2:	4620      	mov	r0, r4
 8004fc4:	f000 f9c4 	bl	8005350 <USBD_CtlSendData>
 8004fc8:	e05a      	b.n	8005080 <USBD_StdDevReq+0x120>
    if(pdev->dev_speed == USBD_SPEED_HIGH )   
 8004fca:	7c02      	ldrb	r2, [r0, #16]
 8004fcc:	f8d0 3214 	ldr.w	r3, [r0, #532]	; 0x214
 8004fd0:	b932      	cbnz	r2, 8004fe0 <USBD_StdDevReq+0x80>
      pbuf   = (uint8_t *)pdev->pClass->GetHSConfigDescriptor(&len);
 8004fd2:	6a9b      	ldr	r3, [r3, #40]	; 0x28
      pbuf   = (uint8_t *)pdev->pClass->GetFSConfigDescriptor(&len);
 8004fd4:	f10d 0006 	add.w	r0, sp, #6
 8004fd8:	4798      	blx	r3
      pbuf[1] = USB_DESC_TYPE_CONFIGURATION;
 8004fda:	2302      	movs	r3, #2
      pbuf[1] = USB_DESC_TYPE_OTHER_SPEED_CONFIGURATION;
 8004fdc:	7043      	strb	r3, [r0, #1]
 8004fde:	e7e3      	b.n	8004fa8 <USBD_StdDevReq+0x48>
      pbuf   = (uint8_t *)pdev->pClass->GetFSConfigDescriptor(&len);
 8004fe0:	6adb      	ldr	r3, [r3, #44]	; 0x2c
 8004fe2:	e7f7      	b.n	8004fd4 <USBD_StdDevReq+0x74>
    switch ((uint8_t)(req->wValue))
 8004fe4:	b2db      	uxtb	r3, r3
 8004fe6:	2b05      	cmp	r3, #5
 8004fe8:	d83a      	bhi.n	8005060 <USBD_StdDevReq+0x100>
 8004fea:	e8df f003 	tbb	[pc, r3]
 8004fee:	0703      	.short	0x0703
 8004ff0:	17130f0b 	.word	0x17130f0b
     pbuf = pdev->pDesc->GetLangIDStrDescriptor(pdev->dev_speed, &len);        
 8004ff4:	f8d0 3210 	ldr.w	r3, [r0, #528]	; 0x210
 8004ff8:	685b      	ldr	r3, [r3, #4]
 8004ffa:	e7d1      	b.n	8004fa0 <USBD_StdDevReq+0x40>
      pbuf = pdev->pDesc->GetManufacturerStrDescriptor(pdev->dev_speed, &len);
 8004ffc:	f8d0 3210 	ldr.w	r3, [r0, #528]	; 0x210
 8005000:	689b      	ldr	r3, [r3, #8]
 8005002:	e7cd      	b.n	8004fa0 <USBD_StdDevReq+0x40>
      pbuf = pdev->pDesc->GetProductStrDescriptor(pdev->dev_speed, &len);
 8005004:	f8d0 3210 	ldr.w	r3, [r0, #528]	; 0x210
 8005008:	68db      	ldr	r3, [r3, #12]
 800500a:	e7c9      	b.n	8004fa0 <USBD_StdDevReq+0x40>
      pbuf = pdev->pDesc->GetSerialStrDescriptor(pdev->dev_speed, &len);
 800500c:	f8d0 3210 	ldr.w	r3, [r0, #528]	; 0x210
 8005010:	691b      	ldr	r3, [r3, #16]
 8005012:	e7c5      	b.n	8004fa0 <USBD_StdDevReq+0x40>
      pbuf = pdev->pDesc->GetConfigurationStrDescriptor(pdev->dev_speed, &len);
 8005014:	f8d0 3210 	ldr.w	r3, [r0, #528]	; 0x210
 8005018:	695b      	ldr	r3, [r3, #20]
 800501a:	e7c1      	b.n	8004fa0 <USBD_StdDevReq+0x40>
      pbuf = pdev->pDesc->GetInterfaceStrDescriptor(pdev->dev_speed, &len);
 800501c:	f8d0 3210 	ldr.w	r3, [r0, #528]	; 0x210
 8005020:	699b      	ldr	r3, [r3, #24]
 8005022:	e7bd      	b.n	8004fa0 <USBD_StdDevReq+0x40>
    if(pdev->dev_speed == USBD_SPEED_HIGH  )   
 8005024:	7c03      	ldrb	r3, [r0, #16]
 8005026:	b9db      	cbnz	r3, 8005060 <USBD_StdDevReq+0x100>
      pbuf   = (uint8_t *)pdev->pClass->GetDeviceQualifierDescriptor(&len);
 8005028:	f8d0 3214 	ldr.w	r3, [r0, #532]	; 0x214
 800502c:	f10d 0006 	add.w	r0, sp, #6
 8005030:	6b5b      	ldr	r3, [r3, #52]	; 0x34
 8005032:	4798      	blx	r3
 8005034:	e7b8      	b.n	8004fa8 <USBD_StdDevReq+0x48>
    if(pdev->dev_speed == USBD_SPEED_HIGH  )   
 8005036:	7c03      	ldrb	r3, [r0, #16]
 8005038:	b993      	cbnz	r3, 8005060 <USBD_StdDevReq+0x100>
      pbuf   = (uint8_t *)pdev->pClass->GetOtherSpeedConfigDescriptor(&len);
 800503a:	f8d0 3214 	ldr.w	r3, [r0, #532]	; 0x214
 800503e:	f10d 0006 	add.w	r0, sp, #6
 8005042:	6b1b      	ldr	r3, [r3, #48]	; 0x30
 8005044:	4798      	blx	r3
      pbuf[1] = USB_DESC_TYPE_OTHER_SPEED_CONFIGURATION;
 8005046:	2307      	movs	r3, #7
 8005048:	e7c8      	b.n	8004fdc <USBD_StdDevReq+0x7c>
  if ((req->wIndex == 0) && (req->wLength == 0)) 
 800504a:	888b      	ldrh	r3, [r1, #4]
 800504c:	b943      	cbnz	r3, 8005060 <USBD_StdDevReq+0x100>
 800504e:	88cb      	ldrh	r3, [r1, #6]
 8005050:	b933      	cbnz	r3, 8005060 <USBD_StdDevReq+0x100>
    if (pdev->dev_state == USBD_STATE_CONFIGURED) 
 8005052:	f890 31fc 	ldrb.w	r3, [r0, #508]	; 0x1fc
    dev_addr = (uint8_t)(req->wValue) & 0x7F;     
 8005056:	788d      	ldrb	r5, [r1, #2]
    if (pdev->dev_state == USBD_STATE_CONFIGURED) 
 8005058:	2b03      	cmp	r3, #3
    dev_addr = (uint8_t)(req->wValue) & 0x7F;     
 800505a:	f005 057f 	and.w	r5, r5, #127	; 0x7f
    if (pdev->dev_state == USBD_STATE_CONFIGURED) 
 800505e:	d103      	bne.n	8005068 <USBD_StdDevReq+0x108>
    USBD_CtlError(pdev , req);
 8005060:	4620      	mov	r0, r4
 8005062:	f7ff ff72 	bl	8004f4a <USBD_CtlError.constprop.0>
    break;
 8005066:	e00b      	b.n	8005080 <USBD_StdDevReq+0x120>
      pdev->dev_address = dev_addr;
 8005068:	f880 51fe 	strb.w	r5, [r0, #510]	; 0x1fe
      USBD_LL_SetUSBAddress(pdev, dev_addr);               
 800506c:	4629      	mov	r1, r5
 800506e:	f7ff fe0d 	bl	8004c8c <USBD_LL_SetUSBAddress>
      USBD_CtlSendStatus(pdev);                         
 8005072:	4620      	mov	r0, r4
 8005074:	f000 f998 	bl	80053a8 <USBD_CtlSendStatus>
      if (dev_addr != 0) 
 8005078:	b12d      	cbz	r5, 8005086 <USBD_StdDevReq+0x126>
        pdev->dev_state  = USBD_STATE_ADDRESSED;
 800507a:	2302      	movs	r3, #2
        pdev->dev_state  = USBD_STATE_DEFAULT; 
 800507c:	f884 31fc 	strb.w	r3, [r4, #508]	; 0x1fc
}
 8005080:	2000      	movs	r0, #0
 8005082:	b003      	add	sp, #12
 8005084:	bd30      	pop	{r4, r5, pc}
        pdev->dev_state  = USBD_STATE_DEFAULT; 
 8005086:	2301      	movs	r3, #1
 8005088:	e7f8      	b.n	800507c <USBD_StdDevReq+0x11c>
  cfgidx = (uint8_t)(req->wValue);                 
 800508a:	7889      	ldrb	r1, [r1, #2]
 800508c:	4d30      	ldr	r5, [pc, #192]	; (8005150 <USBD_StdDevReq+0x1f0>)
  if (cfgidx > USBD_MAX_NUM_CONFIGURATION ) 
 800508e:	2901      	cmp	r1, #1
  cfgidx = (uint8_t)(req->wValue);                 
 8005090:	7029      	strb	r1, [r5, #0]
  if (cfgidx > USBD_MAX_NUM_CONFIGURATION ) 
 8005092:	d8e5      	bhi.n	8005060 <USBD_StdDevReq+0x100>
    switch (pdev->dev_state) 
 8005094:	f890 31fc 	ldrb.w	r3, [r0, #508]	; 0x1fc
 8005098:	2b02      	cmp	r3, #2
 800509a:	d00c      	beq.n	80050b6 <USBD_StdDevReq+0x156>
 800509c:	2b03      	cmp	r3, #3
 800509e:	d1df      	bne.n	8005060 <USBD_StdDevReq+0x100>
      if (cfgidx == 0) 
 80050a0:	b9b1      	cbnz	r1, 80050d0 <USBD_StdDevReq+0x170>
        pdev->dev_state = USBD_STATE_ADDRESSED;
 80050a2:	2302      	movs	r3, #2
 80050a4:	f880 31fc 	strb.w	r3, [r0, #508]	; 0x1fc
        pdev->dev_config = cfgidx;          
 80050a8:	6041      	str	r1, [r0, #4]
        USBD_ClrClassConfig(pdev , cfgidx);
 80050aa:	f7ff fe4b 	bl	8004d44 <USBD_ClrClassConfig>
      USBD_CtlSendStatus(pdev);
 80050ae:	4620      	mov	r0, r4
 80050b0:	f000 f97a 	bl	80053a8 <USBD_CtlSendStatus>
 80050b4:	e7e4      	b.n	8005080 <USBD_StdDevReq+0x120>
      if (cfgidx) 
 80050b6:	2900      	cmp	r1, #0
 80050b8:	d0f9      	beq.n	80050ae <USBD_StdDevReq+0x14e>
        pdev->dev_config = cfgidx;
 80050ba:	2101      	movs	r1, #1
        pdev->dev_state = USBD_STATE_CONFIGURED;
 80050bc:	2303      	movs	r3, #3
        pdev->dev_config = cfgidx;
 80050be:	6041      	str	r1, [r0, #4]
        pdev->dev_state = USBD_STATE_CONFIGURED;
 80050c0:	f880 31fc 	strb.w	r3, [r0, #508]	; 0x1fc
        if(USBD_SetClassConfig(pdev , cfgidx) == USBD_FAIL)
 80050c4:	4620      	mov	r0, r4
 80050c6:	f7ff fe32 	bl	8004d2e <USBD_SetClassConfig>
 80050ca:	2802      	cmp	r0, #2
 80050cc:	d1ef      	bne.n	80050ae <USBD_StdDevReq+0x14e>
 80050ce:	e7c7      	b.n	8005060 <USBD_StdDevReq+0x100>
      else  if (cfgidx != pdev->dev_config) 
 80050d0:	6841      	ldr	r1, [r0, #4]
 80050d2:	2901      	cmp	r1, #1
 80050d4:	d0eb      	beq.n	80050ae <USBD_StdDevReq+0x14e>
        USBD_ClrClassConfig(pdev , pdev->dev_config);
 80050d6:	b2c9      	uxtb	r1, r1
 80050d8:	f7ff fe34 	bl	8004d44 <USBD_ClrClassConfig>
        pdev->dev_config = cfgidx;
 80050dc:	7829      	ldrb	r1, [r5, #0]
 80050de:	6061      	str	r1, [r4, #4]
 80050e0:	e7f0      	b.n	80050c4 <USBD_StdDevReq+0x164>
  if (req->wLength != 1) 
 80050e2:	88ca      	ldrh	r2, [r1, #6]
 80050e4:	2a01      	cmp	r2, #1
 80050e6:	d1bb      	bne.n	8005060 <USBD_StdDevReq+0x100>
    switch (pdev->dev_state )  
 80050e8:	f890 31fc 	ldrb.w	r3, [r0, #508]	; 0x1fc
 80050ec:	2b02      	cmp	r3, #2
 80050ee:	d003      	beq.n	80050f8 <USBD_StdDevReq+0x198>
 80050f0:	2b03      	cmp	r3, #3
 80050f2:	d1b5      	bne.n	8005060 <USBD_StdDevReq+0x100>
      USBD_CtlSendData (pdev, 
 80050f4:	1d01      	adds	r1, r0, #4
 80050f6:	e764      	b.n	8004fc2 <USBD_StdDevReq+0x62>
      pdev->dev_default_config = 0;
 80050f8:	4601      	mov	r1, r0
 80050fa:	2300      	movs	r3, #0
 80050fc:	f841 3f08 	str.w	r3, [r1, #8]!
 8005100:	e75f      	b.n	8004fc2 <USBD_StdDevReq+0x62>
  switch (pdev->dev_state) 
 8005102:	f890 31fc 	ldrb.w	r3, [r0, #508]	; 0x1fc
 8005106:	3b02      	subs	r3, #2
 8005108:	2b01      	cmp	r3, #1
 800510a:	d8a9      	bhi.n	8005060 <USBD_StdDevReq+0x100>
    pdev->dev_config_status = USB_CONFIG_SELF_POWERED;                                  
 800510c:	2301      	movs	r3, #1
 800510e:	60c3      	str	r3, [r0, #12]
    if (pdev->dev_remote_wakeup) 
 8005110:	f8d0 3204 	ldr.w	r3, [r0, #516]	; 0x204
 8005114:	b10b      	cbz	r3, 800511a <USBD_StdDevReq+0x1ba>
       pdev->dev_config_status |= USB_CONFIG_REMOTE_WAKEUP;                                
 8005116:	2303      	movs	r3, #3
 8005118:	60c3      	str	r3, [r0, #12]
    USBD_CtlSendData (pdev, 
 800511a:	2202      	movs	r2, #2
 800511c:	f104 010c 	add.w	r1, r4, #12
 8005120:	e74f      	b.n	8004fc2 <USBD_StdDevReq+0x62>
  if (req->wValue == USB_FEATURE_REMOTE_WAKEUP)
 8005122:	884b      	ldrh	r3, [r1, #2]
 8005124:	2b01      	cmp	r3, #1
 8005126:	d1ab      	bne.n	8005080 <USBD_StdDevReq+0x120>
      pdev->dev_remote_wakeup = 0; 
 8005128:	f8c4 3204 	str.w	r3, [r4, #516]	; 0x204
      pdev->pClass->Setup (pdev, req);   
 800512c:	f8d4 3214 	ldr.w	r3, [r4, #532]	; 0x214
 8005130:	4629      	mov	r1, r5
 8005132:	689b      	ldr	r3, [r3, #8]
 8005134:	4620      	mov	r0, r4
 8005136:	4798      	blx	r3
 8005138:	e7b9      	b.n	80050ae <USBD_StdDevReq+0x14e>
  switch (pdev->dev_state)
 800513a:	f890 31fc 	ldrb.w	r3, [r0, #508]	; 0x1fc
 800513e:	3b02      	subs	r3, #2
 8005140:	2b01      	cmp	r3, #1
 8005142:	d88d      	bhi.n	8005060 <USBD_StdDevReq+0x100>
    if (req->wValue == USB_FEATURE_REMOTE_WAKEUP) 
 8005144:	884b      	ldrh	r3, [r1, #2]
 8005146:	2b01      	cmp	r3, #1
 8005148:	d19a      	bne.n	8005080 <USBD_StdDevReq+0x120>
      pdev->dev_remote_wakeup = 0; 
 800514a:	2300      	movs	r3, #0
 800514c:	e7ec      	b.n	8005128 <USBD_StdDevReq+0x1c8>
 800514e:	bf00      	nop
 8005150:	20000f11 	.word	0x20000f11

08005154 <USBD_StdItfReq>:
{
 8005154:	b538      	push	{r3, r4, r5, lr}
  switch (pdev->dev_state) 
 8005156:	f890 31fc 	ldrb.w	r3, [r0, #508]	; 0x1fc
 800515a:	2b03      	cmp	r3, #3
{
 800515c:	4604      	mov	r4, r0
 800515e:	460d      	mov	r5, r1
  switch (pdev->dev_state) 
 8005160:	d10d      	bne.n	800517e <USBD_StdItfReq+0x2a>
    if (LOBYTE(req->wIndex) <= USBD_MAX_NUM_INTERFACES) 
 8005162:	790b      	ldrb	r3, [r1, #4]
 8005164:	2b01      	cmp	r3, #1
 8005166:	d80a      	bhi.n	800517e <USBD_StdItfReq+0x2a>
      pdev->pClass->Setup (pdev, req); 
 8005168:	f8d0 3214 	ldr.w	r3, [r0, #532]	; 0x214
 800516c:	689b      	ldr	r3, [r3, #8]
 800516e:	4798      	blx	r3
      if((req->wLength == 0)&& (ret == USBD_OK))
 8005170:	88eb      	ldrh	r3, [r5, #6]
 8005172:	b913      	cbnz	r3, 800517a <USBD_StdItfReq+0x26>
         USBD_CtlSendStatus(pdev);
 8005174:	4620      	mov	r0, r4
 8005176:	f000 f917 	bl	80053a8 <USBD_CtlSendStatus>
}
 800517a:	2000      	movs	r0, #0
 800517c:	bd38      	pop	{r3, r4, r5, pc}
     USBD_CtlError(pdev , req);
 800517e:	f7ff fee4 	bl	8004f4a <USBD_CtlError.constprop.0>
    break;
 8005182:	e7fa      	b.n	800517a <USBD_StdItfReq+0x26>

08005184 <USBD_StdEPReq>:
{
 8005184:	b570      	push	{r4, r5, r6, lr}
  if ((req->bmRequest & 0x60) == 0x20)
 8005186:	780a      	ldrb	r2, [r1, #0]
  ep_addr  = LOBYTE(req->wIndex);   
 8005188:	888e      	ldrh	r6, [r1, #4]
  if ((req->bmRequest & 0x60) == 0x20)
 800518a:	f002 0260 	and.w	r2, r2, #96	; 0x60
 800518e:	2a20      	cmp	r2, #32
{
 8005190:	4604      	mov	r4, r0
 8005192:	460d      	mov	r5, r1
  ep_addr  = LOBYTE(req->wIndex);   
 8005194:	b2f3      	uxtb	r3, r6
  if ((req->bmRequest & 0x60) == 0x20)
 8005196:	d105      	bne.n	80051a4 <USBD_StdEPReq+0x20>
    pdev->pClass->Setup (pdev, req);
 8005198:	f8d0 3214 	ldr.w	r3, [r0, #532]	; 0x214
 800519c:	689b      	ldr	r3, [r3, #8]
 800519e:	4798      	blx	r3
}
 80051a0:	2000      	movs	r0, #0
 80051a2:	bd70      	pop	{r4, r5, r6, pc}
  switch (req->bRequest) 
 80051a4:	784a      	ldrb	r2, [r1, #1]
 80051a6:	2a01      	cmp	r2, #1
 80051a8:	d01c      	beq.n	80051e4 <USBD_StdEPReq+0x60>
 80051aa:	d32a      	bcc.n	8005202 <USBD_StdEPReq+0x7e>
 80051ac:	2a03      	cmp	r2, #3
 80051ae:	d1f7      	bne.n	80051a0 <USBD_StdEPReq+0x1c>
    switch (pdev->dev_state) 
 80051b0:	f890 21fc 	ldrb.w	r2, [r0, #508]	; 0x1fc
 80051b4:	2a02      	cmp	r2, #2
 80051b6:	d040      	beq.n	800523a <USBD_StdEPReq+0xb6>
 80051b8:	2a03      	cmp	r2, #3
 80051ba:	d002      	beq.n	80051c2 <USBD_StdEPReq+0x3e>
      USBD_CtlError(pdev , req);
 80051bc:	f7ff fec5 	bl	8004f4a <USBD_CtlError.constprop.0>
      break;
 80051c0:	e7ee      	b.n	80051a0 <USBD_StdEPReq+0x1c>
      if (req->wValue == USB_FEATURE_EP_HALT)
 80051c2:	884a      	ldrh	r2, [r1, #2]
 80051c4:	b922      	cbnz	r2, 80051d0 <USBD_StdEPReq+0x4c>
        if ((ep_addr != 0x00) && (ep_addr != 0x80)) 
 80051c6:	065e      	lsls	r6, r3, #25
 80051c8:	d002      	beq.n	80051d0 <USBD_StdEPReq+0x4c>
          USBD_LL_StallEP(pdev , ep_addr);
 80051ca:	4619      	mov	r1, r3
 80051cc:	f7ff fd2e 	bl	8004c2c <USBD_LL_StallEP>
          pdev->pClass->Setup (pdev, req);
 80051d0:	f8d4 3214 	ldr.w	r3, [r4, #532]	; 0x214
 80051d4:	4629      	mov	r1, r5
 80051d6:	689b      	ldr	r3, [r3, #8]
 80051d8:	4620      	mov	r0, r4
 80051da:	4798      	blx	r3
        USBD_CtlSendStatus(pdev);
 80051dc:	4620      	mov	r0, r4
 80051de:	f000 f8e3 	bl	80053a8 <USBD_CtlSendStatus>
 80051e2:	e7dd      	b.n	80051a0 <USBD_StdEPReq+0x1c>
    switch (pdev->dev_state) 
 80051e4:	f890 21fc 	ldrb.w	r2, [r0, #508]	; 0x1fc
 80051e8:	2a02      	cmp	r2, #2
 80051ea:	d026      	beq.n	800523a <USBD_StdEPReq+0xb6>
 80051ec:	2a03      	cmp	r2, #3
 80051ee:	d1e5      	bne.n	80051bc <USBD_StdEPReq+0x38>
      if (req->wValue == USB_FEATURE_EP_HALT)
 80051f0:	884a      	ldrh	r2, [r1, #2]
 80051f2:	2a00      	cmp	r2, #0
 80051f4:	d1d4      	bne.n	80051a0 <USBD_StdEPReq+0x1c>
        if ((ep_addr & 0x7F) != 0x00) 
 80051f6:	0659      	lsls	r1, r3, #25
 80051f8:	d0f0      	beq.n	80051dc <USBD_StdEPReq+0x58>
          USBD_LL_ClearStallEP(pdev , ep_addr);
 80051fa:	4619      	mov	r1, r3
 80051fc:	f7ff fd24 	bl	8004c48 <USBD_LL_ClearStallEP>
 8005200:	e7e6      	b.n	80051d0 <USBD_StdEPReq+0x4c>
    switch (pdev->dev_state) 
 8005202:	f890 21fc 	ldrb.w	r2, [r0, #508]	; 0x1fc
 8005206:	2a02      	cmp	r2, #2
 8005208:	d017      	beq.n	800523a <USBD_StdEPReq+0xb6>
 800520a:	2a03      	cmp	r2, #3
 800520c:	d1d6      	bne.n	80051bc <USBD_StdEPReq+0x38>
 800520e:	f003 057f 	and.w	r5, r3, #127	; 0x7f
      pep = ((ep_addr & 0x80) == 0x80) ? &pdev->ep_in[ep_addr & 0x7F]:\
 8005212:	f016 0f80 	tst.w	r6, #128	; 0x80
 8005216:	eb00 1505 	add.w	r5, r0, r5, lsl #4
      if(USBD_LL_IsStallEP(pdev, ep_addr))
 800521a:	4619      	mov	r1, r3
      pep = ((ep_addr & 0x80) == 0x80) ? &pdev->ep_in[ep_addr & 0x7F]:\
 800521c:	bf14      	ite	ne
 800521e:	3514      	addne	r5, #20
 8005220:	f505 7582 	addeq.w	r5, r5, #260	; 0x104
      if(USBD_LL_IsStallEP(pdev, ep_addr))
 8005224:	f7ff fd1e 	bl	8004c64 <USBD_LL_IsStallEP>
 8005228:	b168      	cbz	r0, 8005246 <USBD_StdEPReq+0xc2>
        pep->status = 0x0001;     
 800522a:	2301      	movs	r3, #1
 800522c:	602b      	str	r3, [r5, #0]
      USBD_CtlSendData (pdev,
 800522e:	2202      	movs	r2, #2
 8005230:	4629      	mov	r1, r5
 8005232:	4620      	mov	r0, r4
 8005234:	f000 f88c 	bl	8005350 <USBD_CtlSendData>
      break;
 8005238:	e7b2      	b.n	80051a0 <USBD_StdEPReq+0x1c>
      if ((ep_addr & 0x7F) != 0x00) 
 800523a:	065a      	lsls	r2, r3, #25
 800523c:	d0b0      	beq.n	80051a0 <USBD_StdEPReq+0x1c>
        USBD_LL_StallEP(pdev , ep_addr);
 800523e:	4619      	mov	r1, r3
 8005240:	f7ff fcf4 	bl	8004c2c <USBD_LL_StallEP>
 8005244:	e7ac      	b.n	80051a0 <USBD_StdEPReq+0x1c>
        pep->status = 0x0000;  
 8005246:	6028      	str	r0, [r5, #0]
 8005248:	e7f1      	b.n	800522e <USBD_StdEPReq+0xaa>

0800524a <USBD_ParseSetupRequest>:
  req->bmRequest     = *(uint8_t *)  (pdata);
 800524a:	780b      	ldrb	r3, [r1, #0]
 800524c:	7003      	strb	r3, [r0, #0]
  req->bRequest      = *(uint8_t *)  (pdata +  1);
 800524e:	784b      	ldrb	r3, [r1, #1]
 8005250:	7043      	strb	r3, [r0, #1]
  req->wValue        = SWAPBYTE      (pdata +  2);
 8005252:	78ca      	ldrb	r2, [r1, #3]
 8005254:	788b      	ldrb	r3, [r1, #2]
 8005256:	eb03 2302 	add.w	r3, r3, r2, lsl #8
 800525a:	8043      	strh	r3, [r0, #2]
  req->wIndex        = SWAPBYTE      (pdata +  4);
 800525c:	794a      	ldrb	r2, [r1, #5]
 800525e:	790b      	ldrb	r3, [r1, #4]
 8005260:	eb03 2302 	add.w	r3, r3, r2, lsl #8
 8005264:	8083      	strh	r3, [r0, #4]
  req->wLength       = SWAPBYTE      (pdata +  6);
 8005266:	79ca      	ldrb	r2, [r1, #7]
 8005268:	798b      	ldrb	r3, [r1, #6]
 800526a:	eb03 2302 	add.w	r3, r3, r2, lsl #8
 800526e:	80c3      	strh	r3, [r0, #6]
 8005270:	4770      	bx	lr

08005272 <USBD_GetString>:
  * @param  unicode : Formatted string buffer (unicode)
  * @param  len : descriptor length
  * @retval None
  */
void USBD_GetString(uint8_t *desc, uint8_t *unicode, uint16_t *len)
{
 8005272:	b530      	push	{r4, r5, lr}
  uint8_t idx = 0;
  
  if (desc != NULL) 
 8005274:	b188      	cbz	r0, 800529a <USBD_GetString+0x28>
 8005276:	4605      	mov	r5, r0
 8005278:	1a2b      	subs	r3, r5, r0
  */
static uint8_t USBD_GetLen(uint8_t *buf)
{
    uint8_t  len = 0;

    while (*buf != '\0') 
 800527a:	f815 4b01 	ldrb.w	r4, [r5], #1
 800527e:	b2db      	uxtb	r3, r3
 8005280:	2c00      	cmp	r4, #0
 8005282:	d1f9      	bne.n	8005278 <USBD_GetString+0x6>
    *len =  USBD_GetLen(desc) * 2 + 2;    
 8005284:	005b      	lsls	r3, r3, #1
 8005286:	3302      	adds	r3, #2
 8005288:	8013      	strh	r3, [r2, #0]
    unicode[idx++] = *len;
 800528a:	700b      	strb	r3, [r1, #0]
    unicode[idx++] =  USB_DESC_TYPE_STRING;
 800528c:	2303      	movs	r3, #3
 800528e:	704b      	strb	r3, [r1, #1]
 8005290:	3801      	subs	r0, #1
 8005292:	2302      	movs	r3, #2
    while (*desc != '\0') 
 8005294:	f810 5f01 	ldrb.w	r5, [r0, #1]!
 8005298:	b905      	cbnz	r5, 800529c <USBD_GetString+0x2a>
 800529a:	bd30      	pop	{r4, r5, pc}
      unicode[idx++] = *desc++;
 800529c:	1c5a      	adds	r2, r3, #1
 800529e:	b2d2      	uxtb	r2, r2
 80052a0:	54cd      	strb	r5, [r1, r3]
      unicode[idx++] =  0x00;
 80052a2:	3302      	adds	r3, #2
 80052a4:	b2db      	uxtb	r3, r3
 80052a6:	548c      	strb	r4, [r1, r2]
 80052a8:	e7f4      	b.n	8005294 <USBD_GetString+0x22>
	...

080052ac <USBD_FS_DeviceDescriptor>:
  * @param  length : Pointer to data length variable
  * @retval Pointer to descriptor buffer
  */
uint8_t * USBD_FS_DeviceDescriptor(USBD_SpeedTypeDef speed, uint16_t *length)
{
  *length = sizeof(USBD_FS_DeviceDesc);
 80052ac:	2312      	movs	r3, #18
 80052ae:	800b      	strh	r3, [r1, #0]
  return USBD_FS_DeviceDesc;
}
 80052b0:	4800      	ldr	r0, [pc, #0]	; (80052b4 <USBD_FS_DeviceDescriptor+0x8>)
 80052b2:	4770      	bx	lr
 80052b4:	20000144 	.word	0x20000144

080052b8 <USBD_FS_LangIDStrDescriptor>:
  * @param  length : Pointer to data length variable
  * @retval Pointer to descriptor buffer
  */
uint8_t * USBD_FS_LangIDStrDescriptor(USBD_SpeedTypeDef speed, uint16_t *length)
{
  *length = sizeof(USBD_LangIDDesc);
 80052b8:	2304      	movs	r3, #4
 80052ba:	800b      	strh	r3, [r1, #0]
  return USBD_LangIDDesc;
}
 80052bc:	4800      	ldr	r0, [pc, #0]	; (80052c0 <USBD_FS_LangIDStrDescriptor+0x8>)
 80052be:	4770      	bx	lr
 80052c0:	20000158 	.word	0x20000158

080052c4 <USBD_FS_ManufacturerStrDescriptor>:
  * @param  speed : Current device speed
  * @param  length : Pointer to data length variable
  * @retval Pointer to descriptor buffer
  */
uint8_t * USBD_FS_ManufacturerStrDescriptor(USBD_SpeedTypeDef speed, uint16_t *length)
{
 80052c4:	b510      	push	{r4, lr}
  USBD_GetString((uint8_t *)USBD_MANUFACTURER_STRING, USBD_StrDesc, length);
 80052c6:	4c04      	ldr	r4, [pc, #16]	; (80052d8 <USBD_FS_ManufacturerStrDescriptor+0x14>)
 80052c8:	4804      	ldr	r0, [pc, #16]	; (80052dc <USBD_FS_ManufacturerStrDescriptor+0x18>)
 80052ca:	460a      	mov	r2, r1
 80052cc:	4621      	mov	r1, r4
 80052ce:	f7ff ffd0 	bl	8005272 <USBD_GetString>
  return USBD_StrDesc;
}
 80052d2:	4620      	mov	r0, r4
 80052d4:	bd10      	pop	{r4, pc}
 80052d6:	bf00      	nop
 80052d8:	20011d30 	.word	0x20011d30
 80052dc:	08007739 	.word	0x08007739

080052e0 <USBD_FS_ProductStrDescriptor>:
{
 80052e0:	b510      	push	{r4, lr}
    USBD_GetString((uint8_t *)USBD_PRODUCT_STRING_FS, USBD_StrDesc, length);
 80052e2:	4c04      	ldr	r4, [pc, #16]	; (80052f4 <USBD_FS_ProductStrDescriptor+0x14>)
 80052e4:	4804      	ldr	r0, [pc, #16]	; (80052f8 <USBD_FS_ProductStrDescriptor+0x18>)
 80052e6:	460a      	mov	r2, r1
 80052e8:	4621      	mov	r1, r4
 80052ea:	f7ff ffc2 	bl	8005272 <USBD_GetString>
}
 80052ee:	4620      	mov	r0, r4
 80052f0:	bd10      	pop	{r4, pc}
 80052f2:	bf00      	nop
 80052f4:	20011d30 	.word	0x20011d30
 80052f8:	0800774c 	.word	0x0800774c

080052fc <USBD_FS_SerialStrDescriptor>:
  * @param  speed : Current device speed
  * @param  length : Pointer to data length variable
  * @retval Pointer to descriptor buffer
  */
uint8_t * USBD_FS_SerialStrDescriptor(USBD_SpeedTypeDef speed, uint16_t *length)
{
 80052fc:	b510      	push	{r4, lr}
  if(speed == USBD_SPEED_HIGH)
  {
    USBD_GetString((uint8_t *)USBD_SERIALNUMBER_STRING_FS, USBD_StrDesc, length);
 80052fe:	4c04      	ldr	r4, [pc, #16]	; (8005310 <USBD_FS_SerialStrDescriptor+0x14>)
 8005300:	4804      	ldr	r0, [pc, #16]	; (8005314 <USBD_FS_SerialStrDescriptor+0x18>)
 8005302:	460a      	mov	r2, r1
 8005304:	4621      	mov	r1, r4
 8005306:	f7ff ffb4 	bl	8005272 <USBD_GetString>
  else
  {
    USBD_GetString((uint8_t *)USBD_SERIALNUMBER_STRING_FS, USBD_StrDesc, length);
  }
  return USBD_StrDesc;
}
 800530a:	4620      	mov	r0, r4
 800530c:	bd10      	pop	{r4, pc}
 800530e:	bf00      	nop
 8005310:	20011d30 	.word	0x20011d30
 8005314:	08007762 	.word	0x08007762

08005318 <USBD_FS_ConfigStrDescriptor>:
  * @param  speed : Current device speed
  * @param  length : Pointer to data length variable
  * @retval Pointer to descriptor buffer
  */
uint8_t * USBD_FS_ConfigStrDescriptor(USBD_SpeedTypeDef speed, uint16_t *length)
{
 8005318:	b510      	push	{r4, lr}
  if(speed == USBD_SPEED_HIGH)
  {
    USBD_GetString((uint8_t *)USBD_CONFIGURATION_STRING_FS, USBD_StrDesc, length);
 800531a:	4c04      	ldr	r4, [pc, #16]	; (800532c <USBD_FS_ConfigStrDescriptor+0x14>)
 800531c:	4804      	ldr	r0, [pc, #16]	; (8005330 <USBD_FS_ConfigStrDescriptor+0x18>)
 800531e:	460a      	mov	r2, r1
 8005320:	4621      	mov	r1, r4
 8005322:	f7ff ffa6 	bl	8005272 <USBD_GetString>
  else
  {
    USBD_GetString((uint8_t *)USBD_CONFIGURATION_STRING_FS, USBD_StrDesc, length);
  }
  return USBD_StrDesc;
}
 8005326:	4620      	mov	r0, r4
 8005328:	bd10      	pop	{r4, pc}
 800532a:	bf00      	nop
 800532c:	20011d30 	.word	0x20011d30
 8005330:	08007720 	.word	0x08007720

08005334 <USBD_FS_InterfaceStrDescriptor>:
  * @param  speed : Current device speed
  * @param  length : Pointer to data length variable
  * @retval Pointer to descriptor buffer
  */
uint8_t * USBD_FS_InterfaceStrDescriptor(USBD_SpeedTypeDef speed, uint16_t *length)
{
 8005334:	b510      	push	{r4, lr}
  if(speed == 0)
  {
    USBD_GetString((uint8_t *)USBD_INTERFACE_STRING_FS, USBD_StrDesc, length);
 8005336:	4c04      	ldr	r4, [pc, #16]	; (8005348 <USBD_FS_InterfaceStrDescriptor+0x14>)
 8005338:	4804      	ldr	r0, [pc, #16]	; (800534c <USBD_FS_InterfaceStrDescriptor+0x18>)
 800533a:	460a      	mov	r2, r1
 800533c:	4621      	mov	r1, r4
 800533e:	f7ff ff98 	bl	8005272 <USBD_GetString>
  else
  {
    USBD_GetString((uint8_t *)USBD_INTERFACE_STRING_FS, USBD_StrDesc, length);
  }
  return USBD_StrDesc;
}
 8005342:	4620      	mov	r0, r4
 8005344:	bd10      	pop	{r4, pc}
 8005346:	bf00      	nop
 8005348:	20011d30 	.word	0x20011d30
 800534c:	0800772b 	.word	0x0800772b

08005350 <USBD_CtlSendData>:
* @retval status
*/
USBD_StatusTypeDef  USBD_CtlSendData (USBD_HandleTypeDef  *pdev, 
                               uint8_t *pbuf,
                               uint16_t len)
{
 8005350:	b510      	push	{r4, lr}
 8005352:	4613      	mov	r3, r2
  /* Set EP0 State */
  pdev->ep0_state          = USBD_EP0_DATA_IN;                                      
 8005354:	2202      	movs	r2, #2
 8005356:	f8c0 21f4 	str.w	r2, [r0, #500]	; 0x1f4
  pdev->ep_in[0].total_length = len;
 800535a:	6183      	str	r3, [r0, #24]
  pdev->ep_in[0].rem_length   = len;
 /* Start the transfer */
  USBD_LL_Transmit (pdev, 0x00, pbuf, len);  
 800535c:	460a      	mov	r2, r1
  pdev->ep_in[0].rem_length   = len;
 800535e:	61c3      	str	r3, [r0, #28]
  USBD_LL_Transmit (pdev, 0x00, pbuf, len);  
 8005360:	2100      	movs	r1, #0
 8005362:	f7ff fca1 	bl	8004ca8 <USBD_LL_Transmit>
  
  return USBD_OK;
}
 8005366:	2000      	movs	r0, #0
 8005368:	bd10      	pop	{r4, pc}

0800536a <USBD_CtlContinueSendData>:
* @retval status
*/
USBD_StatusTypeDef  USBD_CtlContinueSendData (USBD_HandleTypeDef  *pdev, 
                                       uint8_t *pbuf,
                                       uint16_t len)
{
 800536a:	b508      	push	{r3, lr}
 /* Start the next transfer */
  USBD_LL_Transmit (pdev, 0x00, pbuf, len);   
 800536c:	4613      	mov	r3, r2
 800536e:	460a      	mov	r2, r1
 8005370:	2100      	movs	r1, #0
 8005372:	f7ff fc99 	bl	8004ca8 <USBD_LL_Transmit>
  
  return USBD_OK;
}
 8005376:	2000      	movs	r0, #0
 8005378:	bd08      	pop	{r3, pc}

0800537a <USBD_CtlPrepareRx>:
* @retval status
*/
USBD_StatusTypeDef  USBD_CtlPrepareRx (USBD_HandleTypeDef  *pdev,
                                  uint8_t *pbuf,                                  
                                  uint16_t len)
{
 800537a:	b510      	push	{r4, lr}
 800537c:	4613      	mov	r3, r2
  /* Set EP0 State */
  pdev->ep0_state = USBD_EP0_DATA_OUT; 
 800537e:	2203      	movs	r2, #3
 8005380:	f8c0 21f4 	str.w	r2, [r0, #500]	; 0x1f4
  pdev->ep_out[0].total_length = len;
 8005384:	f8c0 3108 	str.w	r3, [r0, #264]	; 0x108
  pdev->ep_out[0].rem_length   = len;
  /* Start the transfer */
  USBD_LL_PrepareReceive (pdev,
 8005388:	460a      	mov	r2, r1
  pdev->ep_out[0].rem_length   = len;
 800538a:	f8c0 310c 	str.w	r3, [r0, #268]	; 0x10c
  USBD_LL_PrepareReceive (pdev,
 800538e:	2100      	movs	r1, #0
 8005390:	f7ff fc98 	bl	8004cc4 <USBD_LL_PrepareReceive>
                          0,
                          pbuf,
                         len);
  
  return USBD_OK;
}
 8005394:	2000      	movs	r0, #0
 8005396:	bd10      	pop	{r4, pc}

08005398 <USBD_CtlContinueRx>:
* @retval status
*/
USBD_StatusTypeDef  USBD_CtlContinueRx (USBD_HandleTypeDef  *pdev, 
                                          uint8_t *pbuf,                                          
                                          uint16_t len)
{
 8005398:	b508      	push	{r3, lr}

  USBD_LL_PrepareReceive (pdev,
 800539a:	4613      	mov	r3, r2
 800539c:	460a      	mov	r2, r1
 800539e:	2100      	movs	r1, #0
 80053a0:	f7ff fc90 	bl	8004cc4 <USBD_LL_PrepareReceive>
                          0,                     
                          pbuf,                         
                          len);
  return USBD_OK;
}
 80053a4:	2000      	movs	r0, #0
 80053a6:	bd08      	pop	{r3, pc}

080053a8 <USBD_CtlSendStatus>:
*         send zero lzngth packet on the ctl pipe
* @param  pdev: device instance
* @retval status
*/
USBD_StatusTypeDef  USBD_CtlSendStatus (USBD_HandleTypeDef  *pdev)
{
 80053a8:	b508      	push	{r3, lr}

  /* Set EP0 State */
  pdev->ep0_state = USBD_EP0_STATUS_IN;
 80053aa:	2304      	movs	r3, #4
 80053ac:	f8c0 31f4 	str.w	r3, [r0, #500]	; 0x1f4
  
 /* Start the transfer */
  USBD_LL_Transmit (pdev, 0x00, NULL, 0);   
 80053b0:	2300      	movs	r3, #0
 80053b2:	461a      	mov	r2, r3
 80053b4:	4619      	mov	r1, r3
 80053b6:	f7ff fc77 	bl	8004ca8 <USBD_LL_Transmit>
  
  return USBD_OK;
}
 80053ba:	2000      	movs	r0, #0
 80053bc:	bd08      	pop	{r3, pc}

080053be <USBD_CtlReceiveStatus>:
*         receive zero lzngth packet on the ctl pipe
* @param  pdev: device instance
* @retval status
*/
USBD_StatusTypeDef  USBD_CtlReceiveStatus (USBD_HandleTypeDef  *pdev)
{
 80053be:	b508      	push	{r3, lr}
  /* Set EP0 State */
  pdev->ep0_state = USBD_EP0_STATUS_OUT; 
 80053c0:	2305      	movs	r3, #5
 80053c2:	f8c0 31f4 	str.w	r3, [r0, #500]	; 0x1f4
  
 /* Start the transfer */  
  USBD_LL_PrepareReceive ( pdev,
 80053c6:	2300      	movs	r3, #0
 80053c8:	461a      	mov	r2, r3
 80053ca:	4619      	mov	r1, r3
 80053cc:	f7ff fc7a 	bl	8004cc4 <USBD_LL_PrepareReceive>
                    0,
                    NULL,
                    0);  

  return USBD_OK;
}
 80053d0:	2000      	movs	r0, #0
 80053d2:	bd08      	pop	{r3, pc}

080053d4 <osKernelStart>:
* @param  argument      pointer that is passed to the thread function as start argument.
* @retval status code that indicates the execution status of the function
* @note   MUST REMAIN UNCHANGED: \b osKernelStart shall be consistent in every CMSIS-RTOS.
*/
osStatus osKernelStart (void)
{
 80053d4:	b508      	push	{r3, lr}
  vTaskStartScheduler();
 80053d6:	f000 ff29 	bl	800622c <vTaskStartScheduler>
  
  return osOK;
}
 80053da:	2000      	movs	r0, #0
 80053dc:	bd08      	pop	{r3, pc}

080053de <osThreadCreate>:
* @param  argument      pointer that is passed to the thread function as start argument.
* @retval thread ID for reference by other functions or NULL in case of error.
* @note   MUST REMAIN UNCHANGED: \b osThreadCreate shall be consistent in every CMSIS-RTOS.
*/
osThreadId osThreadCreate (const osThreadDef_t *thread_def, void *argument)
{
 80053de:	b530      	push	{r4, r5, lr}

    handle = xTaskCreateStatic((TaskFunction_t)thread_def->pthread,(const portCHAR *)thread_def->name,
              thread_def->stacksize, argument, makeFreeRtosPriority(thread_def->tpriority),
              thread_def->buffer, thread_def->controlblock);
#else
  if (xTaskCreate((TaskFunction_t)thread_def->pthread,(const portCHAR *)thread_def->name,
 80053e0:	f9b0 4008 	ldrsh.w	r4, [r0, #8]
 80053e4:	8a02      	ldrh	r2, [r0, #16]
{
 80053e6:	460b      	mov	r3, r1
  if (xTaskCreate((TaskFunction_t)thread_def->pthread,(const portCHAR *)thread_def->name,
 80053e8:	e890 0022 	ldmia.w	r0, {r1, r5}
{
 80053ec:	b085      	sub	sp, #20
  if (priority != osPriorityError) {
 80053ee:	2c84      	cmp	r4, #132	; 0x84
    fpriority += (priority - osPriorityIdle);
 80053f0:	bf14      	ite	ne
 80053f2:	3403      	addne	r4, #3
  unsigned portBASE_TYPE fpriority = tskIDLE_PRIORITY;
 80053f4:	2400      	moveq	r4, #0
  if (xTaskCreate((TaskFunction_t)thread_def->pthread,(const portCHAR *)thread_def->name,
 80053f6:	a803      	add	r0, sp, #12
 80053f8:	9001      	str	r0, [sp, #4]
 80053fa:	9400      	str	r4, [sp, #0]
 80053fc:	4628      	mov	r0, r5
 80053fe:	f000 fda9 	bl	8005f54 <xTaskCreate>
 8005402:	2801      	cmp	r0, #1
                   &handle) != pdPASS)  {
    return NULL;
  }     
#endif
  
  return handle;
 8005404:	bf0c      	ite	eq
 8005406:	9803      	ldreq	r0, [sp, #12]
    return NULL;
 8005408:	2000      	movne	r0, #0
}
 800540a:	b005      	add	sp, #20
 800540c:	bd30      	pop	{r4, r5, pc}

0800540e <osDelay>:
* @brief   Wait for Timeout (Time Delay)
* @param   millisec      time delay value
* @retval  status code that indicates the execution status of the function.
*/
osStatus osDelay (uint32_t millisec)
{
 800540e:	b508      	push	{r3, lr}
#if INCLUDE_vTaskDelay
  TickType_t ticks = millisec / portTICK_PERIOD_MS;
  
  vTaskDelay(ticks ? ticks : 1);          /* Minimum delay = 1 tick */
 8005410:	2800      	cmp	r0, #0
 8005412:	bf08      	it	eq
 8005414:	2001      	moveq	r0, #1
 8005416:	f000 fed5 	bl	80061c4 <vTaskDelay>
#else
  (void) millisec;
  
  return osErrorResource;
#endif
}
 800541a:	2000      	movs	r0, #0
 800541c:	bd08      	pop	{r3, pc}

0800541e <osSystickHandler>:
* @brief  Handles the tick increment
* @param  none.
* @retval none.
*/
void osSystickHandler(void)
{
 800541e:	b508      	push	{r3, lr}

#if (INCLUDE_xTaskGetSchedulerState  == 1 )
  if (xTaskGetSchedulerState() != taskSCHEDULER_NOT_STARTED)
 8005420:	f001 fb06 	bl	8006a30 <xTaskGetSchedulerState>
 8005424:	2801      	cmp	r0, #1
 8005426:	d003      	beq.n	8005430 <osSystickHandler+0x12>
#endif  /* INCLUDE_xTaskGetSchedulerState */  
    xPortSysTickHandler();
#if (INCLUDE_xTaskGetSchedulerState  == 1 )
  }
#endif  /* INCLUDE_xTaskGetSchedulerState */  
}
 8005428:	e8bd 4008 	ldmia.w	sp!, {r3, lr}
    xPortSysTickHandler();
 800542c:	f000 b9f2 	b.w	8005814 <xPortSysTickHandler>
 8005430:	bd08      	pop	{r3, pc}

08005432 <vListInitialise>:
void vListInitialise( List_t * const pxList )
{
	/* The list structure contains a list item which is used to mark the
	end of the list.  To initialise the list the list end is inserted
	as the only list entry. */
	pxList->pxIndex = ( ListItem_t * ) &( pxList->xListEnd );			/*lint !e826 !e740 The mini list structure is used as the list end to save RAM.  This is checked and valid. */
 8005432:	f100 0308 	add.w	r3, r0, #8
 8005436:	6043      	str	r3, [r0, #4]

	/* The list end value is the highest possible value in the list to
	ensure it remains at the end of the list. */
	pxList->xListEnd.xItemValue = portMAX_DELAY;
 8005438:	f04f 32ff 	mov.w	r2, #4294967295

	/* The list end next and previous pointers point to itself so we know
	when the list is empty. */
	pxList->xListEnd.pxNext = ( ListItem_t * ) &( pxList->xListEnd );	/*lint !e826 !e740 The mini list structure is used as the list end to save RAM.  This is checked and valid. */
 800543c:	60c3      	str	r3, [r0, #12]
	pxList->xListEnd.pxPrevious = ( ListItem_t * ) &( pxList->xListEnd );/*lint !e826 !e740 The mini list structure is used as the list end to save RAM.  This is checked and valid. */
 800543e:	6103      	str	r3, [r0, #16]

	pxList->uxNumberOfItems = ( UBaseType_t ) 0U;
 8005440:	2300      	movs	r3, #0
	pxList->xListEnd.xItemValue = portMAX_DELAY;
 8005442:	6082      	str	r2, [r0, #8]
	pxList->uxNumberOfItems = ( UBaseType_t ) 0U;
 8005444:	6003      	str	r3, [r0, #0]
 8005446:	4770      	bx	lr

08005448 <vListInitialiseItem>:
/*-----------------------------------------------------------*/

void vListInitialiseItem( ListItem_t * const pxItem )
{
	/* Make sure the list item is not recorded as being on a list. */
	pxItem->pvContainer = NULL;
 8005448:	2300      	movs	r3, #0
 800544a:	6103      	str	r3, [r0, #16]
 800544c:	4770      	bx	lr

0800544e <vListInsertEnd>:
}
/*-----------------------------------------------------------*/

void vListInsertEnd( List_t * const pxList, ListItem_t * const pxNewListItem )
{
ListItem_t * const pxIndex = pxList->pxIndex;
 800544e:	6843      	ldr	r3, [r0, #4]
	listTEST_LIST_ITEM_INTEGRITY( pxNewListItem );

	/* Insert a new list item into pxList, but rather than sort the list,
	makes the new list item the last item to be removed by a call to
	listGET_OWNER_OF_NEXT_ENTRY(). */
	pxNewListItem->pxNext = pxIndex;
 8005450:	604b      	str	r3, [r1, #4]
	pxNewListItem->pxPrevious = pxIndex->pxPrevious;
 8005452:	689a      	ldr	r2, [r3, #8]
 8005454:	608a      	str	r2, [r1, #8]

	/* Only used during decision coverage testing. */
	mtCOVERAGE_TEST_DELAY();

	pxIndex->pxPrevious->pxNext = pxNewListItem;
 8005456:	689a      	ldr	r2, [r3, #8]
 8005458:	6051      	str	r1, [r2, #4]
	pxIndex->pxPrevious = pxNewListItem;
 800545a:	6099      	str	r1, [r3, #8]

	/* Remember which list the item is in. */
	pxNewListItem->pvContainer = ( void * ) pxList;

	( pxList->uxNumberOfItems )++;
 800545c:	6803      	ldr	r3, [r0, #0]
	pxNewListItem->pvContainer = ( void * ) pxList;
 800545e:	6108      	str	r0, [r1, #16]
	( pxList->uxNumberOfItems )++;
 8005460:	3301      	adds	r3, #1
 8005462:	6003      	str	r3, [r0, #0]
 8005464:	4770      	bx	lr

08005466 <vListInsert>:
/*-----------------------------------------------------------*/

void vListInsert( List_t * const pxList, ListItem_t * const pxNewListItem )
{
ListItem_t *pxIterator;
const TickType_t xValueOfInsertion = pxNewListItem->xItemValue;
 8005466:	680a      	ldr	r2, [r1, #0]
	new list item should be placed after it.  This ensures that TCB's which are
	stored in ready lists (all of which have the same xItemValue value) get a
	share of the CPU.  However, if the xItemValue is the same as the back marker
	the iteration loop below will not end.  Therefore the value is checked
	first, and the algorithm slightly modified if necessary. */
	if( xValueOfInsertion == portMAX_DELAY )
 8005468:	1c53      	adds	r3, r2, #1
{
 800546a:	b530      	push	{r4, r5, lr}
	if( xValueOfInsertion == portMAX_DELAY )
 800546c:	d10a      	bne.n	8005484 <vListInsert+0x1e>
	{
		pxIterator = pxList->xListEnd.pxPrevious;
 800546e:	6903      	ldr	r3, [r0, #16]
			/* There is nothing to do here, just iterating to the wanted
			insertion position. */
		}
	}

	pxNewListItem->pxNext = pxIterator->pxNext;
 8005470:	685a      	ldr	r2, [r3, #4]
 8005472:	604a      	str	r2, [r1, #4]
	pxNewListItem->pxNext->pxPrevious = pxNewListItem;
 8005474:	6091      	str	r1, [r2, #8]
	pxNewListItem->pxPrevious = pxIterator;
 8005476:	608b      	str	r3, [r1, #8]
	pxIterator->pxNext = pxNewListItem;
 8005478:	6059      	str	r1, [r3, #4]

	/* Remember which list the item is in.  This allows fast removal of the
	item later. */
	pxNewListItem->pvContainer = ( void * ) pxList;

	( pxList->uxNumberOfItems )++;
 800547a:	6803      	ldr	r3, [r0, #0]
	pxNewListItem->pvContainer = ( void * ) pxList;
 800547c:	6108      	str	r0, [r1, #16]
	( pxList->uxNumberOfItems )++;
 800547e:	3301      	adds	r3, #1
 8005480:	6003      	str	r3, [r0, #0]
 8005482:	bd30      	pop	{r4, r5, pc}
		for( pxIterator = ( ListItem_t * ) &( pxList->xListEnd ); pxIterator->pxNext->xItemValue <= xValueOfInsertion; pxIterator = pxIterator->pxNext ) /*lint !e826 !e740 The mini list structure is used as the list end to save RAM.  This is checked and valid. */
 8005484:	f100 0308 	add.w	r3, r0, #8
 8005488:	685c      	ldr	r4, [r3, #4]
 800548a:	6825      	ldr	r5, [r4, #0]
 800548c:	42aa      	cmp	r2, r5
 800548e:	d3ef      	bcc.n	8005470 <vListInsert+0xa>
 8005490:	4623      	mov	r3, r4
 8005492:	e7f9      	b.n	8005488 <vListInsert+0x22>

08005494 <uxListRemove>:
{
/* The list item knows which list it is in.  Obtain the list from the list
item. */
List_t * const pxList = ( List_t * ) pxItemToRemove->pvContainer;

	pxItemToRemove->pxNext->pxPrevious = pxItemToRemove->pxPrevious;
 8005494:	6841      	ldr	r1, [r0, #4]
 8005496:	6882      	ldr	r2, [r0, #8]
List_t * const pxList = ( List_t * ) pxItemToRemove->pvContainer;
 8005498:	6903      	ldr	r3, [r0, #16]
	pxItemToRemove->pxNext->pxPrevious = pxItemToRemove->pxPrevious;
 800549a:	608a      	str	r2, [r1, #8]
	pxItemToRemove->pxPrevious->pxNext = pxItemToRemove->pxNext;
 800549c:	6882      	ldr	r2, [r0, #8]
 800549e:	6051      	str	r1, [r2, #4]

	/* Only used during decision coverage testing. */
	mtCOVERAGE_TEST_DELAY();

	/* Make sure the index is left pointing to a valid item. */
	if( pxList->pxIndex == pxItemToRemove )
 80054a0:	6859      	ldr	r1, [r3, #4]
 80054a2:	4288      	cmp	r0, r1
	{
		pxList->pxIndex = pxItemToRemove->pxPrevious;
 80054a4:	bf08      	it	eq
 80054a6:	605a      	streq	r2, [r3, #4]
	else
	{
		mtCOVERAGE_TEST_MARKER();
	}

	pxItemToRemove->pvContainer = NULL;
 80054a8:	2200      	movs	r2, #0
 80054aa:	6102      	str	r2, [r0, #16]
	( pxList->uxNumberOfItems )--;
 80054ac:	6818      	ldr	r0, [r3, #0]
 80054ae:	3801      	subs	r0, #1
 80054b0:	6018      	str	r0, [r3, #0]

	return pxList->uxNumberOfItems;
}
 80054b2:	4770      	bx	lr

080054b4 <prvInsertBlockIntoFreeList>:
	xBlockAllocatedBit = ( ( size_t ) 1 ) << ( ( sizeof( size_t ) * heapBITS_PER_BYTE ) - 1 );
}
/*-----------------------------------------------------------*/

static void prvInsertBlockIntoFreeList( BlockLink_t *pxBlockToInsert )
{
 80054b4:	b510      	push	{r4, lr}
BlockLink_t *pxIterator;
uint8_t *puc;

	/* Iterate through the list until a block is found that has a higher address
	than the block being inserted. */
	for( pxIterator = &xStart; pxIterator->pxNextFreeBlock < pxBlockToInsert; pxIterator = pxIterator->pxNextFreeBlock )
 80054b6:	4b0f      	ldr	r3, [pc, #60]	; (80054f4 <prvInsertBlockIntoFreeList+0x40>)
 80054b8:	681a      	ldr	r2, [r3, #0]
 80054ba:	4282      	cmp	r2, r0
 80054bc:	d318      	bcc.n	80054f0 <prvInsertBlockIntoFreeList+0x3c>
	}

	/* Do the block being inserted, and the block it is being inserted after
	make a contiguous block of memory? */
	puc = ( uint8_t * ) pxIterator;
	if( ( puc + pxIterator->xBlockSize ) == ( uint8_t * ) pxBlockToInsert )
 80054be:	685c      	ldr	r4, [r3, #4]
 80054c0:	1919      	adds	r1, r3, r4
 80054c2:	4288      	cmp	r0, r1
	{
		pxIterator->xBlockSize += pxBlockToInsert->xBlockSize;
 80054c4:	bf01      	itttt	eq
 80054c6:	6841      	ldreq	r1, [r0, #4]
 80054c8:	4618      	moveq	r0, r3
 80054ca:	1909      	addeq	r1, r1, r4
 80054cc:	6059      	streq	r1, [r3, #4]
	}

	/* Do the block being inserted, and the block it is being inserted before
	make a contiguous block of memory? */
	puc = ( uint8_t * ) pxBlockToInsert;
	if( ( puc + pxBlockToInsert->xBlockSize ) == ( uint8_t * ) pxIterator->pxNextFreeBlock )
 80054ce:	6844      	ldr	r4, [r0, #4]
 80054d0:	1901      	adds	r1, r0, r4
 80054d2:	428a      	cmp	r2, r1
 80054d4:	d107      	bne.n	80054e6 <prvInsertBlockIntoFreeList+0x32>
	{
		if( pxIterator->pxNextFreeBlock != pxEnd )
 80054d6:	4908      	ldr	r1, [pc, #32]	; (80054f8 <prvInsertBlockIntoFreeList+0x44>)
 80054d8:	6809      	ldr	r1, [r1, #0]
 80054da:	428a      	cmp	r2, r1
		{
			/* Form one big block from the two blocks. */
			pxBlockToInsert->xBlockSize += pxIterator->pxNextFreeBlock->xBlockSize;
 80054dc:	bf1f      	itttt	ne
 80054de:	6851      	ldrne	r1, [r2, #4]
			pxBlockToInsert->pxNextFreeBlock = pxIterator->pxNextFreeBlock->pxNextFreeBlock;
 80054e0:	6812      	ldrne	r2, [r2, #0]
			pxBlockToInsert->xBlockSize += pxIterator->pxNextFreeBlock->xBlockSize;
 80054e2:	1909      	addne	r1, r1, r4
 80054e4:	6041      	strne	r1, [r0, #4]

	/* If the block being inserted plugged a gab, so was merged with the block
	before and the block after, then it's pxNextFreeBlock pointer will have
	already been set, and should not be set here as that would make it point
	to itself. */
	if( pxIterator != pxBlockToInsert )
 80054e6:	4298      	cmp	r0, r3
		pxBlockToInsert->pxNextFreeBlock = pxIterator->pxNextFreeBlock;
 80054e8:	6002      	str	r2, [r0, #0]
	{
		pxIterator->pxNextFreeBlock = pxBlockToInsert;
 80054ea:	bf18      	it	ne
 80054ec:	6018      	strne	r0, [r3, #0]
 80054ee:	bd10      	pop	{r4, pc}
 80054f0:	4613      	mov	r3, r2
 80054f2:	e7e1      	b.n	80054b8 <prvInsertBlockIntoFreeList+0x4>
 80054f4:	20010f24 	.word	0x20010f24
 80054f8:	20000f14 	.word	0x20000f14

080054fc <pvPortMalloc>:
{
 80054fc:	e92d 41f0 	stmdb	sp!, {r4, r5, r6, r7, r8, lr}
 8005500:	4604      	mov	r4, r0
	vTaskSuspendAll();
 8005502:	f000 fedb 	bl	80062bc <vTaskSuspendAll>
		if( pxEnd == NULL )
 8005506:	493e      	ldr	r1, [pc, #248]	; (8005600 <pvPortMalloc+0x104>)
 8005508:	4d3e      	ldr	r5, [pc, #248]	; (8005604 <pvPortMalloc+0x108>)
 800550a:	680b      	ldr	r3, [r1, #0]
 800550c:	bb0b      	cbnz	r3, 8005552 <pvPortMalloc+0x56>
	uxAddress = ( size_t ) ucHeap;
 800550e:	4a3e      	ldr	r2, [pc, #248]	; (8005608 <pvPortMalloc+0x10c>)
	if( ( uxAddress & portBYTE_ALIGNMENT_MASK ) != 0 )
 8005510:	0756      	lsls	r6, r2, #29
		uxAddress += ( portBYTE_ALIGNMENT - 1 );
 8005512:	bf1f      	itttt	ne
 8005514:	1dd0      	addne	r0, r2, #7
		uxAddress &= ~( ( size_t ) portBYTE_ALIGNMENT_MASK );
 8005516:	f020 0007 	bicne.w	r0, r0, #7
		xTotalHeapSize -= uxAddress - ( size_t ) ucHeap;
 800551a:	f502 3380 	addne.w	r3, r2, #65536	; 0x10000
 800551e:	1a1b      	subne	r3, r3, r0
		uxAddress &= ~( ( size_t ) portBYTE_ALIGNMENT_MASK );
 8005520:	bf14      	ite	ne
 8005522:	4602      	movne	r2, r0
size_t xTotalHeapSize = configTOTAL_HEAP_SIZE;
 8005524:	f44f 3380 	moveq.w	r3, #65536	; 0x10000
	uxAddress = ( ( size_t ) pucAlignedHeap ) + xTotalHeapSize;
 8005528:	4413      	add	r3, r2
	uxAddress -= xHeapStructSize;
 800552a:	3b08      	subs	r3, #8
	uxAddress &= ~( ( size_t ) portBYTE_ALIGNMENT_MASK );
 800552c:	f023 0307 	bic.w	r3, r3, #7
	xStart.pxNextFreeBlock = ( void * ) pucAlignedHeap;
 8005530:	4e36      	ldr	r6, [pc, #216]	; (800560c <pvPortMalloc+0x110>)
	pxEnd = ( void * ) uxAddress;
 8005532:	600b      	str	r3, [r1, #0]
	xStart.xBlockSize = ( size_t ) 0;
 8005534:	2000      	movs	r0, #0
 8005536:	6070      	str	r0, [r6, #4]
	xStart.pxNextFreeBlock = ( void * ) pucAlignedHeap;
 8005538:	6032      	str	r2, [r6, #0]
	pxEnd->xBlockSize = 0;
 800553a:	6058      	str	r0, [r3, #4]
	pxEnd->pxNextFreeBlock = NULL;
 800553c:	6018      	str	r0, [r3, #0]
	pxFirstFreeBlock->xBlockSize = uxAddress - ( size_t ) pxFirstFreeBlock;
 800553e:	1a98      	subs	r0, r3, r2
	pxFirstFreeBlock->pxNextFreeBlock = pxEnd;
 8005540:	6013      	str	r3, [r2, #0]
	xMinimumEverFreeBytesRemaining = pxFirstFreeBlock->xBlockSize;
 8005542:	4b33      	ldr	r3, [pc, #204]	; (8005610 <pvPortMalloc+0x114>)
	pxFirstFreeBlock->xBlockSize = uxAddress - ( size_t ) pxFirstFreeBlock;
 8005544:	6050      	str	r0, [r2, #4]
	xMinimumEverFreeBytesRemaining = pxFirstFreeBlock->xBlockSize;
 8005546:	6018      	str	r0, [r3, #0]
	xFreeBytesRemaining = pxFirstFreeBlock->xBlockSize;
 8005548:	4b32      	ldr	r3, [pc, #200]	; (8005614 <pvPortMalloc+0x118>)
 800554a:	6018      	str	r0, [r3, #0]
	xBlockAllocatedBit = ( ( size_t ) 1 ) << ( ( sizeof( size_t ) * heapBITS_PER_BYTE ) - 1 );
 800554c:	f04f 4300 	mov.w	r3, #2147483648	; 0x80000000
 8005550:	602b      	str	r3, [r5, #0]
		if( ( xWantedSize & xBlockAllocatedBit ) == 0 )
 8005552:	682f      	ldr	r7, [r5, #0]
 8005554:	4227      	tst	r7, r4
 8005556:	d116      	bne.n	8005586 <pvPortMalloc+0x8a>
			if( xWantedSize > 0 )
 8005558:	2c00      	cmp	r4, #0
 800555a:	d041      	beq.n	80055e0 <pvPortMalloc+0xe4>
				xWantedSize += xHeapStructSize;
 800555c:	f104 0308 	add.w	r3, r4, #8
				if( ( xWantedSize & portBYTE_ALIGNMENT_MASK ) != 0x00 )
 8005560:	0758      	lsls	r0, r3, #29
					xWantedSize += ( portBYTE_ALIGNMENT - ( xWantedSize & portBYTE_ALIGNMENT_MASK ) );
 8005562:	bf1c      	itt	ne
 8005564:	f023 0307 	bicne.w	r3, r3, #7
 8005568:	3308      	addne	r3, #8
			if( ( xWantedSize > 0 ) && ( xWantedSize <= xFreeBytesRemaining ) )
 800556a:	b163      	cbz	r3, 8005586 <pvPortMalloc+0x8a>
 800556c:	4a29      	ldr	r2, [pc, #164]	; (8005614 <pvPortMalloc+0x118>)
 800556e:	6816      	ldr	r6, [r2, #0]
 8005570:	42b3      	cmp	r3, r6
 8005572:	4690      	mov	r8, r2
 8005574:	d807      	bhi.n	8005586 <pvPortMalloc+0x8a>
				pxBlock = xStart.pxNextFreeBlock;
 8005576:	4a25      	ldr	r2, [pc, #148]	; (800560c <pvPortMalloc+0x110>)
 8005578:	6815      	ldr	r5, [r2, #0]
				while( ( pxBlock->xBlockSize < xWantedSize ) && ( pxBlock->pxNextFreeBlock != NULL ) )
 800557a:	6868      	ldr	r0, [r5, #4]
 800557c:	4283      	cmp	r3, r0
 800557e:	d804      	bhi.n	800558a <pvPortMalloc+0x8e>
				if( pxBlock != pxEnd )
 8005580:	6809      	ldr	r1, [r1, #0]
 8005582:	428d      	cmp	r5, r1
 8005584:	d107      	bne.n	8005596 <pvPortMalloc+0x9a>
void *pvReturn = NULL;
 8005586:	2400      	movs	r4, #0
 8005588:	e02a      	b.n	80055e0 <pvPortMalloc+0xe4>
				while( ( pxBlock->xBlockSize < xWantedSize ) && ( pxBlock->pxNextFreeBlock != NULL ) )
 800558a:	682c      	ldr	r4, [r5, #0]
 800558c:	2c00      	cmp	r4, #0
 800558e:	d0f7      	beq.n	8005580 <pvPortMalloc+0x84>
 8005590:	462a      	mov	r2, r5
 8005592:	4625      	mov	r5, r4
 8005594:	e7f1      	b.n	800557a <pvPortMalloc+0x7e>
					pxPreviousBlock->pxNextFreeBlock = pxBlock->pxNextFreeBlock;
 8005596:	6829      	ldr	r1, [r5, #0]
					pvReturn = ( void * ) ( ( ( uint8_t * ) pxPreviousBlock->pxNextFreeBlock ) + xHeapStructSize );
 8005598:	6814      	ldr	r4, [r2, #0]
					pxPreviousBlock->pxNextFreeBlock = pxBlock->pxNextFreeBlock;
 800559a:	6011      	str	r1, [r2, #0]
					if( ( pxBlock->xBlockSize - xWantedSize ) > heapMINIMUM_BLOCK_SIZE )
 800559c:	1ac2      	subs	r2, r0, r3
 800559e:	2a10      	cmp	r2, #16
 80055a0:	d90f      	bls.n	80055c2 <pvPortMalloc+0xc6>
						pxNewBlockLink = ( void * ) ( ( ( uint8_t * ) pxBlock ) + xWantedSize );
 80055a2:	18e8      	adds	r0, r5, r3
						configASSERT( ( ( ( size_t ) pxNewBlockLink ) & portBYTE_ALIGNMENT_MASK ) == 0 );
 80055a4:	0741      	lsls	r1, r0, #29
 80055a6:	d008      	beq.n	80055ba <pvPortMalloc+0xbe>

portFORCE_INLINE static void vPortRaiseBASEPRI( void )
{
uint32_t ulNewBASEPRI;

	__asm volatile
 80055a8:	f04f 0350 	mov.w	r3, #80	; 0x50
 80055ac:	f383 8811 	msr	BASEPRI, r3
 80055b0:	f3bf 8f6f 	isb	sy
 80055b4:	f3bf 8f4f 	dsb	sy
 80055b8:	e7fe      	b.n	80055b8 <pvPortMalloc+0xbc>
						pxNewBlockLink->xBlockSize = pxBlock->xBlockSize - xWantedSize;
 80055ba:	6042      	str	r2, [r0, #4]
						pxBlock->xBlockSize = xWantedSize;
 80055bc:	606b      	str	r3, [r5, #4]
						prvInsertBlockIntoFreeList( pxNewBlockLink );
 80055be:	f7ff ff79 	bl	80054b4 <prvInsertBlockIntoFreeList>
					if( xFreeBytesRemaining < xMinimumEverFreeBytesRemaining )
 80055c2:	4913      	ldr	r1, [pc, #76]	; (8005610 <pvPortMalloc+0x114>)
					xFreeBytesRemaining -= pxBlock->xBlockSize;
 80055c4:	686b      	ldr	r3, [r5, #4]
					if( xFreeBytesRemaining < xMinimumEverFreeBytesRemaining )
 80055c6:	6808      	ldr	r0, [r1, #0]
					xFreeBytesRemaining -= pxBlock->xBlockSize;
 80055c8:	1af6      	subs	r6, r6, r3
					pxBlock->xBlockSize |= xBlockAllocatedBit;
 80055ca:	431f      	orrs	r7, r3
					if( xFreeBytesRemaining < xMinimumEverFreeBytesRemaining )
 80055cc:	4286      	cmp	r6, r0
					pxBlock->pxNextFreeBlock = NULL;
 80055ce:	f04f 0300 	mov.w	r3, #0
					xFreeBytesRemaining -= pxBlock->xBlockSize;
 80055d2:	f8c8 6000 	str.w	r6, [r8]
						xMinimumEverFreeBytesRemaining = xFreeBytesRemaining;
 80055d6:	bf38      	it	cc
 80055d8:	600e      	strcc	r6, [r1, #0]
					pvReturn = ( void * ) ( ( ( uint8_t * ) pxPreviousBlock->pxNextFreeBlock ) + xHeapStructSize );
 80055da:	3408      	adds	r4, #8
					pxBlock->xBlockSize |= xBlockAllocatedBit;
 80055dc:	606f      	str	r7, [r5, #4]
					pxBlock->pxNextFreeBlock = NULL;
 80055de:	602b      	str	r3, [r5, #0]
	( void ) xTaskResumeAll();
 80055e0:	f000 fe7a 	bl	80062d8 <xTaskResumeAll>
	configASSERT( ( ( ( size_t ) pvReturn ) & ( size_t ) portBYTE_ALIGNMENT_MASK ) == 0 );
 80055e4:	0763      	lsls	r3, r4, #29
 80055e6:	d008      	beq.n	80055fa <pvPortMalloc+0xfe>
 80055e8:	f04f 0350 	mov.w	r3, #80	; 0x50
 80055ec:	f383 8811 	msr	BASEPRI, r3
 80055f0:	f3bf 8f6f 	isb	sy
 80055f4:	f3bf 8f4f 	dsb	sy
 80055f8:	e7fe      	b.n	80055f8 <pvPortMalloc+0xfc>
}
 80055fa:	4620      	mov	r0, r4
 80055fc:	e8bd 81f0 	ldmia.w	sp!, {r4, r5, r6, r7, r8, pc}
 8005600:	20000f14 	.word	0x20000f14
 8005604:	20010f18 	.word	0x20010f18
 8005608:	20000f18 	.word	0x20000f18
 800560c:	20010f24 	.word	0x20010f24
 8005610:	20010f20 	.word	0x20010f20
 8005614:	20010f1c 	.word	0x20010f1c

08005618 <vPortFree>:
{
 8005618:	b510      	push	{r4, lr}
	if( pv != NULL )
 800561a:	4604      	mov	r4, r0
 800561c:	b370      	cbz	r0, 800567c <vPortFree+0x64>
		configASSERT( ( pxLink->xBlockSize & xBlockAllocatedBit ) != 0 );
 800561e:	4a18      	ldr	r2, [pc, #96]	; (8005680 <vPortFree+0x68>)
 8005620:	f850 3c04 	ldr.w	r3, [r0, #-4]
 8005624:	6812      	ldr	r2, [r2, #0]
 8005626:	4213      	tst	r3, r2
 8005628:	d108      	bne.n	800563c <vPortFree+0x24>
 800562a:	f04f 0350 	mov.w	r3, #80	; 0x50
 800562e:	f383 8811 	msr	BASEPRI, r3
 8005632:	f3bf 8f6f 	isb	sy
 8005636:	f3bf 8f4f 	dsb	sy
 800563a:	e7fe      	b.n	800563a <vPortFree+0x22>
		configASSERT( pxLink->pxNextFreeBlock == NULL );
 800563c:	f850 1c08 	ldr.w	r1, [r0, #-8]
 8005640:	b141      	cbz	r1, 8005654 <vPortFree+0x3c>
 8005642:	f04f 0350 	mov.w	r3, #80	; 0x50
 8005646:	f383 8811 	msr	BASEPRI, r3
 800564a:	f3bf 8f6f 	isb	sy
 800564e:	f3bf 8f4f 	dsb	sy
 8005652:	e7fe      	b.n	8005652 <vPortFree+0x3a>
				pxLink->xBlockSize &= ~xBlockAllocatedBit;
 8005654:	ea23 0302 	bic.w	r3, r3, r2
 8005658:	f840 3c04 	str.w	r3, [r0, #-4]
				vTaskSuspendAll();
 800565c:	f000 fe2e 	bl	80062bc <vTaskSuspendAll>
					xFreeBytesRemaining += pxLink->xBlockSize;
 8005660:	4a08      	ldr	r2, [pc, #32]	; (8005684 <vPortFree+0x6c>)
 8005662:	f854 3c04 	ldr.w	r3, [r4, #-4]
 8005666:	6811      	ldr	r1, [r2, #0]
					prvInsertBlockIntoFreeList( ( ( BlockLink_t * ) pxLink ) );
 8005668:	f1a4 0008 	sub.w	r0, r4, #8
					xFreeBytesRemaining += pxLink->xBlockSize;
 800566c:	440b      	add	r3, r1
 800566e:	6013      	str	r3, [r2, #0]
					prvInsertBlockIntoFreeList( ( ( BlockLink_t * ) pxLink ) );
 8005670:	f7ff ff20 	bl	80054b4 <prvInsertBlockIntoFreeList>
}
 8005674:	e8bd 4010 	ldmia.w	sp!, {r4, lr}
				( void ) xTaskResumeAll();
 8005678:	f000 be2e 	b.w	80062d8 <xTaskResumeAll>
 800567c:	bd10      	pop	{r4, pc}
 800567e:	bf00      	nop
 8005680:	20010f18 	.word	0x20010f18
 8005684:	20010f1c 	.word	0x20010f1c

08005688 <prvTaskExitError>:
	its caller as there is nothing to return to.  If a task wants to exit it
	should instead call vTaskDelete( NULL ).

	Artificially force an assert() to be triggered if configASSERT() is
	defined, then stop here so application writers can catch the error. */
	configASSERT( uxCriticalNesting == ~0UL );
 8005688:	4b0a      	ldr	r3, [pc, #40]	; (80056b4 <prvTaskExitError+0x2c>)
 800568a:	681b      	ldr	r3, [r3, #0]
 800568c:	3301      	adds	r3, #1
 800568e:	d008      	beq.n	80056a2 <prvTaskExitError+0x1a>
 8005690:	f04f 0350 	mov.w	r3, #80	; 0x50
 8005694:	f383 8811 	msr	BASEPRI, r3
 8005698:	f3bf 8f6f 	isb	sy
 800569c:	f3bf 8f4f 	dsb	sy
 80056a0:	e7fe      	b.n	80056a0 <prvTaskExitError+0x18>
 80056a2:	f04f 0350 	mov.w	r3, #80	; 0x50
 80056a6:	f383 8811 	msr	BASEPRI, r3
 80056aa:	f3bf 8f6f 	isb	sy
 80056ae:	f3bf 8f4f 	dsb	sy
 80056b2:	e7fe      	b.n	80056b2 <prvTaskExitError+0x2a>
 80056b4:	2000015c 	.word	0x2000015c

080056b8 <prvPortStartFirstTask>:
}
/*-----------------------------------------------------------*/

static void prvPortStartFirstTask( void )
{
	__asm volatile(
 80056b8:	4806      	ldr	r0, [pc, #24]	; (80056d4 <prvPortStartFirstTask+0x1c>)
 80056ba:	6800      	ldr	r0, [r0, #0]
 80056bc:	6800      	ldr	r0, [r0, #0]
 80056be:	f380 8808 	msr	MSP, r0
 80056c2:	b662      	cpsie	i
 80056c4:	b661      	cpsie	f
 80056c6:	f3bf 8f4f 	dsb	sy
 80056ca:	f3bf 8f6f 	isb	sy
 80056ce:	df00      	svc	0
 80056d0:	bf00      	nop
 80056d2:	0000      	.short	0x0000
 80056d4:	e000ed08 	.word	0xe000ed08

080056d8 <vPortEnableVFP>:
/*-----------------------------------------------------------*/

/* This is a naked function. */
static void vPortEnableVFP( void )
{
	__asm volatile
 80056d8:	f8df 000c 	ldr.w	r0, [pc, #12]	; 80056e8 <vPortEnableVFP+0x10>
 80056dc:	6801      	ldr	r1, [r0, #0]
 80056de:	f441 0170 	orr.w	r1, r1, #15728640	; 0xf00000
 80056e2:	6001      	str	r1, [r0, #0]
 80056e4:	4770      	bx	lr
 80056e6:	0000      	.short	0x0000
 80056e8:	e000ed88 	.word	0xe000ed88

080056ec <pxPortInitialiseStack>:
	*pxTopOfStack = portINITIAL_XPSR;	/* xPSR */
 80056ec:	f04f 7380 	mov.w	r3, #16777216	; 0x1000000
 80056f0:	f840 3c04 	str.w	r3, [r0, #-4]
	*pxTopOfStack = ( StackType_t ) portTASK_RETURN_ADDRESS;	/* LR */
 80056f4:	4b07      	ldr	r3, [pc, #28]	; (8005714 <pxPortInitialiseStack+0x28>)
 80056f6:	f840 3c0c 	str.w	r3, [r0, #-12]
	*pxTopOfStack = ( ( StackType_t ) pxCode ) & portSTART_ADDRESS_MASK;	/* PC */
 80056fa:	f021 0101 	bic.w	r1, r1, #1
	*pxTopOfStack = portINITIAL_EXEC_RETURN;
 80056fe:	f06f 0302 	mvn.w	r3, #2
	*pxTopOfStack = ( ( StackType_t ) pxCode ) & portSTART_ADDRESS_MASK;	/* PC */
 8005702:	f840 1c08 	str.w	r1, [r0, #-8]
	*pxTopOfStack = ( StackType_t ) pvParameters;	/* R0 */
 8005706:	f840 2c20 	str.w	r2, [r0, #-32]
	*pxTopOfStack = portINITIAL_EXEC_RETURN;
 800570a:	f840 3c24 	str.w	r3, [r0, #-36]
}
 800570e:	3844      	subs	r0, #68	; 0x44
 8005710:	4770      	bx	lr
 8005712:	bf00      	nop
 8005714:	08005689 	.word	0x08005689
	...

08005720 <SVC_Handler>:
	__asm volatile (
 8005720:	4b07      	ldr	r3, [pc, #28]	; (8005740 <pxCurrentTCBConst2>)
 8005722:	6819      	ldr	r1, [r3, #0]
 8005724:	6808      	ldr	r0, [r1, #0]
 8005726:	e8b0 4ff0 	ldmia.w	r0!, {r4, r5, r6, r7, r8, r9, sl, fp, lr}
 800572a:	f380 8809 	msr	PSP, r0
 800572e:	f3bf 8f6f 	isb	sy
 8005732:	f04f 0000 	mov.w	r0, #0
 8005736:	f380 8811 	msr	BASEPRI, r0
 800573a:	4770      	bx	lr
 800573c:	f3af 8000 	nop.w

08005740 <pxCurrentTCBConst2>:
 8005740:	20010f34 	.word	0x20010f34

08005744 <vPortEnterCritical>:
 8005744:	f04f 0350 	mov.w	r3, #80	; 0x50
 8005748:	f383 8811 	msr	BASEPRI, r3
 800574c:	f3bf 8f6f 	isb	sy
 8005750:	f3bf 8f4f 	dsb	sy
	uxCriticalNesting++;
 8005754:	4a0a      	ldr	r2, [pc, #40]	; (8005780 <vPortEnterCritical+0x3c>)
 8005756:	6813      	ldr	r3, [r2, #0]
 8005758:	3301      	adds	r3, #1
	if( uxCriticalNesting == 1 )
 800575a:	2b01      	cmp	r3, #1
	uxCriticalNesting++;
 800575c:	6013      	str	r3, [r2, #0]
	if( uxCriticalNesting == 1 )
 800575e:	d10d      	bne.n	800577c <vPortEnterCritical+0x38>
		configASSERT( ( portNVIC_INT_CTRL_REG & portVECTACTIVE_MASK ) == 0 );
 8005760:	4b08      	ldr	r3, [pc, #32]	; (8005784 <vPortEnterCritical+0x40>)
 8005762:	681b      	ldr	r3, [r3, #0]
 8005764:	f013 0fff 	tst.w	r3, #255	; 0xff
 8005768:	d008      	beq.n	800577c <vPortEnterCritical+0x38>
 800576a:	f04f 0350 	mov.w	r3, #80	; 0x50
 800576e:	f383 8811 	msr	BASEPRI, r3
 8005772:	f3bf 8f6f 	isb	sy
 8005776:	f3bf 8f4f 	dsb	sy
 800577a:	e7fe      	b.n	800577a <vPortEnterCritical+0x36>
 800577c:	4770      	bx	lr
 800577e:	bf00      	nop
 8005780:	2000015c 	.word	0x2000015c
 8005784:	e000ed04 	.word	0xe000ed04

08005788 <vPortExitCritical>:
	configASSERT( uxCriticalNesting );
 8005788:	4a08      	ldr	r2, [pc, #32]	; (80057ac <vPortExitCritical+0x24>)
 800578a:	6813      	ldr	r3, [r2, #0]
 800578c:	b943      	cbnz	r3, 80057a0 <vPortExitCritical+0x18>
 800578e:	f04f 0350 	mov.w	r3, #80	; 0x50
 8005792:	f383 8811 	msr	BASEPRI, r3
 8005796:	f3bf 8f6f 	isb	sy
 800579a:	f3bf 8f4f 	dsb	sy
 800579e:	e7fe      	b.n	800579e <vPortExitCritical+0x16>
	uxCriticalNesting--;
 80057a0:	3b01      	subs	r3, #1
 80057a2:	6013      	str	r3, [r2, #0]
	if( uxCriticalNesting == 0 )
 80057a4:	b90b      	cbnz	r3, 80057aa <vPortExitCritical+0x22>
}
/*-----------------------------------------------------------*/

portFORCE_INLINE static void vPortSetBASEPRI( uint32_t ulNewMaskValue )
{
	__asm volatile
 80057a6:	f383 8811 	msr	BASEPRI, r3
 80057aa:	4770      	bx	lr
 80057ac:	2000015c 	.word	0x2000015c

080057b0 <PendSV_Handler>:
	__asm volatile
 80057b0:	f3ef 8009 	mrs	r0, PSP
 80057b4:	f3bf 8f6f 	isb	sy
 80057b8:	4b15      	ldr	r3, [pc, #84]	; (8005810 <pxCurrentTCBConst>)
 80057ba:	681a      	ldr	r2, [r3, #0]
 80057bc:	f01e 0f10 	tst.w	lr, #16
 80057c0:	bf08      	it	eq
 80057c2:	ed20 8a10 	vstmdbeq	r0!, {s16-s31}
 80057c6:	e920 4ff0 	stmdb	r0!, {r4, r5, r6, r7, r8, r9, sl, fp, lr}
 80057ca:	6010      	str	r0, [r2, #0]
 80057cc:	f84d 3d04 	str.w	r3, [sp, #-4]!
 80057d0:	f04f 0050 	mov.w	r0, #80	; 0x50
 80057d4:	f380 8811 	msr	BASEPRI, r0
 80057d8:	f3bf 8f4f 	dsb	sy
 80057dc:	f3bf 8f6f 	isb	sy
 80057e0:	f000 fed2 	bl	8006588 <vTaskSwitchContext>
 80057e4:	f04f 0000 	mov.w	r0, #0
 80057e8:	f380 8811 	msr	BASEPRI, r0
 80057ec:	bc08      	pop	{r3}
 80057ee:	6819      	ldr	r1, [r3, #0]
 80057f0:	6808      	ldr	r0, [r1, #0]
 80057f2:	e8b0 4ff0 	ldmia.w	r0!, {r4, r5, r6, r7, r8, r9, sl, fp, lr}
 80057f6:	f01e 0f10 	tst.w	lr, #16
 80057fa:	bf08      	it	eq
 80057fc:	ecb0 8a10 	vldmiaeq	r0!, {s16-s31}
 8005800:	f380 8809 	msr	PSP, r0
 8005804:	f3bf 8f6f 	isb	sy
 8005808:	4770      	bx	lr
 800580a:	bf00      	nop
 800580c:	f3af 8000 	nop.w

08005810 <pxCurrentTCBConst>:
 8005810:	20010f34 	.word	0x20010f34

08005814 <xPortSysTickHandler>:
{
 8005814:	b508      	push	{r3, lr}
	__asm volatile
 8005816:	f04f 0350 	mov.w	r3, #80	; 0x50
 800581a:	f383 8811 	msr	BASEPRI, r3
 800581e:	f3bf 8f6f 	isb	sy
 8005822:	f3bf 8f4f 	dsb	sy
		if( xTaskIncrementTick() != pdFALSE )
 8005826:	f000 fdf3 	bl	8006410 <xTaskIncrementTick>
 800582a:	b118      	cbz	r0, 8005834 <xPortSysTickHandler+0x20>
			portNVIC_INT_CTRL_REG = portNVIC_PENDSVSET_BIT;
 800582c:	4b03      	ldr	r3, [pc, #12]	; (800583c <xPortSysTickHandler+0x28>)
 800582e:	f04f 5280 	mov.w	r2, #268435456	; 0x10000000
 8005832:	601a      	str	r2, [r3, #0]
	__asm volatile
 8005834:	2300      	movs	r3, #0
 8005836:	f383 8811 	msr	BASEPRI, r3
 800583a:	bd08      	pop	{r3, pc}
 800583c:	e000ed04 	.word	0xe000ed04

08005840 <vPortSetupTimerInterrupt>:
	portNVIC_SYSTICK_LOAD_REG = ( configSYSTICK_CLOCK_HZ / configTICK_RATE_HZ ) - 1UL;
 8005840:	4b06      	ldr	r3, [pc, #24]	; (800585c <vPortSetupTimerInterrupt+0x1c>)
 8005842:	f44f 727a 	mov.w	r2, #1000	; 0x3e8
 8005846:	681b      	ldr	r3, [r3, #0]
 8005848:	fbb3 f3f2 	udiv	r3, r3, r2
 800584c:	4a04      	ldr	r2, [pc, #16]	; (8005860 <vPortSetupTimerInterrupt+0x20>)
 800584e:	3b01      	subs	r3, #1
 8005850:	6013      	str	r3, [r2, #0]
	portNVIC_SYSTICK_CTRL_REG = ( portNVIC_SYSTICK_CLK_BIT | portNVIC_SYSTICK_INT_BIT | portNVIC_SYSTICK_ENABLE_BIT );
 8005852:	4b04      	ldr	r3, [pc, #16]	; (8005864 <vPortSetupTimerInterrupt+0x24>)
 8005854:	2207      	movs	r2, #7
 8005856:	601a      	str	r2, [r3, #0]
 8005858:	4770      	bx	lr
 800585a:	bf00      	nop
 800585c:	20000000 	.word	0x20000000
 8005860:	e000e014 	.word	0xe000e014
 8005864:	e000e010 	.word	0xe000e010

08005868 <xPortStartScheduler>:
	configASSERT( portCPUID != portCORTEX_M7_r0p1_ID );
 8005868:	4b31      	ldr	r3, [pc, #196]	; (8005930 <xPortStartScheduler+0xc8>)
 800586a:	4a32      	ldr	r2, [pc, #200]	; (8005934 <xPortStartScheduler+0xcc>)
{
 800586c:	b513      	push	{r0, r1, r4, lr}
	configASSERT( portCPUID != portCORTEX_M7_r0p1_ID );
 800586e:	6819      	ldr	r1, [r3, #0]
 8005870:	4291      	cmp	r1, r2
 8005872:	d108      	bne.n	8005886 <xPortStartScheduler+0x1e>
	__asm volatile
 8005874:	f04f 0350 	mov.w	r3, #80	; 0x50
 8005878:	f383 8811 	msr	BASEPRI, r3
 800587c:	f3bf 8f6f 	isb	sy
 8005880:	f3bf 8f4f 	dsb	sy
 8005884:	e7fe      	b.n	8005884 <xPortStartScheduler+0x1c>
	configASSERT( portCPUID != portCORTEX_M7_r0p0_ID );
 8005886:	681a      	ldr	r2, [r3, #0]
 8005888:	4b2b      	ldr	r3, [pc, #172]	; (8005938 <xPortStartScheduler+0xd0>)
 800588a:	429a      	cmp	r2, r3
 800588c:	d108      	bne.n	80058a0 <xPortStartScheduler+0x38>
 800588e:	f04f 0350 	mov.w	r3, #80	; 0x50
 8005892:	f383 8811 	msr	BASEPRI, r3
 8005896:	f3bf 8f6f 	isb	sy
 800589a:	f3bf 8f4f 	dsb	sy
 800589e:	e7fe      	b.n	800589e <xPortStartScheduler+0x36>
		ulOriginalPriority = *pucFirstUserPriorityRegister;
 80058a0:	4b26      	ldr	r3, [pc, #152]	; (800593c <xPortStartScheduler+0xd4>)
 80058a2:	781a      	ldrb	r2, [r3, #0]
 80058a4:	b2d2      	uxtb	r2, r2
 80058a6:	9201      	str	r2, [sp, #4]
		*pucFirstUserPriorityRegister = portMAX_8_BIT_VALUE;
 80058a8:	22ff      	movs	r2, #255	; 0xff
 80058aa:	701a      	strb	r2, [r3, #0]
		ucMaxPriorityValue = *pucFirstUserPriorityRegister;
 80058ac:	781b      	ldrb	r3, [r3, #0]
		ucMaxSysCallPriority = configMAX_SYSCALL_INTERRUPT_PRIORITY & ucMaxPriorityValue;
 80058ae:	4a24      	ldr	r2, [pc, #144]	; (8005940 <xPortStartScheduler+0xd8>)
		ucMaxPriorityValue = *pucFirstUserPriorityRegister;
 80058b0:	b2db      	uxtb	r3, r3
 80058b2:	f88d 3003 	strb.w	r3, [sp, #3]
		ucMaxSysCallPriority = configMAX_SYSCALL_INTERRUPT_PRIORITY & ucMaxPriorityValue;
 80058b6:	f89d 3003 	ldrb.w	r3, [sp, #3]
 80058ba:	f003 0350 	and.w	r3, r3, #80	; 0x50
 80058be:	7013      	strb	r3, [r2, #0]
		ulMaxPRIGROUPValue = portMAX_PRIGROUP_BITS;
 80058c0:	4b20      	ldr	r3, [pc, #128]	; (8005944 <xPortStartScheduler+0xdc>)
 80058c2:	2207      	movs	r2, #7
 80058c4:	601a      	str	r2, [r3, #0]
		while( ( ucMaxPriorityValue & portTOP_BIT_OF_BYTE ) == portTOP_BIT_OF_BYTE )
 80058c6:	2100      	movs	r1, #0
 80058c8:	f89d 0003 	ldrb.w	r0, [sp, #3]
 80058cc:	0600      	lsls	r0, r0, #24
 80058ce:	f102 34ff 	add.w	r4, r2, #4294967295
 80058d2:	d423      	bmi.n	800591c <xPortStartScheduler+0xb4>
 80058d4:	b101      	cbz	r1, 80058d8 <xPortStartScheduler+0x70>
 80058d6:	601a      	str	r2, [r3, #0]
		ulMaxPRIGROUPValue <<= portPRIGROUP_SHIFT;
 80058d8:	681a      	ldr	r2, [r3, #0]
 80058da:	0212      	lsls	r2, r2, #8
		ulMaxPRIGROUPValue &= portPRIORITY_GROUP_MASK;
 80058dc:	f402 62e0 	and.w	r2, r2, #1792	; 0x700
 80058e0:	601a      	str	r2, [r3, #0]
		*pucFirstUserPriorityRegister = ulOriginalPriority;
 80058e2:	9b01      	ldr	r3, [sp, #4]
 80058e4:	4a15      	ldr	r2, [pc, #84]	; (800593c <xPortStartScheduler+0xd4>)
 80058e6:	b2db      	uxtb	r3, r3
 80058e8:	7013      	strb	r3, [r2, #0]
	portNVIC_SYSPRI2_REG |= portNVIC_PENDSV_PRI;
 80058ea:	4b17      	ldr	r3, [pc, #92]	; (8005948 <xPortStartScheduler+0xe0>)
 80058ec:	681a      	ldr	r2, [r3, #0]
 80058ee:	f442 0270 	orr.w	r2, r2, #15728640	; 0xf00000
 80058f2:	601a      	str	r2, [r3, #0]
	portNVIC_SYSPRI2_REG |= portNVIC_SYSTICK_PRI;
 80058f4:	681a      	ldr	r2, [r3, #0]
 80058f6:	f042 4270 	orr.w	r2, r2, #4026531840	; 0xf0000000
 80058fa:	601a      	str	r2, [r3, #0]
	vPortSetupTimerInterrupt();
 80058fc:	f7ff ffa0 	bl	8005840 <vPortSetupTimerInterrupt>
	uxCriticalNesting = 0;
 8005900:	4b12      	ldr	r3, [pc, #72]	; (800594c <xPortStartScheduler+0xe4>)
 8005902:	2200      	movs	r2, #0
 8005904:	601a      	str	r2, [r3, #0]
	vPortEnableVFP();
 8005906:	f7ff fee7 	bl	80056d8 <vPortEnableVFP>
	*( portFPCCR ) |= portASPEN_AND_LSPEN_BITS;
 800590a:	4a11      	ldr	r2, [pc, #68]	; (8005950 <xPortStartScheduler+0xe8>)
 800590c:	6813      	ldr	r3, [r2, #0]
 800590e:	f043 4340 	orr.w	r3, r3, #3221225472	; 0xc0000000
 8005912:	6013      	str	r3, [r2, #0]
	prvPortStartFirstTask();
 8005914:	f7ff fed0 	bl	80056b8 <prvPortStartFirstTask>
	prvTaskExitError();
 8005918:	f7ff feb6 	bl	8005688 <prvTaskExitError>
			ucMaxPriorityValue <<= ( uint8_t ) 0x01;
 800591c:	f89d 2003 	ldrb.w	r2, [sp, #3]
 8005920:	0052      	lsls	r2, r2, #1
 8005922:	b2d2      	uxtb	r2, r2
 8005924:	f88d 2003 	strb.w	r2, [sp, #3]
 8005928:	2101      	movs	r1, #1
 800592a:	4622      	mov	r2, r4
 800592c:	e7cc      	b.n	80058c8 <xPortStartScheduler+0x60>
 800592e:	bf00      	nop
 8005930:	e000ed00 	.word	0xe000ed00
 8005934:	410fc271 	.word	0x410fc271
 8005938:	410fc270 	.word	0x410fc270
 800593c:	e000e400 	.word	0xe000e400
 8005940:	20010f2c 	.word	0x20010f2c
 8005944:	20010f30 	.word	0x20010f30
 8005948:	e000ed20 	.word	0xe000ed20
 800594c:	2000015c 	.word	0x2000015c
 8005950:	e000ef34 	.word	0xe000ef34

08005954 <vPortValidateInterruptPriority>:
	{
	uint32_t ulCurrentInterrupt;
	uint8_t ucCurrentPriority;

		/* Obtain the number of the currently executing interrupt. */
		__asm volatile( "mrs %0, ipsr" : "=r"( ulCurrentInterrupt ) );
 8005954:	f3ef 8305 	mrs	r3, IPSR

		/* Is the interrupt number a user defined interrupt? */
		if( ulCurrentInterrupt >= portFIRST_USER_INTERRUPT_NUMBER )
 8005958:	2b0f      	cmp	r3, #15
 800595a:	d90e      	bls.n	800597a <vPortValidateInterruptPriority+0x26>
		{
			/* Look up the interrupt's priority. */
			ucCurrentPriority = pcInterruptPriorityRegisters[ ulCurrentInterrupt ];
 800595c:	4a10      	ldr	r2, [pc, #64]	; (80059a0 <vPortValidateInterruptPriority+0x4c>)
 800595e:	5c9b      	ldrb	r3, [r3, r2]
			interrupt entry is as fast and simple as possible.

			The following links provide detailed information:
			http://www.freertos.org/RTOS-Cortex-M3-M4.html
			http://www.freertos.org/FAQHelp.html */
			configASSERT( ucCurrentPriority >= ucMaxSysCallPriority );
 8005960:	4a10      	ldr	r2, [pc, #64]	; (80059a4 <vPortValidateInterruptPriority+0x50>)
 8005962:	7812      	ldrb	r2, [r2, #0]
 8005964:	429a      	cmp	r2, r3
 8005966:	d908      	bls.n	800597a <vPortValidateInterruptPriority+0x26>
 8005968:	f04f 0350 	mov.w	r3, #80	; 0x50
 800596c:	f383 8811 	msr	BASEPRI, r3
 8005970:	f3bf 8f6f 	isb	sy
 8005974:	f3bf 8f4f 	dsb	sy
 8005978:	e7fe      	b.n	8005978 <vPortValidateInterruptPriority+0x24>
		configuration then the correct setting can be achieved on all Cortex-M
		devices by calling NVIC_SetPriorityGrouping( 0 ); before starting the
		scheduler.  Note however that some vendor specific peripheral libraries
		assume a non-zero priority group setting, in which cases using a value
		of zero will result in unpredicable behaviour. */
		configASSERT( ( portAIRCR_REG & portPRIORITY_GROUP_MASK ) <= ulMaxPRIGROUPValue );
 800597a:	4b0b      	ldr	r3, [pc, #44]	; (80059a8 <vPortValidateInterruptPriority+0x54>)
 800597c:	4a0b      	ldr	r2, [pc, #44]	; (80059ac <vPortValidateInterruptPriority+0x58>)
 800597e:	681b      	ldr	r3, [r3, #0]
 8005980:	6812      	ldr	r2, [r2, #0]
 8005982:	f403 63e0 	and.w	r3, r3, #1792	; 0x700
 8005986:	4293      	cmp	r3, r2
 8005988:	d908      	bls.n	800599c <vPortValidateInterruptPriority+0x48>
 800598a:	f04f 0350 	mov.w	r3, #80	; 0x50
 800598e:	f383 8811 	msr	BASEPRI, r3
 8005992:	f3bf 8f6f 	isb	sy
 8005996:	f3bf 8f4f 	dsb	sy
 800599a:	e7fe      	b.n	800599a <vPortValidateInterruptPriority+0x46>
 800599c:	4770      	bx	lr
 800599e:	bf00      	nop
 80059a0:	e000e3f0 	.word	0xe000e3f0
 80059a4:	20010f2c 	.word	0x20010f2c
 80059a8:	e000ed0c 	.word	0xe000ed0c
 80059ac:	20010f30 	.word	0x20010f30

080059b0 <prvCopyDataToQueue>:

#endif /* configUSE_TRACE_FACILITY */
/*-----------------------------------------------------------*/

static BaseType_t prvCopyDataToQueue( Queue_t * const pxQueue, const void *pvItemToQueue, const BaseType_t xPosition )
{
 80059b0:	b570      	push	{r4, r5, r6, lr}
 80059b2:	4615      	mov	r5, r2

	/* This function is called from a critical section. */

	uxMessagesWaiting = pxQueue->uxMessagesWaiting;

	if( pxQueue->uxItemSize == ( UBaseType_t ) 0 )
 80059b4:	6c02      	ldr	r2, [r0, #64]	; 0x40
	uxMessagesWaiting = pxQueue->uxMessagesWaiting;
 80059b6:	6b86      	ldr	r6, [r0, #56]	; 0x38
{
 80059b8:	4604      	mov	r4, r0
	if( pxQueue->uxItemSize == ( UBaseType_t ) 0 )
 80059ba:	b942      	cbnz	r2, 80059ce <prvCopyDataToQueue+0x1e>
	{
		#if ( configUSE_MUTEXES == 1 )
		{
			if( pxQueue->uxQueueType == queueQUEUE_IS_MUTEX )
 80059bc:	6805      	ldr	r5, [r0, #0]
 80059be:	b99d      	cbnz	r5, 80059e8 <prvCopyDataToQueue+0x38>
			{
				/* The mutex is no longer being held. */
				xReturn = xTaskPriorityDisinherit( ( void * ) pxQueue->pxMutexHolder );
 80059c0:	6840      	ldr	r0, [r0, #4]
 80059c2:	f001 f8c9 	bl	8006b58 <xTaskPriorityDisinherit>
				pxQueue->pxMutexHolder = NULL;
 80059c6:	6065      	str	r5, [r4, #4]
		{
			mtCOVERAGE_TEST_MARKER();
		}
	}

	pxQueue->uxMessagesWaiting = uxMessagesWaiting + 1;
 80059c8:	3601      	adds	r6, #1
 80059ca:	63a6      	str	r6, [r4, #56]	; 0x38

	return xReturn;
}
 80059cc:	bd70      	pop	{r4, r5, r6, pc}
	else if( xPosition == queueSEND_TO_BACK )
 80059ce:	b96d      	cbnz	r5, 80059ec <prvCopyDataToQueue+0x3c>
		( void ) memcpy( ( void * ) pxQueue->pcWriteTo, pvItemToQueue, ( size_t ) pxQueue->uxItemSize ); /*lint !e961 !e418 MISRA exception as the casts are only redundant for some ports, plus previous logic ensures a null pointer can only be passed to memcpy() if the copy size is 0. */
 80059d0:	6880      	ldr	r0, [r0, #8]
 80059d2:	f001 fa1d 	bl	8006e10 <memcpy>
		pxQueue->pcWriteTo += pxQueue->uxItemSize;
 80059d6:	68a3      	ldr	r3, [r4, #8]
 80059d8:	6c22      	ldr	r2, [r4, #64]	; 0x40
 80059da:	4413      	add	r3, r2
		if( pxQueue->pcWriteTo >= pxQueue->pcTail ) /*lint !e946 MISRA exception justified as comparison of pointers is the cleanest solution. */
 80059dc:	6862      	ldr	r2, [r4, #4]
		pxQueue->pcWriteTo += pxQueue->uxItemSize;
 80059de:	60a3      	str	r3, [r4, #8]
		if( pxQueue->pcWriteTo >= pxQueue->pcTail ) /*lint !e946 MISRA exception justified as comparison of pointers is the cleanest solution. */
 80059e0:	4293      	cmp	r3, r2
 80059e2:	d301      	bcc.n	80059e8 <prvCopyDataToQueue+0x38>
			pxQueue->pcWriteTo = pxQueue->pcHead;
 80059e4:	6823      	ldr	r3, [r4, #0]
 80059e6:	60a3      	str	r3, [r4, #8]
BaseType_t xReturn = pdFALSE;
 80059e8:	2000      	movs	r0, #0
 80059ea:	e7ed      	b.n	80059c8 <prvCopyDataToQueue+0x18>
		( void ) memcpy( ( void * ) pxQueue->u.pcReadFrom, pvItemToQueue, ( size_t ) pxQueue->uxItemSize ); /*lint !e961 MISRA exception as the casts are only redundant for some ports. */
 80059ec:	68c0      	ldr	r0, [r0, #12]
 80059ee:	f001 fa0f 	bl	8006e10 <memcpy>
		pxQueue->u.pcReadFrom -= pxQueue->uxItemSize;
 80059f2:	6c23      	ldr	r3, [r4, #64]	; 0x40
 80059f4:	68e2      	ldr	r2, [r4, #12]
		if( pxQueue->u.pcReadFrom < pxQueue->pcHead ) /*lint !e946 MISRA exception justified as comparison of pointers is the cleanest solution. */
 80059f6:	6821      	ldr	r1, [r4, #0]
		pxQueue->u.pcReadFrom -= pxQueue->uxItemSize;
 80059f8:	425b      	negs	r3, r3
 80059fa:	441a      	add	r2, r3
		if( pxQueue->u.pcReadFrom < pxQueue->pcHead ) /*lint !e946 MISRA exception justified as comparison of pointers is the cleanest solution. */
 80059fc:	428a      	cmp	r2, r1
		pxQueue->u.pcReadFrom -= pxQueue->uxItemSize;
 80059fe:	60e2      	str	r2, [r4, #12]
			pxQueue->u.pcReadFrom = ( pxQueue->pcTail - pxQueue->uxItemSize );
 8005a00:	bf3e      	ittt	cc
 8005a02:	6862      	ldrcc	r2, [r4, #4]
 8005a04:	189b      	addcc	r3, r3, r2
 8005a06:	60e3      	strcc	r3, [r4, #12]
		if( xPosition == queueOVERWRITE )
 8005a08:	2d02      	cmp	r5, #2
 8005a0a:	d1ed      	bne.n	80059e8 <prvCopyDataToQueue+0x38>
			if( uxMessagesWaiting > ( UBaseType_t ) 0 )
 8005a0c:	b10e      	cbz	r6, 8005a12 <prvCopyDataToQueue+0x62>
				--uxMessagesWaiting;
 8005a0e:	3e01      	subs	r6, #1
 8005a10:	e7ea      	b.n	80059e8 <prvCopyDataToQueue+0x38>
BaseType_t xReturn = pdFALSE;
 8005a12:	4630      	mov	r0, r6
 8005a14:	e7d8      	b.n	80059c8 <prvCopyDataToQueue+0x18>

08005a16 <prvCopyDataFromQueue>:
/*-----------------------------------------------------------*/

static void prvCopyDataFromQueue( Queue_t * const pxQueue, void * const pvBuffer )
{
 8005a16:	4603      	mov	r3, r0
 8005a18:	b410      	push	{r4}
	if( pxQueue->uxItemSize != ( UBaseType_t ) 0 )
 8005a1a:	6c1a      	ldr	r2, [r3, #64]	; 0x40
{
 8005a1c:	4608      	mov	r0, r1
	if( pxQueue->uxItemSize != ( UBaseType_t ) 0 )
 8005a1e:	b162      	cbz	r2, 8005a3a <prvCopyDataFromQueue+0x24>
	{
		pxQueue->u.pcReadFrom += pxQueue->uxItemSize;
 8005a20:	68d9      	ldr	r1, [r3, #12]
		if( pxQueue->u.pcReadFrom >= pxQueue->pcTail ) /*lint !e946 MISRA exception justified as use of the relational operator is the cleanest solutions. */
 8005a22:	685c      	ldr	r4, [r3, #4]
		pxQueue->u.pcReadFrom += pxQueue->uxItemSize;
 8005a24:	4411      	add	r1, r2
		if( pxQueue->u.pcReadFrom >= pxQueue->pcTail ) /*lint !e946 MISRA exception justified as use of the relational operator is the cleanest solutions. */
 8005a26:	42a1      	cmp	r1, r4
		pxQueue->u.pcReadFrom += pxQueue->uxItemSize;
 8005a28:	60d9      	str	r1, [r3, #12]
		{
			pxQueue->u.pcReadFrom = pxQueue->pcHead;
 8005a2a:	bf24      	itt	cs
 8005a2c:	6819      	ldrcs	r1, [r3, #0]
 8005a2e:	60d9      	strcs	r1, [r3, #12]
		}
		else
		{
			mtCOVERAGE_TEST_MARKER();
		}
		( void ) memcpy( ( void * ) pvBuffer, ( void * ) pxQueue->u.pcReadFrom, ( size_t ) pxQueue->uxItemSize ); /*lint !e961 !e418 MISRA exception as the casts are only redundant for some ports.  Also previous logic ensures a null pointer can only be passed to memcpy() when the count is 0. */
 8005a30:	68d9      	ldr	r1, [r3, #12]
	}
}
 8005a32:	f85d 4b04 	ldr.w	r4, [sp], #4
		( void ) memcpy( ( void * ) pvBuffer, ( void * ) pxQueue->u.pcReadFrom, ( size_t ) pxQueue->uxItemSize ); /*lint !e961 !e418 MISRA exception as the casts are only redundant for some ports.  Also previous logic ensures a null pointer can only be passed to memcpy() when the count is 0. */
 8005a36:	f001 b9eb 	b.w	8006e10 <memcpy>
}
 8005a3a:	f85d 4b04 	ldr.w	r4, [sp], #4
 8005a3e:	4770      	bx	lr

08005a40 <prvUnlockQueue>:
/*-----------------------------------------------------------*/

static void prvUnlockQueue( Queue_t * const pxQueue )
{
 8005a40:	b570      	push	{r4, r5, r6, lr}
 8005a42:	4604      	mov	r4, r0

	/* The lock counts contains the number of extra data items placed or
	removed from the queue while the queue was locked.  When a queue is
	locked items can be added or removed, but the event lists cannot be
	updated. */
	taskENTER_CRITICAL();
 8005a44:	f7ff fe7e 	bl	8005744 <vPortEnterCritical>
	{
		int8_t cTxLock = pxQueue->cTxLock;
 8005a48:	f894 5045 	ldrb.w	r5, [r4, #69]	; 0x45
			{
				/* Tasks that are removed from the event list will get added to
				the pending ready list as the scheduler is still suspended. */
				if( listLIST_IS_EMPTY( &( pxQueue->xTasksWaitingToReceive ) ) == pdFALSE )
				{
					if( xTaskRemoveFromEventList( &( pxQueue->xTasksWaitingToReceive ) ) != pdFALSE )
 8005a4c:	f104 0624 	add.w	r6, r4, #36	; 0x24
		int8_t cTxLock = pxQueue->cTxLock;
 8005a50:	b26d      	sxtb	r5, r5
		while( cTxLock > queueLOCKED_UNMODIFIED )
 8005a52:	2d00      	cmp	r5, #0
 8005a54:	dc14      	bgt.n	8005a80 <prvUnlockQueue+0x40>
			#endif /* configUSE_QUEUE_SETS */

			--cTxLock;
		}

		pxQueue->cTxLock = queueUNLOCKED;
 8005a56:	23ff      	movs	r3, #255	; 0xff
 8005a58:	f884 3045 	strb.w	r3, [r4, #69]	; 0x45
	}
	taskEXIT_CRITICAL();
 8005a5c:	f7ff fe94 	bl	8005788 <vPortExitCritical>

	/* Do the same for the Rx lock. */
	taskENTER_CRITICAL();
 8005a60:	f7ff fe70 	bl	8005744 <vPortEnterCritical>
	{
		int8_t cRxLock = pxQueue->cRxLock;
 8005a64:	f894 5044 	ldrb.w	r5, [r4, #68]	; 0x44

		while( cRxLock > queueLOCKED_UNMODIFIED )
		{
			if( listLIST_IS_EMPTY( &( pxQueue->xTasksWaitingToSend ) ) == pdFALSE )
			{
				if( xTaskRemoveFromEventList( &( pxQueue->xTasksWaitingToSend ) ) != pdFALSE )
 8005a68:	f104 0610 	add.w	r6, r4, #16
		int8_t cRxLock = pxQueue->cRxLock;
 8005a6c:	b26d      	sxtb	r5, r5
		while( cRxLock > queueLOCKED_UNMODIFIED )
 8005a6e:	2d00      	cmp	r5, #0
 8005a70:	dc12      	bgt.n	8005a98 <prvUnlockQueue+0x58>
			{
				break;
			}
		}

		pxQueue->cRxLock = queueUNLOCKED;
 8005a72:	23ff      	movs	r3, #255	; 0xff
 8005a74:	f884 3044 	strb.w	r3, [r4, #68]	; 0x44
	}
	taskEXIT_CRITICAL();
}
 8005a78:	e8bd 4070 	ldmia.w	sp!, {r4, r5, r6, lr}
	taskEXIT_CRITICAL();
 8005a7c:	f7ff be84 	b.w	8005788 <vPortExitCritical>
				if( listLIST_IS_EMPTY( &( pxQueue->xTasksWaitingToReceive ) ) == pdFALSE )
 8005a80:	6a63      	ldr	r3, [r4, #36]	; 0x24
 8005a82:	2b00      	cmp	r3, #0
 8005a84:	d0e7      	beq.n	8005a56 <prvUnlockQueue+0x16>
					if( xTaskRemoveFromEventList( &( pxQueue->xTasksWaitingToReceive ) ) != pdFALSE )
 8005a86:	4630      	mov	r0, r6
 8005a88:	f000 fe18 	bl	80066bc <xTaskRemoveFromEventList>
 8005a8c:	b108      	cbz	r0, 8005a92 <prvUnlockQueue+0x52>
						vTaskMissedYield();
 8005a8e:	f000 fef9 	bl	8006884 <vTaskMissedYield>
 8005a92:	3d01      	subs	r5, #1
 8005a94:	b26d      	sxtb	r5, r5
 8005a96:	e7dc      	b.n	8005a52 <prvUnlockQueue+0x12>
			if( listLIST_IS_EMPTY( &( pxQueue->xTasksWaitingToSend ) ) == pdFALSE )
 8005a98:	6923      	ldr	r3, [r4, #16]
 8005a9a:	2b00      	cmp	r3, #0
 8005a9c:	d0e9      	beq.n	8005a72 <prvUnlockQueue+0x32>
				if( xTaskRemoveFromEventList( &( pxQueue->xTasksWaitingToSend ) ) != pdFALSE )
 8005a9e:	4630      	mov	r0, r6
 8005aa0:	f000 fe0c 	bl	80066bc <xTaskRemoveFromEventList>
 8005aa4:	b108      	cbz	r0, 8005aaa <prvUnlockQueue+0x6a>
					vTaskMissedYield();
 8005aa6:	f000 feed 	bl	8006884 <vTaskMissedYield>
 8005aaa:	3d01      	subs	r5, #1
 8005aac:	b26d      	sxtb	r5, r5
 8005aae:	e7de      	b.n	8005a6e <prvUnlockQueue+0x2e>

08005ab0 <xQueueGenericReset>:
{
 8005ab0:	b538      	push	{r3, r4, r5, lr}
 8005ab2:	460d      	mov	r5, r1
	configASSERT( pxQueue );
 8005ab4:	4604      	mov	r4, r0
 8005ab6:	b940      	cbnz	r0, 8005aca <xQueueGenericReset+0x1a>
 8005ab8:	f04f 0350 	mov.w	r3, #80	; 0x50
 8005abc:	f383 8811 	msr	BASEPRI, r3
 8005ac0:	f3bf 8f6f 	isb	sy
 8005ac4:	f3bf 8f4f 	dsb	sy
 8005ac8:	e7fe      	b.n	8005ac8 <xQueueGenericReset+0x18>
	taskENTER_CRITICAL();
 8005aca:	f7ff fe3b 	bl	8005744 <vPortEnterCritical>
		pxQueue->pcTail = pxQueue->pcHead + ( pxQueue->uxLength * pxQueue->uxItemSize );
 8005ace:	6c20      	ldr	r0, [r4, #64]	; 0x40
 8005ad0:	6be3      	ldr	r3, [r4, #60]	; 0x3c
 8005ad2:	6822      	ldr	r2, [r4, #0]
		pxQueue->pcWriteTo = pxQueue->pcHead;
 8005ad4:	60a2      	str	r2, [r4, #8]
		pxQueue->pcTail = pxQueue->pcHead + ( pxQueue->uxLength * pxQueue->uxItemSize );
 8005ad6:	4343      	muls	r3, r0
 8005ad8:	18d1      	adds	r1, r2, r3
		pxQueue->u.pcReadFrom = pxQueue->pcHead + ( ( pxQueue->uxLength - ( UBaseType_t ) 1U ) * pxQueue->uxItemSize );
 8005ada:	1a1b      	subs	r3, r3, r0
 8005adc:	4413      	add	r3, r2
		pxQueue->pcTail = pxQueue->pcHead + ( pxQueue->uxLength * pxQueue->uxItemSize );
 8005ade:	6061      	str	r1, [r4, #4]
		pxQueue->u.pcReadFrom = pxQueue->pcHead + ( ( pxQueue->uxLength - ( UBaseType_t ) 1U ) * pxQueue->uxItemSize );
 8005ae0:	60e3      	str	r3, [r4, #12]
		pxQueue->uxMessagesWaiting = ( UBaseType_t ) 0U;
 8005ae2:	2100      	movs	r1, #0
		pxQueue->cRxLock = queueUNLOCKED;
 8005ae4:	23ff      	movs	r3, #255	; 0xff
		pxQueue->uxMessagesWaiting = ( UBaseType_t ) 0U;
 8005ae6:	63a1      	str	r1, [r4, #56]	; 0x38
		pxQueue->cRxLock = queueUNLOCKED;
 8005ae8:	f884 3044 	strb.w	r3, [r4, #68]	; 0x44
		pxQueue->cTxLock = queueUNLOCKED;
 8005aec:	f884 3045 	strb.w	r3, [r4, #69]	; 0x45
		if( xNewQueue == pdFALSE )
 8005af0:	b995      	cbnz	r5, 8005b18 <xQueueGenericReset+0x68>
			if( listLIST_IS_EMPTY( &( pxQueue->xTasksWaitingToSend ) ) == pdFALSE )
 8005af2:	6923      	ldr	r3, [r4, #16]
 8005af4:	b163      	cbz	r3, 8005b10 <xQueueGenericReset+0x60>
				if( xTaskRemoveFromEventList( &( pxQueue->xTasksWaitingToSend ) ) != pdFALSE )
 8005af6:	f104 0010 	add.w	r0, r4, #16
 8005afa:	f000 fddf 	bl	80066bc <xTaskRemoveFromEventList>
 8005afe:	b138      	cbz	r0, 8005b10 <xQueueGenericReset+0x60>
					queueYIELD_IF_USING_PREEMPTION();
 8005b00:	4b0a      	ldr	r3, [pc, #40]	; (8005b2c <xQueueGenericReset+0x7c>)
 8005b02:	f04f 5280 	mov.w	r2, #268435456	; 0x10000000
 8005b06:	601a      	str	r2, [r3, #0]
 8005b08:	f3bf 8f4f 	dsb	sy
 8005b0c:	f3bf 8f6f 	isb	sy
	taskEXIT_CRITICAL();
 8005b10:	f7ff fe3a 	bl	8005788 <vPortExitCritical>
}
 8005b14:	2001      	movs	r0, #1
 8005b16:	bd38      	pop	{r3, r4, r5, pc}
			vListInitialise( &( pxQueue->xTasksWaitingToSend ) );
 8005b18:	f104 0010 	add.w	r0, r4, #16
 8005b1c:	f7ff fc89 	bl	8005432 <vListInitialise>
			vListInitialise( &( pxQueue->xTasksWaitingToReceive ) );
 8005b20:	f104 0024 	add.w	r0, r4, #36	; 0x24
 8005b24:	f7ff fc85 	bl	8005432 <vListInitialise>
 8005b28:	e7f2      	b.n	8005b10 <xQueueGenericReset+0x60>
 8005b2a:	bf00      	nop
 8005b2c:	e000ed04 	.word	0xe000ed04

08005b30 <xQueueGenericCreate>:
	{
 8005b30:	b5f8      	push	{r3, r4, r5, r6, r7, lr}
 8005b32:	460d      	mov	r5, r1
 8005b34:	4617      	mov	r7, r2
		configASSERT( uxQueueLength > ( UBaseType_t ) 0 );
 8005b36:	4606      	mov	r6, r0
 8005b38:	b940      	cbnz	r0, 8005b4c <xQueueGenericCreate+0x1c>
 8005b3a:	f04f 0350 	mov.w	r3, #80	; 0x50
 8005b3e:	f383 8811 	msr	BASEPRI, r3
 8005b42:	f3bf 8f6f 	isb	sy
 8005b46:	f3bf 8f4f 	dsb	sy
 8005b4a:	e7fe      	b.n	8005b4a <xQueueGenericCreate+0x1a>
			xQueueSizeInBytes = ( size_t ) ( uxQueueLength * uxItemSize ); /*lint !e961 MISRA exception as the casts are only redundant for some ports. */
 8005b4c:	4348      	muls	r0, r1
		pxNewQueue = ( Queue_t * ) pvPortMalloc( sizeof( Queue_t ) + xQueueSizeInBytes );
 8005b4e:	3050      	adds	r0, #80	; 0x50
 8005b50:	f7ff fcd4 	bl	80054fc <pvPortMalloc>
		if( pxNewQueue != NULL )
 8005b54:	4604      	mov	r4, r0
 8005b56:	b148      	cbz	r0, 8005b6c <xQueueGenericCreate+0x3c>
	if( uxItemSize == ( UBaseType_t ) 0 )
 8005b58:	b955      	cbnz	r5, 8005b70 <xQueueGenericCreate+0x40>
		pxNewQueue->pcHead = ( int8_t * ) pxNewQueue;
 8005b5a:	6020      	str	r0, [r4, #0]
	pxNewQueue->uxLength = uxQueueLength;
 8005b5c:	63e6      	str	r6, [r4, #60]	; 0x3c
	pxNewQueue->uxItemSize = uxItemSize;
 8005b5e:	6425      	str	r5, [r4, #64]	; 0x40
	( void ) xQueueGenericReset( pxNewQueue, pdTRUE );
 8005b60:	2101      	movs	r1, #1
 8005b62:	4620      	mov	r0, r4
 8005b64:	f7ff ffa4 	bl	8005ab0 <xQueueGenericReset>
		pxNewQueue->ucQueueType = ucQueueType;
 8005b68:	f884 704c 	strb.w	r7, [r4, #76]	; 0x4c
	}
 8005b6c:	4620      	mov	r0, r4
 8005b6e:	bdf8      	pop	{r3, r4, r5, r6, r7, pc}
			pucQueueStorage = ( ( uint8_t * ) pxNewQueue ) + sizeof( Queue_t );
 8005b70:	f100 0350 	add.w	r3, r0, #80	; 0x50
		pxNewQueue->pcHead = ( int8_t * ) pucQueueStorage;
 8005b74:	6003      	str	r3, [r0, #0]
 8005b76:	e7f1      	b.n	8005b5c <xQueueGenericCreate+0x2c>

08005b78 <xQueueGenericSend>:
{
 8005b78:	e92d 47ff 	stmdb	sp!, {r0, r1, r2, r3, r4, r5, r6, r7, r8, r9, sl, lr}
 8005b7c:	4689      	mov	r9, r1
 8005b7e:	9201      	str	r2, [sp, #4]
 8005b80:	461f      	mov	r7, r3
	configASSERT( pxQueue );
 8005b82:	4604      	mov	r4, r0
 8005b84:	b940      	cbnz	r0, 8005b98 <xQueueGenericSend+0x20>
 8005b86:	f04f 0350 	mov.w	r3, #80	; 0x50
 8005b8a:	f383 8811 	msr	BASEPRI, r3
 8005b8e:	f3bf 8f6f 	isb	sy
 8005b92:	f3bf 8f4f 	dsb	sy
 8005b96:	e7fe      	b.n	8005b96 <xQueueGenericSend+0x1e>
	configASSERT( !( ( pvItemToQueue == NULL ) && ( pxQueue->uxItemSize != ( UBaseType_t ) 0U ) ) );
 8005b98:	2900      	cmp	r1, #0
 8005b9a:	f040 8088 	bne.w	8005cae <xQueueGenericSend+0x136>
 8005b9e:	6c03      	ldr	r3, [r0, #64]	; 0x40
 8005ba0:	2b00      	cmp	r3, #0
 8005ba2:	f000 8084 	beq.w	8005cae <xQueueGenericSend+0x136>
 8005ba6:	f04f 0350 	mov.w	r3, #80	; 0x50
 8005baa:	f383 8811 	msr	BASEPRI, r3
 8005bae:	f3bf 8f6f 	isb	sy
 8005bb2:	f3bf 8f4f 	dsb	sy
 8005bb6:	e7fe      	b.n	8005bb6 <xQueueGenericSend+0x3e>
		configASSERT( !( ( xTaskGetSchedulerState() == taskSCHEDULER_SUSPENDED ) && ( xTicksToWait != 0 ) ) );
 8005bb8:	9e01      	ldr	r6, [sp, #4]
 8005bba:	2e00      	cmp	r6, #0
 8005bbc:	f000 8082 	beq.w	8005cc4 <xQueueGenericSend+0x14c>
 8005bc0:	f04f 0350 	mov.w	r3, #80	; 0x50
 8005bc4:	f383 8811 	msr	BASEPRI, r3
 8005bc8:	f3bf 8f6f 	isb	sy
 8005bcc:	f3bf 8f4f 	dsb	sy
 8005bd0:	e7fe      	b.n	8005bd0 <xQueueGenericSend+0x58>
				if( xTicksToWait == ( TickType_t ) 0 )
 8005bd2:	9d01      	ldr	r5, [sp, #4]
 8005bd4:	b91d      	cbnz	r5, 8005bde <xQueueGenericSend+0x66>
					taskEXIT_CRITICAL();
 8005bd6:	f7ff fdd7 	bl	8005788 <vPortExitCritical>
			return errQUEUE_FULL;
 8005bda:	2000      	movs	r0, #0
 8005bdc:	e058      	b.n	8005c90 <xQueueGenericSend+0x118>
				else if( xEntryTimeSet == pdFALSE )
 8005bde:	b916      	cbnz	r6, 8005be6 <xQueueGenericSend+0x6e>
					vTaskSetTimeOutState( &xTimeOut );
 8005be0:	a802      	add	r0, sp, #8
 8005be2:	f000 fdcd 	bl	8006780 <vTaskSetTimeOutState>
		taskEXIT_CRITICAL();
 8005be6:	f7ff fdcf 	bl	8005788 <vPortExitCritical>
		vTaskSuspendAll();
 8005bea:	f000 fb67 	bl	80062bc <vTaskSuspendAll>
		prvLockQueue( pxQueue );
 8005bee:	f7ff fda9 	bl	8005744 <vPortEnterCritical>
 8005bf2:	f894 3044 	ldrb.w	r3, [r4, #68]	; 0x44
 8005bf6:	2bff      	cmp	r3, #255	; 0xff
 8005bf8:	bf08      	it	eq
 8005bfa:	f884 8044 	strbeq.w	r8, [r4, #68]	; 0x44
 8005bfe:	f894 3045 	ldrb.w	r3, [r4, #69]	; 0x45
 8005c02:	2bff      	cmp	r3, #255	; 0xff
 8005c04:	bf08      	it	eq
 8005c06:	f884 8045 	strbeq.w	r8, [r4, #69]	; 0x45
 8005c0a:	f7ff fdbd 	bl	8005788 <vPortExitCritical>
		if( xTaskCheckForTimeOut( &xTimeOut, &xTicksToWait ) == pdFALSE )
 8005c0e:	a901      	add	r1, sp, #4
 8005c10:	a802      	add	r0, sp, #8
 8005c12:	f000 fdd9 	bl	80067c8 <xTaskCheckForTimeOut>
 8005c16:	2800      	cmp	r0, #0
 8005c18:	d143      	bne.n	8005ca2 <xQueueGenericSend+0x12a>

static BaseType_t prvIsQueueFull( const Queue_t *pxQueue )
{
BaseType_t xReturn;

	taskENTER_CRITICAL();
 8005c1a:	f7ff fd93 	bl	8005744 <vPortEnterCritical>
	{
		if( pxQueue->uxMessagesWaiting == pxQueue->uxLength )
 8005c1e:	6ba6      	ldr	r6, [r4, #56]	; 0x38
 8005c20:	6be5      	ldr	r5, [r4, #60]	; 0x3c
		else
		{
			xReturn = pdFALSE;
		}
	}
	taskEXIT_CRITICAL();
 8005c22:	f7ff fdb1 	bl	8005788 <vPortExitCritical>
			if( prvIsQueueFull( pxQueue ) != pdFALSE )
 8005c26:	42ae      	cmp	r6, r5
 8005c28:	d135      	bne.n	8005c96 <xQueueGenericSend+0x11e>
				vTaskPlaceOnEventList( &( pxQueue->xTasksWaitingToSend ), xTicksToWait );
 8005c2a:	9901      	ldr	r1, [sp, #4]
 8005c2c:	f104 0010 	add.w	r0, r4, #16
 8005c30:	f000 fd20 	bl	8006674 <vTaskPlaceOnEventList>
				prvUnlockQueue( pxQueue );
 8005c34:	4620      	mov	r0, r4
 8005c36:	f7ff ff03 	bl	8005a40 <prvUnlockQueue>
				if( xTaskResumeAll() == pdFALSE )
 8005c3a:	f000 fb4d 	bl	80062d8 <xTaskResumeAll>
 8005c3e:	b938      	cbnz	r0, 8005c50 <xQueueGenericSend+0xd8>
					portYIELD_WITHIN_API();
 8005c40:	f04f 5380 	mov.w	r3, #268435456	; 0x10000000
 8005c44:	f8ca 3000 	str.w	r3, [sl]
 8005c48:	f3bf 8f4f 	dsb	sy
 8005c4c:	f3bf 8f6f 	isb	sy
 8005c50:	2601      	movs	r6, #1
		taskENTER_CRITICAL();
 8005c52:	f7ff fd77 	bl	8005744 <vPortEnterCritical>
			if( ( pxQueue->uxMessagesWaiting < pxQueue->uxLength ) || ( xCopyPosition == queueOVERWRITE ) )
 8005c56:	6ba2      	ldr	r2, [r4, #56]	; 0x38
 8005c58:	6be3      	ldr	r3, [r4, #60]	; 0x3c
 8005c5a:	429a      	cmp	r2, r3
 8005c5c:	d301      	bcc.n	8005c62 <xQueueGenericSend+0xea>
 8005c5e:	2f02      	cmp	r7, #2
 8005c60:	d1b7      	bne.n	8005bd2 <xQueueGenericSend+0x5a>
				xYieldRequired = prvCopyDataToQueue( pxQueue, pvItemToQueue, xCopyPosition );
 8005c62:	463a      	mov	r2, r7
 8005c64:	4649      	mov	r1, r9
 8005c66:	4620      	mov	r0, r4
 8005c68:	f7ff fea2 	bl	80059b0 <prvCopyDataToQueue>
					if( listLIST_IS_EMPTY( &( pxQueue->xTasksWaitingToReceive ) ) == pdFALSE )
 8005c6c:	6a63      	ldr	r3, [r4, #36]	; 0x24
 8005c6e:	b11b      	cbz	r3, 8005c78 <xQueueGenericSend+0x100>
						if( xTaskRemoveFromEventList( &( pxQueue->xTasksWaitingToReceive ) ) != pdFALSE )
 8005c70:	f104 0024 	add.w	r0, r4, #36	; 0x24
 8005c74:	f000 fd22 	bl	80066bc <xTaskRemoveFromEventList>
					else if( xYieldRequired != pdFALSE )
 8005c78:	b138      	cbz	r0, 8005c8a <xQueueGenericSend+0x112>
						queueYIELD_IF_USING_PREEMPTION();
 8005c7a:	4b19      	ldr	r3, [pc, #100]	; (8005ce0 <xQueueGenericSend+0x168>)
 8005c7c:	f04f 5280 	mov.w	r2, #268435456	; 0x10000000
 8005c80:	601a      	str	r2, [r3, #0]
 8005c82:	f3bf 8f4f 	dsb	sy
 8005c86:	f3bf 8f6f 	isb	sy
				taskEXIT_CRITICAL();
 8005c8a:	f7ff fd7d 	bl	8005788 <vPortExitCritical>
				return pdPASS;
 8005c8e:	2001      	movs	r0, #1
}
 8005c90:	b004      	add	sp, #16
 8005c92:	e8bd 87f0 	ldmia.w	sp!, {r4, r5, r6, r7, r8, r9, sl, pc}
				prvUnlockQueue( pxQueue );
 8005c96:	4620      	mov	r0, r4
 8005c98:	f7ff fed2 	bl	8005a40 <prvUnlockQueue>
				( void ) xTaskResumeAll();
 8005c9c:	f000 fb1c 	bl	80062d8 <xTaskResumeAll>
 8005ca0:	e7d6      	b.n	8005c50 <xQueueGenericSend+0xd8>
			prvUnlockQueue( pxQueue );
 8005ca2:	4620      	mov	r0, r4
 8005ca4:	f7ff fecc 	bl	8005a40 <prvUnlockQueue>
			( void ) xTaskResumeAll();
 8005ca8:	f000 fb16 	bl	80062d8 <xTaskResumeAll>
 8005cac:	e795      	b.n	8005bda <xQueueGenericSend+0x62>
	configASSERT( !( ( xCopyPosition == queueOVERWRITE ) && ( pxQueue->uxLength != 1 ) ) );
 8005cae:	2f02      	cmp	r7, #2
 8005cb0:	d102      	bne.n	8005cb8 <xQueueGenericSend+0x140>
 8005cb2:	6be3      	ldr	r3, [r4, #60]	; 0x3c
 8005cb4:	2b01      	cmp	r3, #1
 8005cb6:	d10a      	bne.n	8005cce <xQueueGenericSend+0x156>
		configASSERT( !( ( xTaskGetSchedulerState() == taskSCHEDULER_SUSPENDED ) && ( xTicksToWait != 0 ) ) );
 8005cb8:	f000 feba 	bl	8006a30 <xTaskGetSchedulerState>
 8005cbc:	2800      	cmp	r0, #0
 8005cbe:	f43f af7b 	beq.w	8005bb8 <xQueueGenericSend+0x40>
 8005cc2:	2600      	movs	r6, #0
		prvLockQueue( pxQueue );
 8005cc4:	f04f 0800 	mov.w	r8, #0
					portYIELD_WITHIN_API();
 8005cc8:	f8df a014 	ldr.w	sl, [pc, #20]	; 8005ce0 <xQueueGenericSend+0x168>
 8005ccc:	e7c1      	b.n	8005c52 <xQueueGenericSend+0xda>
 8005cce:	f04f 0350 	mov.w	r3, #80	; 0x50
 8005cd2:	f383 8811 	msr	BASEPRI, r3
 8005cd6:	f3bf 8f6f 	isb	sy
 8005cda:	f3bf 8f4f 	dsb	sy
 8005cde:	e7fe      	b.n	8005cde <xQueueGenericSend+0x166>
 8005ce0:	e000ed04 	.word	0xe000ed04

08005ce4 <xQueueGenericSendFromISR>:
{
 8005ce4:	e92d 43f8 	stmdb	sp!, {r3, r4, r5, r6, r7, r8, r9, lr}
 8005ce8:	4688      	mov	r8, r1
 8005cea:	4691      	mov	r9, r2
 8005cec:	461f      	mov	r7, r3
	configASSERT( pxQueue );
 8005cee:	4604      	mov	r4, r0
 8005cf0:	b940      	cbnz	r0, 8005d04 <xQueueGenericSendFromISR+0x20>
 8005cf2:	f04f 0350 	mov.w	r3, #80	; 0x50
 8005cf6:	f383 8811 	msr	BASEPRI, r3
 8005cfa:	f3bf 8f6f 	isb	sy
 8005cfe:	f3bf 8f4f 	dsb	sy
 8005d02:	e7fe      	b.n	8005d02 <xQueueGenericSendFromISR+0x1e>
	configASSERT( !( ( pvItemToQueue == NULL ) && ( pxQueue->uxItemSize != ( UBaseType_t ) 0U ) ) );
 8005d04:	bb09      	cbnz	r1, 8005d4a <xQueueGenericSendFromISR+0x66>
 8005d06:	6c03      	ldr	r3, [r0, #64]	; 0x40
 8005d08:	b1fb      	cbz	r3, 8005d4a <xQueueGenericSendFromISR+0x66>
 8005d0a:	f04f 0350 	mov.w	r3, #80	; 0x50
 8005d0e:	f383 8811 	msr	BASEPRI, r3
 8005d12:	f3bf 8f6f 	isb	sy
 8005d16:	f3bf 8f4f 	dsb	sy
 8005d1a:	e7fe      	b.n	8005d1a <xQueueGenericSendFromISR+0x36>
						if( xTaskRemoveFromEventList( &( pxQueue->xTasksWaitingToReceive ) ) != pdFALSE )
 8005d1c:	f104 0024 	add.w	r0, r4, #36	; 0x24
 8005d20:	f000 fccc 	bl	80066bc <xTaskRemoveFromEventList>
 8005d24:	2800      	cmp	r0, #0
 8005d26:	d034      	beq.n	8005d92 <xQueueGenericSendFromISR+0xae>
							if( pxHigherPriorityTaskWoken != NULL )
 8005d28:	f1b9 0f00 	cmp.w	r9, #0
 8005d2c:	d031      	beq.n	8005d92 <xQueueGenericSendFromISR+0xae>
								*pxHigherPriorityTaskWoken = pdTRUE;
 8005d2e:	2001      	movs	r0, #1
 8005d30:	f8c9 0000 	str.w	r0, [r9]
	__asm volatile
 8005d34:	f386 8811 	msr	BASEPRI, r6
}
 8005d38:	e8bd 83f8 	ldmia.w	sp!, {r3, r4, r5, r6, r7, r8, r9, pc}
				pxQueue->cTxLock = ( int8_t ) ( cTxLock + 1 );
 8005d3c:	3501      	adds	r5, #1
 8005d3e:	b26d      	sxtb	r5, r5
 8005d40:	f884 5045 	strb.w	r5, [r4, #69]	; 0x45
 8005d44:	e025      	b.n	8005d92 <xQueueGenericSendFromISR+0xae>
			xReturn = errQUEUE_FULL;
 8005d46:	2000      	movs	r0, #0
 8005d48:	e7f4      	b.n	8005d34 <xQueueGenericSendFromISR+0x50>
	configASSERT( !( ( xCopyPosition == queueOVERWRITE ) && ( pxQueue->uxLength != 1 ) ) );
 8005d4a:	2f02      	cmp	r7, #2
 8005d4c:	d102      	bne.n	8005d54 <xQueueGenericSendFromISR+0x70>
 8005d4e:	6be3      	ldr	r3, [r4, #60]	; 0x3c
 8005d50:	2b01      	cmp	r3, #1
 8005d52:	d120      	bne.n	8005d96 <xQueueGenericSendFromISR+0xb2>
	portASSERT_IF_INTERRUPT_PRIORITY_INVALID();
 8005d54:	f7ff fdfe 	bl	8005954 <vPortValidateInterruptPriority>
	__asm volatile
 8005d58:	f3ef 8611 	mrs	r6, BASEPRI
 8005d5c:	f04f 0350 	mov.w	r3, #80	; 0x50
 8005d60:	f383 8811 	msr	BASEPRI, r3
 8005d64:	f3bf 8f6f 	isb	sy
 8005d68:	f3bf 8f4f 	dsb	sy
		if( ( pxQueue->uxMessagesWaiting < pxQueue->uxLength ) || ( xCopyPosition == queueOVERWRITE ) )
 8005d6c:	6ba2      	ldr	r2, [r4, #56]	; 0x38
 8005d6e:	6be3      	ldr	r3, [r4, #60]	; 0x3c
 8005d70:	429a      	cmp	r2, r3
 8005d72:	d301      	bcc.n	8005d78 <xQueueGenericSendFromISR+0x94>
 8005d74:	2f02      	cmp	r7, #2
 8005d76:	d1e6      	bne.n	8005d46 <xQueueGenericSendFromISR+0x62>
			const int8_t cTxLock = pxQueue->cTxLock;
 8005d78:	f894 5045 	ldrb.w	r5, [r4, #69]	; 0x45
			( void ) prvCopyDataToQueue( pxQueue, pvItemToQueue, xCopyPosition );
 8005d7c:	463a      	mov	r2, r7
			const int8_t cTxLock = pxQueue->cTxLock;
 8005d7e:	b26d      	sxtb	r5, r5
			( void ) prvCopyDataToQueue( pxQueue, pvItemToQueue, xCopyPosition );
 8005d80:	4641      	mov	r1, r8
 8005d82:	4620      	mov	r0, r4
 8005d84:	f7ff fe14 	bl	80059b0 <prvCopyDataToQueue>
			if( cTxLock == queueUNLOCKED )
 8005d88:	1c6b      	adds	r3, r5, #1
 8005d8a:	d1d7      	bne.n	8005d3c <xQueueGenericSendFromISR+0x58>
					if( listLIST_IS_EMPTY( &( pxQueue->xTasksWaitingToReceive ) ) == pdFALSE )
 8005d8c:	6a63      	ldr	r3, [r4, #36]	; 0x24
 8005d8e:	2b00      	cmp	r3, #0
 8005d90:	d1c4      	bne.n	8005d1c <xQueueGenericSendFromISR+0x38>
			xReturn = pdPASS;
 8005d92:	2001      	movs	r0, #1
 8005d94:	e7ce      	b.n	8005d34 <xQueueGenericSendFromISR+0x50>
	__asm volatile
 8005d96:	f04f 0350 	mov.w	r3, #80	; 0x50
 8005d9a:	f383 8811 	msr	BASEPRI, r3
 8005d9e:	f3bf 8f6f 	isb	sy
 8005da2:	f3bf 8f4f 	dsb	sy
 8005da6:	e7fe      	b.n	8005da6 <xQueueGenericSendFromISR+0xc2>

08005da8 <xQueueGenericReceive>:
{
 8005da8:	e92d 47ff 	stmdb	sp!, {r0, r1, r2, r3, r4, r5, r6, r7, r8, r9, sl, lr}
 8005dac:	4688      	mov	r8, r1
 8005dae:	9201      	str	r2, [sp, #4]
 8005db0:	4699      	mov	r9, r3
	configASSERT( pxQueue );
 8005db2:	4604      	mov	r4, r0
 8005db4:	b940      	cbnz	r0, 8005dc8 <xQueueGenericReceive+0x20>
 8005db6:	f04f 0350 	mov.w	r3, #80	; 0x50
 8005dba:	f383 8811 	msr	BASEPRI, r3
 8005dbe:	f3bf 8f6f 	isb	sy
 8005dc2:	f3bf 8f4f 	dsb	sy
 8005dc6:	e7fe      	b.n	8005dc6 <xQueueGenericReceive+0x1e>
	configASSERT( !( ( pvBuffer == NULL ) && ( pxQueue->uxItemSize != ( UBaseType_t ) 0U ) ) );
 8005dc8:	2900      	cmp	r1, #0
 8005dca:	f040 80a5 	bne.w	8005f18 <xQueueGenericReceive+0x170>
 8005dce:	6c03      	ldr	r3, [r0, #64]	; 0x40
 8005dd0:	2b00      	cmp	r3, #0
 8005dd2:	f000 80a1 	beq.w	8005f18 <xQueueGenericReceive+0x170>
 8005dd6:	f04f 0350 	mov.w	r3, #80	; 0x50
 8005dda:	f383 8811 	msr	BASEPRI, r3
 8005dde:	f3bf 8f6f 	isb	sy
 8005de2:	f3bf 8f4f 	dsb	sy
 8005de6:	e7fe      	b.n	8005de6 <xQueueGenericReceive+0x3e>
		configASSERT( !( ( xTaskGetSchedulerState() == taskSCHEDULER_SUSPENDED ) && ( xTicksToWait != 0 ) ) );
 8005de8:	9e01      	ldr	r6, [sp, #4]
 8005dea:	2e00      	cmp	r6, #0
 8005dec:	f000 809a 	beq.w	8005f24 <xQueueGenericReceive+0x17c>
 8005df0:	f04f 0350 	mov.w	r3, #80	; 0x50
 8005df4:	f383 8811 	msr	BASEPRI, r3
 8005df8:	f3bf 8f6f 	isb	sy
 8005dfc:	f3bf 8f4f 	dsb	sy
 8005e00:	e7fe      	b.n	8005e00 <xQueueGenericReceive+0x58>
					if( listLIST_IS_EMPTY( &( pxQueue->xTasksWaitingToReceive ) ) == pdFALSE )
 8005e02:	6a63      	ldr	r3, [r4, #36]	; 0x24
					pxQueue->u.pcReadFrom = pcOriginalReadPosition;
 8005e04:	60e6      	str	r6, [r4, #12]
					if( listLIST_IS_EMPTY( &( pxQueue->xTasksWaitingToReceive ) ) == pdFALSE )
 8005e06:	2b00      	cmp	r3, #0
 8005e08:	d06d      	beq.n	8005ee6 <xQueueGenericReceive+0x13e>
						if( xTaskRemoveFromEventList( &( pxQueue->xTasksWaitingToReceive ) ) != pdFALSE )
 8005e0a:	f104 0024 	add.w	r0, r4, #36	; 0x24
 8005e0e:	e05f      	b.n	8005ed0 <xQueueGenericReceive+0x128>
				if( xTicksToWait == ( TickType_t ) 0 )
 8005e10:	9d01      	ldr	r5, [sp, #4]
 8005e12:	b91d      	cbnz	r5, 8005e1c <xQueueGenericReceive+0x74>
					taskEXIT_CRITICAL();
 8005e14:	f7ff fcb8 	bl	8005788 <vPortExitCritical>
				return errQUEUE_EMPTY;
 8005e18:	4628      	mov	r0, r5
 8005e1a:	e067      	b.n	8005eec <xQueueGenericReceive+0x144>
				else if( xEntryTimeSet == pdFALSE )
 8005e1c:	b916      	cbnz	r6, 8005e24 <xQueueGenericReceive+0x7c>
					vTaskSetTimeOutState( &xTimeOut );
 8005e1e:	a802      	add	r0, sp, #8
 8005e20:	f000 fcae 	bl	8006780 <vTaskSetTimeOutState>
		taskEXIT_CRITICAL();
 8005e24:	f7ff fcb0 	bl	8005788 <vPortExitCritical>
		vTaskSuspendAll();
 8005e28:	f000 fa48 	bl	80062bc <vTaskSuspendAll>
		prvLockQueue( pxQueue );
 8005e2c:	f7ff fc8a 	bl	8005744 <vPortEnterCritical>
 8005e30:	f894 3044 	ldrb.w	r3, [r4, #68]	; 0x44
 8005e34:	2bff      	cmp	r3, #255	; 0xff
 8005e36:	bf08      	it	eq
 8005e38:	f884 7044 	strbeq.w	r7, [r4, #68]	; 0x44
 8005e3c:	f894 3045 	ldrb.w	r3, [r4, #69]	; 0x45
 8005e40:	2bff      	cmp	r3, #255	; 0xff
 8005e42:	bf08      	it	eq
 8005e44:	f884 7045 	strbeq.w	r7, [r4, #69]	; 0x45
 8005e48:	f7ff fc9e 	bl	8005788 <vPortExitCritical>
		if( xTaskCheckForTimeOut( &xTimeOut, &xTicksToWait ) == pdFALSE )
 8005e4c:	a901      	add	r1, sp, #4
 8005e4e:	a802      	add	r0, sp, #8
 8005e50:	f000 fcba 	bl	80067c8 <xTaskCheckForTimeOut>
 8005e54:	2800      	cmp	r0, #0
 8005e56:	d152      	bne.n	8005efe <xQueueGenericReceive+0x156>
	taskENTER_CRITICAL();
 8005e58:	f7ff fc74 	bl	8005744 <vPortEnterCritical>
		if( pxQueue->uxMessagesWaiting == ( UBaseType_t )  0 )
 8005e5c:	6ba5      	ldr	r5, [r4, #56]	; 0x38
	taskEXIT_CRITICAL();
 8005e5e:	f7ff fc93 	bl	8005788 <vPortExitCritical>
			if( prvIsQueueEmpty( pxQueue ) != pdFALSE )
 8005e62:	2d00      	cmp	r5, #0
 8005e64:	d145      	bne.n	8005ef2 <xQueueGenericReceive+0x14a>
					if( pxQueue->uxQueueType == queueQUEUE_IS_MUTEX )
 8005e66:	6823      	ldr	r3, [r4, #0]
 8005e68:	b933      	cbnz	r3, 8005e78 <xQueueGenericReceive+0xd0>
						taskENTER_CRITICAL();
 8005e6a:	f7ff fc6b 	bl	8005744 <vPortEnterCritical>
							vTaskPriorityInherit( ( void * ) pxQueue->pxMutexHolder );
 8005e6e:	6860      	ldr	r0, [r4, #4]
 8005e70:	f000 fdfc 	bl	8006a6c <vTaskPriorityInherit>
						taskEXIT_CRITICAL();
 8005e74:	f7ff fc88 	bl	8005788 <vPortExitCritical>
				vTaskPlaceOnEventList( &( pxQueue->xTasksWaitingToReceive ), xTicksToWait );
 8005e78:	9901      	ldr	r1, [sp, #4]
 8005e7a:	f104 0024 	add.w	r0, r4, #36	; 0x24
 8005e7e:	f000 fbf9 	bl	8006674 <vTaskPlaceOnEventList>
				prvUnlockQueue( pxQueue );
 8005e82:	4620      	mov	r0, r4
 8005e84:	f7ff fddc 	bl	8005a40 <prvUnlockQueue>
				if( xTaskResumeAll() == pdFALSE )
 8005e88:	f000 fa26 	bl	80062d8 <xTaskResumeAll>
 8005e8c:	b938      	cbnz	r0, 8005e9e <xQueueGenericReceive+0xf6>
					portYIELD_WITHIN_API();
 8005e8e:	f04f 5380 	mov.w	r3, #268435456	; 0x10000000
 8005e92:	f8ca 3000 	str.w	r3, [sl]
 8005e96:	f3bf 8f4f 	dsb	sy
 8005e9a:	f3bf 8f6f 	isb	sy
 8005e9e:	2601      	movs	r6, #1
		taskENTER_CRITICAL();
 8005ea0:	f7ff fc50 	bl	8005744 <vPortEnterCritical>
			const UBaseType_t uxMessagesWaiting = pxQueue->uxMessagesWaiting;
 8005ea4:	6ba5      	ldr	r5, [r4, #56]	; 0x38
			if( uxMessagesWaiting > ( UBaseType_t ) 0 )
 8005ea6:	2d00      	cmp	r5, #0
 8005ea8:	d0b2      	beq.n	8005e10 <xQueueGenericReceive+0x68>
				prvCopyDataFromQueue( pxQueue, pvBuffer );
 8005eaa:	4641      	mov	r1, r8
 8005eac:	4620      	mov	r0, r4
				pcOriginalReadPosition = pxQueue->u.pcReadFrom;
 8005eae:	68e6      	ldr	r6, [r4, #12]
				prvCopyDataFromQueue( pxQueue, pvBuffer );
 8005eb0:	f7ff fdb1 	bl	8005a16 <prvCopyDataFromQueue>
				if( xJustPeeking == pdFALSE )
 8005eb4:	f1b9 0f00 	cmp.w	r9, #0
 8005eb8:	d1a3      	bne.n	8005e02 <xQueueGenericReceive+0x5a>
						if( pxQueue->uxQueueType == queueQUEUE_IS_MUTEX )
 8005eba:	6823      	ldr	r3, [r4, #0]
					pxQueue->uxMessagesWaiting = uxMessagesWaiting - 1;
 8005ebc:	3d01      	subs	r5, #1
 8005ebe:	63a5      	str	r5, [r4, #56]	; 0x38
						if( pxQueue->uxQueueType == queueQUEUE_IS_MUTEX )
 8005ec0:	b913      	cbnz	r3, 8005ec8 <xQueueGenericReceive+0x120>
							pxQueue->pxMutexHolder = ( int8_t * ) pvTaskIncrementMutexHeldCount(); /*lint !e961 Cast is not redundant as TaskHandle_t is a typedef. */
 8005ec2:	f000 fecd 	bl	8006c60 <pvTaskIncrementMutexHeldCount>
 8005ec6:	6060      	str	r0, [r4, #4]
					if( listLIST_IS_EMPTY( &( pxQueue->xTasksWaitingToSend ) ) == pdFALSE )
 8005ec8:	6923      	ldr	r3, [r4, #16]
 8005eca:	b163      	cbz	r3, 8005ee6 <xQueueGenericReceive+0x13e>
						if( xTaskRemoveFromEventList( &( pxQueue->xTasksWaitingToSend ) ) != pdFALSE )
 8005ecc:	f104 0010 	add.w	r0, r4, #16
						if( xTaskRemoveFromEventList( &( pxQueue->xTasksWaitingToReceive ) ) != pdFALSE )
 8005ed0:	f000 fbf4 	bl	80066bc <xTaskRemoveFromEventList>
 8005ed4:	b138      	cbz	r0, 8005ee6 <xQueueGenericReceive+0x13e>
							queueYIELD_IF_USING_PREEMPTION();
 8005ed6:	4b15      	ldr	r3, [pc, #84]	; (8005f2c <xQueueGenericReceive+0x184>)
 8005ed8:	f04f 5280 	mov.w	r2, #268435456	; 0x10000000
 8005edc:	601a      	str	r2, [r3, #0]
 8005ede:	f3bf 8f4f 	dsb	sy
 8005ee2:	f3bf 8f6f 	isb	sy
				taskEXIT_CRITICAL();
 8005ee6:	f7ff fc4f 	bl	8005788 <vPortExitCritical>
				return pdPASS;
 8005eea:	2001      	movs	r0, #1
}
 8005eec:	b004      	add	sp, #16
 8005eee:	e8bd 87f0 	ldmia.w	sp!, {r4, r5, r6, r7, r8, r9, sl, pc}
				prvUnlockQueue( pxQueue );
 8005ef2:	4620      	mov	r0, r4
 8005ef4:	f7ff fda4 	bl	8005a40 <prvUnlockQueue>
				( void ) xTaskResumeAll();
 8005ef8:	f000 f9ee 	bl	80062d8 <xTaskResumeAll>
 8005efc:	e7cf      	b.n	8005e9e <xQueueGenericReceive+0xf6>
			prvUnlockQueue( pxQueue );
 8005efe:	4620      	mov	r0, r4
 8005f00:	f7ff fd9e 	bl	8005a40 <prvUnlockQueue>
			( void ) xTaskResumeAll();
 8005f04:	f000 f9e8 	bl	80062d8 <xTaskResumeAll>
	taskENTER_CRITICAL();
 8005f08:	f7ff fc1c 	bl	8005744 <vPortEnterCritical>
		if( pxQueue->uxMessagesWaiting == ( UBaseType_t )  0 )
 8005f0c:	6ba5      	ldr	r5, [r4, #56]	; 0x38
	taskEXIT_CRITICAL();
 8005f0e:	f7ff fc3b 	bl	8005788 <vPortExitCritical>
			if( prvIsQueueEmpty( pxQueue ) != pdFALSE )
 8005f12:	2d00      	cmp	r5, #0
 8005f14:	d1c3      	bne.n	8005e9e <xQueueGenericReceive+0xf6>
 8005f16:	e77f      	b.n	8005e18 <xQueueGenericReceive+0x70>
		configASSERT( !( ( xTaskGetSchedulerState() == taskSCHEDULER_SUSPENDED ) && ( xTicksToWait != 0 ) ) );
 8005f18:	f000 fd8a 	bl	8006a30 <xTaskGetSchedulerState>
 8005f1c:	2800      	cmp	r0, #0
 8005f1e:	f43f af63 	beq.w	8005de8 <xQueueGenericReceive+0x40>
 8005f22:	2600      	movs	r6, #0
		prvLockQueue( pxQueue );
 8005f24:	2700      	movs	r7, #0
					portYIELD_WITHIN_API();
 8005f26:	f8df a004 	ldr.w	sl, [pc, #4]	; 8005f2c <xQueueGenericReceive+0x184>
 8005f2a:	e7b9      	b.n	8005ea0 <xQueueGenericReceive+0xf8>
 8005f2c:	e000ed04 	.word	0xe000ed04

08005f30 <vQueueAddToRegistry>:
/*-----------------------------------------------------------*/

#if ( configQUEUE_REGISTRY_SIZE > 0 )

	void vQueueAddToRegistry( QueueHandle_t xQueue, const char *pcQueueName ) /*lint !e971 Unqualified char types are allowed for strings and single characters only. */
	{
 8005f30:	b530      	push	{r4, r5, lr}

		/* See if there is an empty space in the registry.  A NULL name denotes
		a free slot. */
		for( ux = ( UBaseType_t ) 0U; ux < ( UBaseType_t ) configQUEUE_REGISTRY_SIZE; ux++ )
		{
			if( xQueueRegistry[ ux ].pcQueueName == NULL )
 8005f32:	4a07      	ldr	r2, [pc, #28]	; (8005f50 <vQueueAddToRegistry+0x20>)
		for( ux = ( UBaseType_t ) 0U; ux < ( UBaseType_t ) configQUEUE_REGISTRY_SIZE; ux++ )
 8005f34:	2300      	movs	r3, #0
			if( xQueueRegistry[ ux ].pcQueueName == NULL )
 8005f36:	f852 5033 	ldr.w	r5, [r2, r3, lsl #3]
 8005f3a:	eb02 04c3 	add.w	r4, r2, r3, lsl #3
 8005f3e:	b91d      	cbnz	r5, 8005f48 <vQueueAddToRegistry+0x18>
			{
				/* Store the information on this queue. */
				xQueueRegistry[ ux ].pcQueueName = pcQueueName;
 8005f40:	f842 1033 	str.w	r1, [r2, r3, lsl #3]
				xQueueRegistry[ ux ].xHandle = xQueue;
 8005f44:	6060      	str	r0, [r4, #4]

				traceQUEUE_REGISTRY_ADD( xQueue, pcQueueName );
				break;
 8005f46:	bd30      	pop	{r4, r5, pc}
		for( ux = ( UBaseType_t ) 0U; ux < ( UBaseType_t ) configQUEUE_REGISTRY_SIZE; ux++ )
 8005f48:	3301      	adds	r3, #1
 8005f4a:	2b08      	cmp	r3, #8
 8005f4c:	d1f3      	bne.n	8005f36 <vQueueAddToRegistry+0x6>
 8005f4e:	bd30      	pop	{r4, r5, pc}
 8005f50:	20011f30 	.word	0x20011f30

08005f54 <xTaskCreate>:
							const char * const pcName,
							const uint16_t usStackDepth,
							void * const pvParameters,
							UBaseType_t uxPriority,
							TaskHandle_t * const pxCreatedTask ) /*lint !e971 Unqualified char types are allowed for strings and single characters only. */
	{
 8005f54:	b580      	push	{r7, lr}
 8005f56:	b08c      	sub	sp, #48	; 0x30
 8005f58:	af04      	add	r7, sp, #16
 8005f5a:	60f8      	str	r0, [r7, #12]
 8005f5c:	60b9      	str	r1, [r7, #8]
 8005f5e:	603b      	str	r3, [r7, #0]
 8005f60:	4613      	mov	r3, r2
 8005f62:	80fb      	strh	r3, [r7, #6]
		#else /* portSTACK_GROWTH */
		{
		StackType_t *pxStack;

			/* Allocate space for the stack used by the task being created. */
			pxStack = ( StackType_t * ) pvPortMalloc( ( ( ( size_t ) usStackDepth ) * sizeof( StackType_t ) ) ); /*lint !e961 MISRA exception as the casts are only redundant for some ports. */
 8005f64:	88fb      	ldrh	r3, [r7, #6]
 8005f66:	009b      	lsls	r3, r3, #2
 8005f68:	4618      	mov	r0, r3
 8005f6a:	f7ff fac7 	bl	80054fc <pvPortMalloc>
 8005f6e:	6178      	str	r0, [r7, #20]

			if( pxStack != NULL )
 8005f70:	697b      	ldr	r3, [r7, #20]
 8005f72:	2b00      	cmp	r3, #0
 8005f74:	d00e      	beq.n	8005f94 <xTaskCreate+0x40>
			{
				/* Allocate space for the TCB. */
				pxNewTCB = ( TCB_t * ) pvPortMalloc( sizeof( TCB_t ) ); /*lint !e961 MISRA exception as the casts are only redundant for some paths. */
 8005f76:	2060      	movs	r0, #96	; 0x60
 8005f78:	f7ff fac0 	bl	80054fc <pvPortMalloc>
 8005f7c:	61f8      	str	r0, [r7, #28]

				if( pxNewTCB != NULL )
 8005f7e:	69fb      	ldr	r3, [r7, #28]
 8005f80:	2b00      	cmp	r3, #0
 8005f82:	d003      	beq.n	8005f8c <xTaskCreate+0x38>
				{
					/* Store the stack location in the TCB. */
					pxNewTCB->pxStack = pxStack;
 8005f84:	69fb      	ldr	r3, [r7, #28]
 8005f86:	697a      	ldr	r2, [r7, #20]
 8005f88:	631a      	str	r2, [r3, #48]	; 0x30
 8005f8a:	e005      	b.n	8005f98 <xTaskCreate+0x44>
				}
				else
				{
					/* The stack cannot be used as the TCB was not created.  Free
					it again. */
					vPortFree( pxStack );
 8005f8c:	6978      	ldr	r0, [r7, #20]
 8005f8e:	f7ff fb43 	bl	8005618 <vPortFree>
 8005f92:	e001      	b.n	8005f98 <xTaskCreate+0x44>
				}
			}
			else
			{
				pxNewTCB = NULL;
 8005f94:	2300      	movs	r3, #0
 8005f96:	61fb      	str	r3, [r7, #28]
			}
		}
		#endif /* portSTACK_GROWTH */

		if( pxNewTCB != NULL )
 8005f98:	69fb      	ldr	r3, [r7, #28]
 8005f9a:	2b00      	cmp	r3, #0
 8005f9c:	d013      	beq.n	8005fc6 <xTaskCreate+0x72>
				task was created dynamically in case it is later deleted. */
				pxNewTCB->ucStaticallyAllocated = tskDYNAMICALLY_ALLOCATED_STACK_AND_TCB;
			}
			#endif /* configSUPPORT_STATIC_ALLOCATION */

			prvInitialiseNewTask( pxTaskCode, pcName, ( uint32_t ) usStackDepth, pvParameters, uxPriority, pxCreatedTask, pxNewTCB, NULL );
 8005f9e:	88fa      	ldrh	r2, [r7, #6]
 8005fa0:	2300      	movs	r3, #0
 8005fa2:	9303      	str	r3, [sp, #12]
 8005fa4:	69fb      	ldr	r3, [r7, #28]
 8005fa6:	9302      	str	r3, [sp, #8]
 8005fa8:	6afb      	ldr	r3, [r7, #44]	; 0x2c
 8005faa:	9301      	str	r3, [sp, #4]
 8005fac:	6abb      	ldr	r3, [r7, #40]	; 0x28
 8005fae:	9300      	str	r3, [sp, #0]
 8005fb0:	683b      	ldr	r3, [r7, #0]
 8005fb2:	68b9      	ldr	r1, [r7, #8]
 8005fb4:	68f8      	ldr	r0, [r7, #12]
 8005fb6:	f000 f80e 	bl	8005fd6 <prvInitialiseNewTask>
			prvAddNewTaskToReadyList( pxNewTCB );
 8005fba:	69f8      	ldr	r0, [r7, #28]
 8005fbc:	f000 f894 	bl	80060e8 <prvAddNewTaskToReadyList>
			xReturn = pdPASS;
 8005fc0:	2301      	movs	r3, #1
 8005fc2:	61bb      	str	r3, [r7, #24]
 8005fc4:	e002      	b.n	8005fcc <xTaskCreate+0x78>
		}
		else
		{
			xReturn = errCOULD_NOT_ALLOCATE_REQUIRED_MEMORY;
 8005fc6:	f04f 33ff 	mov.w	r3, #4294967295
 8005fca:	61bb      	str	r3, [r7, #24]
		}

		return xReturn;
 8005fcc:	69bb      	ldr	r3, [r7, #24]
	}
 8005fce:	4618      	mov	r0, r3
 8005fd0:	3720      	adds	r7, #32
 8005fd2:	46bd      	mov	sp, r7
 8005fd4:	bd80      	pop	{r7, pc}

08005fd6 <prvInitialiseNewTask>:
									void * const pvParameters,
									UBaseType_t uxPriority,
									TaskHandle_t * const pxCreatedTask,
									TCB_t *pxNewTCB,
									const MemoryRegion_t * const xRegions ) /*lint !e971 Unqualified char types are allowed for strings and single characters only. */
{
 8005fd6:	b580      	push	{r7, lr}
 8005fd8:	b088      	sub	sp, #32
 8005fda:	af00      	add	r7, sp, #0
 8005fdc:	60f8      	str	r0, [r7, #12]
 8005fde:	60b9      	str	r1, [r7, #8]
 8005fe0:	607a      	str	r2, [r7, #4]
 8005fe2:	603b      	str	r3, [r7, #0]

	/* Avoid dependency on memset() if it is not required. */
	#if( ( configCHECK_FOR_STACK_OVERFLOW > 1 ) || ( configUSE_TRACE_FACILITY == 1 ) || ( INCLUDE_uxTaskGetStackHighWaterMark == 1 ) )
	{
		/* Fill the stack with a known value to assist debugging. */
		( void ) memset( pxNewTCB->pxStack, ( int ) tskSTACK_FILL_BYTE, ( size_t ) ulStackDepth * sizeof( StackType_t ) );
 8005fe4:	6b3b      	ldr	r3, [r7, #48]	; 0x30
 8005fe6:	6b18      	ldr	r0, [r3, #48]	; 0x30
 8005fe8:	687b      	ldr	r3, [r7, #4]
 8005fea:	009b      	lsls	r3, r3, #2
 8005fec:	461a      	mov	r2, r3
 8005fee:	21a5      	movs	r1, #165	; 0xa5
 8005ff0:	f000 ff19 	bl	8006e26 <memset>
	grows from high memory to low (as per the 80x86) or vice versa.
	portSTACK_GROWTH is used to make the result positive or negative as required
	by the port. */
	#if( portSTACK_GROWTH < 0 )
	{
		pxTopOfStack = pxNewTCB->pxStack + ( ulStackDepth - ( uint32_t ) 1 );
 8005ff4:	6b3b      	ldr	r3, [r7, #48]	; 0x30
 8005ff6:	6b1a      	ldr	r2, [r3, #48]	; 0x30
 8005ff8:	687b      	ldr	r3, [r7, #4]
 8005ffa:	f103 4380 	add.w	r3, r3, #1073741824	; 0x40000000
 8005ffe:	3b01      	subs	r3, #1
 8006000:	009b      	lsls	r3, r3, #2
 8006002:	4413      	add	r3, r2
 8006004:	61bb      	str	r3, [r7, #24]
		pxTopOfStack = ( StackType_t * ) ( ( ( portPOINTER_SIZE_TYPE ) pxTopOfStack ) & ( ~( ( portPOINTER_SIZE_TYPE ) portBYTE_ALIGNMENT_MASK ) ) ); /*lint !e923 MISRA exception.  Avoiding casts between pointers and integers is not practical.  Size differences accounted for using portPOINTER_SIZE_TYPE type. */
 8006006:	69bb      	ldr	r3, [r7, #24]
 8006008:	f023 0307 	bic.w	r3, r3, #7
 800600c:	61bb      	str	r3, [r7, #24]

		/* Check the alignment of the calculated top of stack is correct. */
		configASSERT( ( ( ( portPOINTER_SIZE_TYPE ) pxTopOfStack & ( portPOINTER_SIZE_TYPE ) portBYTE_ALIGNMENT_MASK ) == 0UL ) );
 800600e:	69bb      	ldr	r3, [r7, #24]
 8006010:	f003 0307 	and.w	r3, r3, #7
 8006014:	2b00      	cmp	r3, #0
 8006016:	d009      	beq.n	800602c <prvInitialiseNewTask+0x56>
 8006018:	f04f 0350 	mov.w	r3, #80	; 0x50
 800601c:	f383 8811 	msr	BASEPRI, r3
 8006020:	f3bf 8f6f 	isb	sy
 8006024:	f3bf 8f4f 	dsb	sy
 8006028:	617b      	str	r3, [r7, #20]
 800602a:	e7fe      	b.n	800602a <prvInitialiseNewTask+0x54>
		pxNewTCB->pxEndOfStack = pxNewTCB->pxStack + ( ulStackDepth - ( uint32_t ) 1 );
	}
	#endif /* portSTACK_GROWTH */

	/* Store the task name in the TCB. */
	for( x = ( UBaseType_t ) 0; x < ( UBaseType_t ) configMAX_TASK_NAME_LEN; x++ )
 800602c:	2300      	movs	r3, #0
 800602e:	61fb      	str	r3, [r7, #28]
 8006030:	e012      	b.n	8006058 <prvInitialiseNewTask+0x82>
	{
		pxNewTCB->pcTaskName[ x ] = pcName[ x ];
 8006032:	68ba      	ldr	r2, [r7, #8]
 8006034:	69fb      	ldr	r3, [r7, #28]
 8006036:	4413      	add	r3, r2
 8006038:	7819      	ldrb	r1, [r3, #0]
 800603a:	6b3a      	ldr	r2, [r7, #48]	; 0x30
 800603c:	69fb      	ldr	r3, [r7, #28]
 800603e:	4413      	add	r3, r2
 8006040:	3334      	adds	r3, #52	; 0x34
 8006042:	460a      	mov	r2, r1
 8006044:	701a      	strb	r2, [r3, #0]

		/* Don't copy all configMAX_TASK_NAME_LEN if the string is shorter than
		configMAX_TASK_NAME_LEN characters just in case the memory after the
		string is not accessible (extremely unlikely). */
		if( pcName[ x ] == 0x00 )
 8006046:	68ba      	ldr	r2, [r7, #8]
 8006048:	69fb      	ldr	r3, [r7, #28]
 800604a:	4413      	add	r3, r2
 800604c:	781b      	ldrb	r3, [r3, #0]
 800604e:	2b00      	cmp	r3, #0
 8006050:	d006      	beq.n	8006060 <prvInitialiseNewTask+0x8a>
	for( x = ( UBaseType_t ) 0; x < ( UBaseType_t ) configMAX_TASK_NAME_LEN; x++ )
 8006052:	69fb      	ldr	r3, [r7, #28]
 8006054:	3301      	adds	r3, #1
 8006056:	61fb      	str	r3, [r7, #28]
 8006058:	69fb      	ldr	r3, [r7, #28]
 800605a:	2b0f      	cmp	r3, #15
 800605c:	d9e9      	bls.n	8006032 <prvInitialiseNewTask+0x5c>
 800605e:	e000      	b.n	8006062 <prvInitialiseNewTask+0x8c>
		{
			break;
 8006060:	bf00      	nop
		}
	}

	/* Ensure the name string is terminated in the case that the string length
	was greater or equal to configMAX_TASK_NAME_LEN. */
	pxNewTCB->pcTaskName[ configMAX_TASK_NAME_LEN - 1 ] = '\0';
 8006062:	6b3b      	ldr	r3, [r7, #48]	; 0x30
 8006064:	2200      	movs	r2, #0
 8006066:	f883 2043 	strb.w	r2, [r3, #67]	; 0x43

	/* This is used as an array index so must ensure it's not too large.  First
	remove the privilege bit if one is present. */
	if( uxPriority >= ( UBaseType_t ) configMAX_PRIORITIES )
 800606a:	6abb      	ldr	r3, [r7, #40]	; 0x28
 800606c:	2b06      	cmp	r3, #6
 800606e:	d901      	bls.n	8006074 <prvInitialiseNewTask+0x9e>
	{
		uxPriority = ( UBaseType_t ) configMAX_PRIORITIES - ( UBaseType_t ) 1U;
 8006070:	2306      	movs	r3, #6
 8006072:	62bb      	str	r3, [r7, #40]	; 0x28
	else
	{
		mtCOVERAGE_TEST_MARKER();
	}

	pxNewTCB->uxPriority = uxPriority;
 8006074:	6b3b      	ldr	r3, [r7, #48]	; 0x30
 8006076:	6aba      	ldr	r2, [r7, #40]	; 0x28
 8006078:	62da      	str	r2, [r3, #44]	; 0x2c
	#if ( configUSE_MUTEXES == 1 )
	{
		pxNewTCB->uxBasePriority = uxPriority;
 800607a:	6b3b      	ldr	r3, [r7, #48]	; 0x30
 800607c:	6aba      	ldr	r2, [r7, #40]	; 0x28
 800607e:	64da      	str	r2, [r3, #76]	; 0x4c
		pxNewTCB->uxMutexesHeld = 0;
 8006080:	6b3b      	ldr	r3, [r7, #48]	; 0x30
 8006082:	2200      	movs	r2, #0
 8006084:	651a      	str	r2, [r3, #80]	; 0x50
	}
	#endif /* configUSE_MUTEXES */

	vListInitialiseItem( &( pxNewTCB->xStateListItem ) );
 8006086:	6b3b      	ldr	r3, [r7, #48]	; 0x30
 8006088:	3304      	adds	r3, #4
 800608a:	4618      	mov	r0, r3
 800608c:	f7ff f9dc 	bl	8005448 <vListInitialiseItem>
	vListInitialiseItem( &( pxNewTCB->xEventListItem ) );
 8006090:	6b3b      	ldr	r3, [r7, #48]	; 0x30
 8006092:	3318      	adds	r3, #24
 8006094:	4618      	mov	r0, r3
 8006096:	f7ff f9d7 	bl	8005448 <vListInitialiseItem>

	/* Set the pxNewTCB as a link back from the ListItem_t.  This is so we can get
	back to	the containing TCB from a generic item in a list. */
	listSET_LIST_ITEM_OWNER( &( pxNewTCB->xStateListItem ), pxNewTCB );
 800609a:	6b3b      	ldr	r3, [r7, #48]	; 0x30
 800609c:	6b3a      	ldr	r2, [r7, #48]	; 0x30
 800609e:	611a      	str	r2, [r3, #16]

	/* Event lists are always in priority order. */
	listSET_LIST_ITEM_VALUE( &( pxNewTCB->xEventListItem ), ( TickType_t ) configMAX_PRIORITIES - ( TickType_t ) uxPriority ); /*lint !e961 MISRA exception as the casts are only redundant for some ports. */
 80060a0:	6abb      	ldr	r3, [r7, #40]	; 0x28
 80060a2:	f1c3 0207 	rsb	r2, r3, #7
 80060a6:	6b3b      	ldr	r3, [r7, #48]	; 0x30
 80060a8:	619a      	str	r2, [r3, #24]
	listSET_LIST_ITEM_OWNER( &( pxNewTCB->xEventListItem ), pxNewTCB );
 80060aa:	6b3b      	ldr	r3, [r7, #48]	; 0x30
 80060ac:	6b3a      	ldr	r2, [r7, #48]	; 0x30
 80060ae:	625a      	str	r2, [r3, #36]	; 0x24
	}
	#endif /* configUSE_APPLICATION_TASK_TAG */

	#if ( configGENERATE_RUN_TIME_STATS == 1 )
	{
		pxNewTCB->ulRunTimeCounter = 0UL;
 80060b0:	6b3b      	ldr	r3, [r7, #48]	; 0x30
 80060b2:	2200      	movs	r2, #0
 80060b4:	655a      	str	r2, [r3, #84]	; 0x54
	}
	#endif

	#if ( configUSE_TASK_NOTIFICATIONS == 1 )
	{
		pxNewTCB->ulNotifiedValue = 0;
 80060b6:	6b3b      	ldr	r3, [r7, #48]	; 0x30
 80060b8:	2200      	movs	r2, #0
 80060ba:	659a      	str	r2, [r3, #88]	; 0x58
		pxNewTCB->ucNotifyState = taskNOT_WAITING_NOTIFICATION;
 80060bc:	6b3b      	ldr	r3, [r7, #48]	; 0x30
 80060be:	2200      	movs	r2, #0
 80060c0:	f883 205c 	strb.w	r2, [r3, #92]	; 0x5c
	{
		pxNewTCB->pxTopOfStack = pxPortInitialiseStack( pxTopOfStack, pxTaskCode, pvParameters, xRunPrivileged );
	}
	#else /* portUSING_MPU_WRAPPERS */
	{
		pxNewTCB->pxTopOfStack = pxPortInitialiseStack( pxTopOfStack, pxTaskCode, pvParameters );
 80060c4:	683a      	ldr	r2, [r7, #0]
 80060c6:	68f9      	ldr	r1, [r7, #12]
 80060c8:	69b8      	ldr	r0, [r7, #24]
 80060ca:	f7ff fb0f 	bl	80056ec <pxPortInitialiseStack>
 80060ce:	4602      	mov	r2, r0
 80060d0:	6b3b      	ldr	r3, [r7, #48]	; 0x30
 80060d2:	601a      	str	r2, [r3, #0]
	}
	#endif /* portUSING_MPU_WRAPPERS */

	if( ( void * ) pxCreatedTask != NULL )
 80060d4:	6afb      	ldr	r3, [r7, #44]	; 0x2c
 80060d6:	2b00      	cmp	r3, #0
 80060d8:	d002      	beq.n	80060e0 <prvInitialiseNewTask+0x10a>
	{
		/* Pass the handle out in an anonymous way.  The handle can be used to
		change the created task's priority, delete the created task, etc.*/
		*pxCreatedTask = ( TaskHandle_t ) pxNewTCB;
 80060da:	6afb      	ldr	r3, [r7, #44]	; 0x2c
 80060dc:	6b3a      	ldr	r2, [r7, #48]	; 0x30
 80060de:	601a      	str	r2, [r3, #0]
	}
	else
	{
		mtCOVERAGE_TEST_MARKER();
	}
}
 80060e0:	bf00      	nop
 80060e2:	3720      	adds	r7, #32
 80060e4:	46bd      	mov	sp, r7
 80060e6:	bd80      	pop	{r7, pc}

080060e8 <prvAddNewTaskToReadyList>:
/*-----------------------------------------------------------*/

static void prvAddNewTaskToReadyList( TCB_t *pxNewTCB )
{
 80060e8:	b580      	push	{r7, lr}
 80060ea:	b082      	sub	sp, #8
 80060ec:	af00      	add	r7, sp, #0
 80060ee:	6078      	str	r0, [r7, #4]
	/* Ensure interrupts don't access the task lists while the lists are being
	updated. */
	taskENTER_CRITICAL();
 80060f0:	f7ff fb28 	bl	8005744 <vPortEnterCritical>
	{
		uxCurrentNumberOfTasks++;
 80060f4:	4b2c      	ldr	r3, [pc, #176]	; (80061a8 <prvAddNewTaskToReadyList+0xc0>)
 80060f6:	681b      	ldr	r3, [r3, #0]
 80060f8:	3301      	adds	r3, #1
 80060fa:	4a2b      	ldr	r2, [pc, #172]	; (80061a8 <prvAddNewTaskToReadyList+0xc0>)
 80060fc:	6013      	str	r3, [r2, #0]
		if( pxCurrentTCB == NULL )
 80060fe:	4b2b      	ldr	r3, [pc, #172]	; (80061ac <prvAddNewTaskToReadyList+0xc4>)
 8006100:	681b      	ldr	r3, [r3, #0]
 8006102:	2b00      	cmp	r3, #0
 8006104:	d109      	bne.n	800611a <prvAddNewTaskToReadyList+0x32>
		{
			/* There are no other tasks, or all the other tasks are in
			the suspended state - make this the current task. */
			pxCurrentTCB = pxNewTCB;
 8006106:	4a29      	ldr	r2, [pc, #164]	; (80061ac <prvAddNewTaskToReadyList+0xc4>)
 8006108:	687b      	ldr	r3, [r7, #4]
 800610a:	6013      	str	r3, [r2, #0]

			if( uxCurrentNumberOfTasks == ( UBaseType_t ) 1 )
 800610c:	4b26      	ldr	r3, [pc, #152]	; (80061a8 <prvAddNewTaskToReadyList+0xc0>)
 800610e:	681b      	ldr	r3, [r3, #0]
 8006110:	2b01      	cmp	r3, #1
 8006112:	d110      	bne.n	8006136 <prvAddNewTaskToReadyList+0x4e>
			{
				/* This is the first task to be created so do the preliminary
				initialisation required.  We will not recover if this call
				fails, but we will report the failure. */
				prvInitialiseTaskLists();
 8006114:	f000 fbda 	bl	80068cc <prvInitialiseTaskLists>
 8006118:	e00d      	b.n	8006136 <prvAddNewTaskToReadyList+0x4e>
		else
		{
			/* If the scheduler is not already running, make this task the
			current task if it is the highest priority task to be created
			so far. */
			if( xSchedulerRunning == pdFALSE )
 800611a:	4b25      	ldr	r3, [pc, #148]	; (80061b0 <prvAddNewTaskToReadyList+0xc8>)
 800611c:	681b      	ldr	r3, [r3, #0]
 800611e:	2b00      	cmp	r3, #0
 8006120:	d109      	bne.n	8006136 <prvAddNewTaskToReadyList+0x4e>
			{
				if( pxCurrentTCB->uxPriority <= pxNewTCB->uxPriority )
 8006122:	4b22      	ldr	r3, [pc, #136]	; (80061ac <prvAddNewTaskToReadyList+0xc4>)
 8006124:	681b      	ldr	r3, [r3, #0]
 8006126:	6ada      	ldr	r2, [r3, #44]	; 0x2c
 8006128:	687b      	ldr	r3, [r7, #4]
 800612a:	6adb      	ldr	r3, [r3, #44]	; 0x2c
 800612c:	429a      	cmp	r2, r3
 800612e:	d802      	bhi.n	8006136 <prvAddNewTaskToReadyList+0x4e>
				{
					pxCurrentTCB = pxNewTCB;
 8006130:	4a1e      	ldr	r2, [pc, #120]	; (80061ac <prvAddNewTaskToReadyList+0xc4>)
 8006132:	687b      	ldr	r3, [r7, #4]
 8006134:	6013      	str	r3, [r2, #0]
			{
				mtCOVERAGE_TEST_MARKER();
			}
		}

		uxTaskNumber++;
 8006136:	4b1f      	ldr	r3, [pc, #124]	; (80061b4 <prvAddNewTaskToReadyList+0xcc>)
 8006138:	681b      	ldr	r3, [r3, #0]
 800613a:	3301      	adds	r3, #1
 800613c:	4a1d      	ldr	r2, [pc, #116]	; (80061b4 <prvAddNewTaskToReadyList+0xcc>)
 800613e:	6013      	str	r3, [r2, #0]

		#if ( configUSE_TRACE_FACILITY == 1 )
		{
			/* Add a counter into the TCB for tracing only. */
			pxNewTCB->uxTCBNumber = uxTaskNumber;
 8006140:	4b1c      	ldr	r3, [pc, #112]	; (80061b4 <prvAddNewTaskToReadyList+0xcc>)
 8006142:	681a      	ldr	r2, [r3, #0]
 8006144:	687b      	ldr	r3, [r7, #4]
 8006146:	645a      	str	r2, [r3, #68]	; 0x44
		}
		#endif /* configUSE_TRACE_FACILITY */
		traceTASK_CREATE( pxNewTCB );

		prvAddTaskToReadyList( pxNewTCB );
 8006148:	687b      	ldr	r3, [r7, #4]
 800614a:	6adb      	ldr	r3, [r3, #44]	; 0x2c
 800614c:	2201      	movs	r2, #1
 800614e:	409a      	lsls	r2, r3
 8006150:	4b19      	ldr	r3, [pc, #100]	; (80061b8 <prvAddNewTaskToReadyList+0xd0>)
 8006152:	681b      	ldr	r3, [r3, #0]
 8006154:	4313      	orrs	r3, r2
 8006156:	4a18      	ldr	r2, [pc, #96]	; (80061b8 <prvAddNewTaskToReadyList+0xd0>)
 8006158:	6013      	str	r3, [r2, #0]
 800615a:	687b      	ldr	r3, [r7, #4]
 800615c:	6ada      	ldr	r2, [r3, #44]	; 0x2c
 800615e:	4613      	mov	r3, r2
 8006160:	009b      	lsls	r3, r3, #2
 8006162:	4413      	add	r3, r2
 8006164:	009b      	lsls	r3, r3, #2
 8006166:	4a15      	ldr	r2, [pc, #84]	; (80061bc <prvAddNewTaskToReadyList+0xd4>)
 8006168:	441a      	add	r2, r3
 800616a:	687b      	ldr	r3, [r7, #4]
 800616c:	3304      	adds	r3, #4
 800616e:	4619      	mov	r1, r3
 8006170:	4610      	mov	r0, r2
 8006172:	f7ff f96c 	bl	800544e <vListInsertEnd>

		portSETUP_TCB( pxNewTCB );
	}
	taskEXIT_CRITICAL();
 8006176:	f7ff fb07 	bl	8005788 <vPortExitCritical>

	if( xSchedulerRunning != pdFALSE )
 800617a:	4b0d      	ldr	r3, [pc, #52]	; (80061b0 <prvAddNewTaskToReadyList+0xc8>)
 800617c:	681b      	ldr	r3, [r3, #0]
 800617e:	2b00      	cmp	r3, #0
 8006180:	d00e      	beq.n	80061a0 <prvAddNewTaskToReadyList+0xb8>
	{
		/* If the created task is of a higher priority than the current task
		then it should run now. */
		if( pxCurrentTCB->uxPriority < pxNewTCB->uxPriority )
 8006182:	4b0a      	ldr	r3, [pc, #40]	; (80061ac <prvAddNewTaskToReadyList+0xc4>)
 8006184:	681b      	ldr	r3, [r3, #0]
 8006186:	6ada      	ldr	r2, [r3, #44]	; 0x2c
 8006188:	687b      	ldr	r3, [r7, #4]
 800618a:	6adb      	ldr	r3, [r3, #44]	; 0x2c
 800618c:	429a      	cmp	r2, r3
 800618e:	d207      	bcs.n	80061a0 <prvAddNewTaskToReadyList+0xb8>
		{
			taskYIELD_IF_USING_PREEMPTION();
 8006190:	4b0b      	ldr	r3, [pc, #44]	; (80061c0 <prvAddNewTaskToReadyList+0xd8>)
 8006192:	f04f 5280 	mov.w	r2, #268435456	; 0x10000000
 8006196:	601a      	str	r2, [r3, #0]
 8006198:	f3bf 8f4f 	dsb	sy
 800619c:	f3bf 8f6f 	isb	sy
	}
	else
	{
		mtCOVERAGE_TEST_MARKER();
	}
}
 80061a0:	bf00      	nop
 80061a2:	3708      	adds	r7, #8
 80061a4:	46bd      	mov	sp, r7
 80061a6:	bd80      	pop	{r7, pc}
 80061a8:	20011034 	.word	0x20011034
 80061ac:	20010f34 	.word	0x20010f34
 80061b0:	20011040 	.word	0x20011040
 80061b4:	20011050 	.word	0x20011050
 80061b8:	2001103c 	.word	0x2001103c
 80061bc:	20010f38 	.word	0x20010f38
 80061c0:	e000ed04 	.word	0xe000ed04

080061c4 <vTaskDelay>:
/*-----------------------------------------------------------*/

#if ( INCLUDE_vTaskDelay == 1 )

	void vTaskDelay( const TickType_t xTicksToDelay )
	{
 80061c4:	b580      	push	{r7, lr}
 80061c6:	b084      	sub	sp, #16
 80061c8:	af00      	add	r7, sp, #0
 80061ca:	6078      	str	r0, [r7, #4]
	BaseType_t xAlreadyYielded = pdFALSE;
 80061cc:	2300      	movs	r3, #0
 80061ce:	60fb      	str	r3, [r7, #12]

		/* A delay time of zero just forces a reschedule. */
		if( xTicksToDelay > ( TickType_t ) 0U )
 80061d0:	687b      	ldr	r3, [r7, #4]
 80061d2:	2b00      	cmp	r3, #0
 80061d4:	d016      	beq.n	8006204 <vTaskDelay+0x40>
		{
			configASSERT( uxSchedulerSuspended == 0 );
 80061d6:	4b13      	ldr	r3, [pc, #76]	; (8006224 <vTaskDelay+0x60>)
 80061d8:	681b      	ldr	r3, [r3, #0]
 80061da:	2b00      	cmp	r3, #0
 80061dc:	d009      	beq.n	80061f2 <vTaskDelay+0x2e>
 80061de:	f04f 0350 	mov.w	r3, #80	; 0x50
 80061e2:	f383 8811 	msr	BASEPRI, r3
 80061e6:	f3bf 8f6f 	isb	sy
 80061ea:	f3bf 8f4f 	dsb	sy
 80061ee:	60bb      	str	r3, [r7, #8]
 80061f0:	e7fe      	b.n	80061f0 <vTaskDelay+0x2c>
			vTaskSuspendAll();
 80061f2:	f000 f863 	bl	80062bc <vTaskSuspendAll>
				list or removed from the blocked list until the scheduler
				is resumed.

				This task cannot be in an event list as it is the currently
				executing task. */
				prvAddCurrentTaskToDelayedList( xTicksToDelay, pdFALSE );
 80061f6:	2100      	movs	r1, #0
 80061f8:	6878      	ldr	r0, [r7, #4]
 80061fa:	f000 fd45 	bl	8006c88 <prvAddCurrentTaskToDelayedList>
			}
			xAlreadyYielded = xTaskResumeAll();
 80061fe:	f000 f86b 	bl	80062d8 <xTaskResumeAll>
 8006202:	60f8      	str	r0, [r7, #12]
			mtCOVERAGE_TEST_MARKER();
		}

		/* Force a reschedule if xTaskResumeAll has not already done so, we may
		have put ourselves to sleep. */
		if( xAlreadyYielded == pdFALSE )
 8006204:	68fb      	ldr	r3, [r7, #12]
 8006206:	2b00      	cmp	r3, #0
 8006208:	d107      	bne.n	800621a <vTaskDelay+0x56>
		{
			portYIELD_WITHIN_API();
 800620a:	4b07      	ldr	r3, [pc, #28]	; (8006228 <vTaskDelay+0x64>)
 800620c:	f04f 5280 	mov.w	r2, #268435456	; 0x10000000
 8006210:	601a      	str	r2, [r3, #0]
 8006212:	f3bf 8f4f 	dsb	sy
 8006216:	f3bf 8f6f 	isb	sy
		}
		else
		{
			mtCOVERAGE_TEST_MARKER();
		}
	}
 800621a:	bf00      	nop
 800621c:	3710      	adds	r7, #16
 800621e:	46bd      	mov	sp, r7
 8006220:	bd80      	pop	{r7, pc}
 8006222:	bf00      	nop
 8006224:	2001105c 	.word	0x2001105c
 8006228:	e000ed04 	.word	0xe000ed04

0800622c <vTaskStartScheduler>:

#endif /* ( ( INCLUDE_xTaskResumeFromISR == 1 ) && ( INCLUDE_vTaskSuspend == 1 ) ) */
/*-----------------------------------------------------------*/

void vTaskStartScheduler( void )
{
 800622c:	b580      	push	{r7, lr}
 800622e:	b086      	sub	sp, #24
 8006230:	af02      	add	r7, sp, #8
		}
	}
	#else
	{
		/* The Idle task is being created using dynamically allocated RAM. */
		xReturn = xTaskCreate(	prvIdleTask,
 8006232:	4b1c      	ldr	r3, [pc, #112]	; (80062a4 <vTaskStartScheduler+0x78>)
 8006234:	9301      	str	r3, [sp, #4]
 8006236:	2300      	movs	r3, #0
 8006238:	9300      	str	r3, [sp, #0]
 800623a:	2300      	movs	r3, #0
 800623c:	2280      	movs	r2, #128	; 0x80
 800623e:	491a      	ldr	r1, [pc, #104]	; (80062a8 <vTaskStartScheduler+0x7c>)
 8006240:	481a      	ldr	r0, [pc, #104]	; (80062ac <vTaskStartScheduler+0x80>)
 8006242:	f7ff fe87 	bl	8005f54 <xTaskCreate>
 8006246:	60f8      	str	r0, [r7, #12]
			mtCOVERAGE_TEST_MARKER();
		}
	}
	#endif /* configUSE_TIMERS */

	if( xReturn == pdPASS )
 8006248:	68fb      	ldr	r3, [r7, #12]
 800624a:	2b01      	cmp	r3, #1
 800624c:	d117      	bne.n	800627e <vTaskStartScheduler+0x52>
 800624e:	f04f 0350 	mov.w	r3, #80	; 0x50
 8006252:	f383 8811 	msr	BASEPRI, r3
 8006256:	f3bf 8f6f 	isb	sy
 800625a:	f3bf 8f4f 	dsb	sy
 800625e:	60bb      	str	r3, [r7, #8]
			structure specific to the task that will run first. */
			_impure_ptr = &( pxCurrentTCB->xNewLib_reent );
		}
		#endif /* configUSE_NEWLIB_REENTRANT */

		xNextTaskUnblockTime = portMAX_DELAY;
 8006260:	4b13      	ldr	r3, [pc, #76]	; (80062b0 <vTaskStartScheduler+0x84>)
 8006262:	f04f 32ff 	mov.w	r2, #4294967295
 8006266:	601a      	str	r2, [r3, #0]
		xSchedulerRunning = pdTRUE;
 8006268:	4b12      	ldr	r3, [pc, #72]	; (80062b4 <vTaskStartScheduler+0x88>)
 800626a:	2201      	movs	r2, #1
 800626c:	601a      	str	r2, [r3, #0]
		xTickCount = ( TickType_t ) 0U;
 800626e:	4b12      	ldr	r3, [pc, #72]	; (80062b8 <vTaskStartScheduler+0x8c>)
 8006270:	2200      	movs	r2, #0
 8006272:	601a      	str	r2, [r3, #0]

		/* If configGENERATE_RUN_TIME_STATS is defined then the following
		macro must be defined to configure the timer/counter used to generate
		the run time counter time base. */
		portCONFIGURE_TIMER_FOR_RUN_TIME_STATS();
 8006274:	f7fa fefa 	bl	800106c <SetupRunTimeStatsTimer>

		/* Setting up the timer tick is hardware specific and thus in the
		portable interface. */
		if( xPortStartScheduler() != pdFALSE )
 8006278:	f7ff faf6 	bl	8005868 <xPortStartScheduler>
	}

	/* Prevent compiler warnings if INCLUDE_xTaskGetIdleTaskHandle is set to 0,
	meaning xIdleTaskHandle is not used anywhere else. */
	( void ) xIdleTaskHandle;
}
 800627c:	e00d      	b.n	800629a <vTaskStartScheduler+0x6e>
		configASSERT( xReturn != errCOULD_NOT_ALLOCATE_REQUIRED_MEMORY );
 800627e:	68fb      	ldr	r3, [r7, #12]
 8006280:	f1b3 3fff 	cmp.w	r3, #4294967295
 8006284:	d109      	bne.n	800629a <vTaskStartScheduler+0x6e>
 8006286:	f04f 0350 	mov.w	r3, #80	; 0x50
 800628a:	f383 8811 	msr	BASEPRI, r3
 800628e:	f3bf 8f6f 	isb	sy
 8006292:	f3bf 8f4f 	dsb	sy
 8006296:	607b      	str	r3, [r7, #4]
 8006298:	e7fe      	b.n	8006298 <vTaskStartScheduler+0x6c>
}
 800629a:	bf00      	nop
 800629c:	3710      	adds	r7, #16
 800629e:	46bd      	mov	sp, r7
 80062a0:	bd80      	pop	{r7, pc}
 80062a2:	bf00      	nop
 80062a4:	20011058 	.word	0x20011058
 80062a8:	08007628 	.word	0x08007628
 80062ac:	0800689d 	.word	0x0800689d
 80062b0:	20011054 	.word	0x20011054
 80062b4:	20011040 	.word	0x20011040
 80062b8:	20011038 	.word	0x20011038

080062bc <vTaskSuspendAll>:
	vPortEndScheduler();
}
/*----------------------------------------------------------*/

void vTaskSuspendAll( void )
{
 80062bc:	b480      	push	{r7}
 80062be:	af00      	add	r7, sp, #0
	/* A critical section is not required as the variable is of type
	BaseType_t.  Please read Richard Barry's reply in the following link to a
	post in the FreeRTOS support forum before reporting this as a bug! -
	http://goo.gl/wu4acr */
	++uxSchedulerSuspended;
 80062c0:	4b04      	ldr	r3, [pc, #16]	; (80062d4 <vTaskSuspendAll+0x18>)
 80062c2:	681b      	ldr	r3, [r3, #0]
 80062c4:	3301      	adds	r3, #1
 80062c6:	4a03      	ldr	r2, [pc, #12]	; (80062d4 <vTaskSuspendAll+0x18>)
 80062c8:	6013      	str	r3, [r2, #0]
}
 80062ca:	bf00      	nop
 80062cc:	46bd      	mov	sp, r7
 80062ce:	f85d 7b04 	ldr.w	r7, [sp], #4
 80062d2:	4770      	bx	lr
 80062d4:	2001105c 	.word	0x2001105c

080062d8 <xTaskResumeAll>:

#endif /* configUSE_TICKLESS_IDLE */
/*----------------------------------------------------------*/

BaseType_t xTaskResumeAll( void )
{
 80062d8:	b580      	push	{r7, lr}
 80062da:	b084      	sub	sp, #16
 80062dc:	af00      	add	r7, sp, #0
TCB_t *pxTCB = NULL;
 80062de:	2300      	movs	r3, #0
 80062e0:	60fb      	str	r3, [r7, #12]
BaseType_t xAlreadyYielded = pdFALSE;
 80062e2:	2300      	movs	r3, #0
 80062e4:	60bb      	str	r3, [r7, #8]

	/* If uxSchedulerSuspended is zero then this function does not match a
	previous call to vTaskSuspendAll(). */
	configASSERT( uxSchedulerSuspended );
 80062e6:	4b41      	ldr	r3, [pc, #260]	; (80063ec <xTaskResumeAll+0x114>)
 80062e8:	681b      	ldr	r3, [r3, #0]
 80062ea:	2b00      	cmp	r3, #0
 80062ec:	d109      	bne.n	8006302 <xTaskResumeAll+0x2a>
 80062ee:	f04f 0350 	mov.w	r3, #80	; 0x50
 80062f2:	f383 8811 	msr	BASEPRI, r3
 80062f6:	f3bf 8f6f 	isb	sy
 80062fa:	f3bf 8f4f 	dsb	sy
 80062fe:	603b      	str	r3, [r7, #0]
 8006300:	e7fe      	b.n	8006300 <xTaskResumeAll+0x28>
	/* It is possible that an ISR caused a task to be removed from an event
	list while the scheduler was suspended.  If this was the case then the
	removed task will have been added to the xPendingReadyList.  Once the
	scheduler has been resumed it is safe to move all the pending ready
	tasks from this list into their appropriate ready list. */
	taskENTER_CRITICAL();
 8006302:	f7ff fa1f 	bl	8005744 <vPortEnterCritical>
	{
		--uxSchedulerSuspended;
 8006306:	4b39      	ldr	r3, [pc, #228]	; (80063ec <xTaskResumeAll+0x114>)
 8006308:	681b      	ldr	r3, [r3, #0]
 800630a:	3b01      	subs	r3, #1
 800630c:	4a37      	ldr	r2, [pc, #220]	; (80063ec <xTaskResumeAll+0x114>)
 800630e:	6013      	str	r3, [r2, #0]

		if( uxSchedulerSuspended == ( UBaseType_t ) pdFALSE )
 8006310:	4b36      	ldr	r3, [pc, #216]	; (80063ec <xTaskResumeAll+0x114>)
 8006312:	681b      	ldr	r3, [r3, #0]
 8006314:	2b00      	cmp	r3, #0
 8006316:	d161      	bne.n	80063dc <xTaskResumeAll+0x104>
		{
			if( uxCurrentNumberOfTasks > ( UBaseType_t ) 0U )
 8006318:	4b35      	ldr	r3, [pc, #212]	; (80063f0 <xTaskResumeAll+0x118>)
 800631a:	681b      	ldr	r3, [r3, #0]
 800631c:	2b00      	cmp	r3, #0
 800631e:	d05d      	beq.n	80063dc <xTaskResumeAll+0x104>
			{
				/* Move any readied tasks from the pending list into the
				appropriate ready list. */
				while( listLIST_IS_EMPTY( &xPendingReadyList ) == pdFALSE )
 8006320:	e02e      	b.n	8006380 <xTaskResumeAll+0xa8>
				{
					pxTCB = ( TCB_t * ) listGET_OWNER_OF_HEAD_ENTRY( ( &xPendingReadyList ) );
 8006322:	4b34      	ldr	r3, [pc, #208]	; (80063f4 <xTaskResumeAll+0x11c>)
 8006324:	68db      	ldr	r3, [r3, #12]
 8006326:	68db      	ldr	r3, [r3, #12]
 8006328:	60fb      	str	r3, [r7, #12]
					( void ) uxListRemove( &( pxTCB->xEventListItem ) );
 800632a:	68fb      	ldr	r3, [r7, #12]
 800632c:	3318      	adds	r3, #24
 800632e:	4618      	mov	r0, r3
 8006330:	f7ff f8b0 	bl	8005494 <uxListRemove>
					( void ) uxListRemove( &( pxTCB->xStateListItem ) );
 8006334:	68fb      	ldr	r3, [r7, #12]
 8006336:	3304      	adds	r3, #4
 8006338:	4618      	mov	r0, r3
 800633a:	f7ff f8ab 	bl	8005494 <uxListRemove>
					prvAddTaskToReadyList( pxTCB );
 800633e:	68fb      	ldr	r3, [r7, #12]
 8006340:	6adb      	ldr	r3, [r3, #44]	; 0x2c
 8006342:	2201      	movs	r2, #1
 8006344:	409a      	lsls	r2, r3
 8006346:	4b2c      	ldr	r3, [pc, #176]	; (80063f8 <xTaskResumeAll+0x120>)
 8006348:	681b      	ldr	r3, [r3, #0]
 800634a:	4313      	orrs	r3, r2
 800634c:	4a2a      	ldr	r2, [pc, #168]	; (80063f8 <xTaskResumeAll+0x120>)
 800634e:	6013      	str	r3, [r2, #0]
 8006350:	68fb      	ldr	r3, [r7, #12]
 8006352:	6ada      	ldr	r2, [r3, #44]	; 0x2c
 8006354:	4613      	mov	r3, r2
 8006356:	009b      	lsls	r3, r3, #2
 8006358:	4413      	add	r3, r2
 800635a:	009b      	lsls	r3, r3, #2
 800635c:	4a27      	ldr	r2, [pc, #156]	; (80063fc <xTaskResumeAll+0x124>)
 800635e:	441a      	add	r2, r3
 8006360:	68fb      	ldr	r3, [r7, #12]
 8006362:	3304      	adds	r3, #4
 8006364:	4619      	mov	r1, r3
 8006366:	4610      	mov	r0, r2
 8006368:	f7ff f871 	bl	800544e <vListInsertEnd>

					/* If the moved task has a priority higher than the current
					task then a yield must be performed. */
					if( pxTCB->uxPriority >= pxCurrentTCB->uxPriority )
 800636c:	68fb      	ldr	r3, [r7, #12]
 800636e:	6ada      	ldr	r2, [r3, #44]	; 0x2c
 8006370:	4b23      	ldr	r3, [pc, #140]	; (8006400 <xTaskResumeAll+0x128>)
 8006372:	681b      	ldr	r3, [r3, #0]
 8006374:	6adb      	ldr	r3, [r3, #44]	; 0x2c
 8006376:	429a      	cmp	r2, r3
 8006378:	d302      	bcc.n	8006380 <xTaskResumeAll+0xa8>
					{
						xYieldPending = pdTRUE;
 800637a:	4b22      	ldr	r3, [pc, #136]	; (8006404 <xTaskResumeAll+0x12c>)
 800637c:	2201      	movs	r2, #1
 800637e:	601a      	str	r2, [r3, #0]
				while( listLIST_IS_EMPTY( &xPendingReadyList ) == pdFALSE )
 8006380:	4b1c      	ldr	r3, [pc, #112]	; (80063f4 <xTaskResumeAll+0x11c>)
 8006382:	681b      	ldr	r3, [r3, #0]
 8006384:	2b00      	cmp	r3, #0
 8006386:	d1cc      	bne.n	8006322 <xTaskResumeAll+0x4a>
					{
						mtCOVERAGE_TEST_MARKER();
					}
				}

				if( pxTCB != NULL )
 8006388:	68fb      	ldr	r3, [r7, #12]
 800638a:	2b00      	cmp	r3, #0
 800638c:	d001      	beq.n	8006392 <xTaskResumeAll+0xba>
					which may have prevented the next unblock time from being
					re-calculated, in which case re-calculate it now.  Mainly
					important for low power tickless implementations, where
					this can prevent an unnecessary exit from low power
					state. */
					prvResetNextTaskUnblockTime();
 800638e:	f000 fb29 	bl	80069e4 <prvResetNextTaskUnblockTime>
				/* If any ticks occurred while the scheduler was suspended then
				they should be processed now.  This ensures the tick count does
				not	slip, and that any delayed tasks are resumed at the correct
				time. */
				{
					UBaseType_t uxPendedCounts = uxPendedTicks; /* Non-volatile copy. */
 8006392:	4b1d      	ldr	r3, [pc, #116]	; (8006408 <xTaskResumeAll+0x130>)
 8006394:	681b      	ldr	r3, [r3, #0]
 8006396:	607b      	str	r3, [r7, #4]

					if( uxPendedCounts > ( UBaseType_t ) 0U )
 8006398:	687b      	ldr	r3, [r7, #4]
 800639a:	2b00      	cmp	r3, #0
 800639c:	d010      	beq.n	80063c0 <xTaskResumeAll+0xe8>
					{
						do
						{
							if( xTaskIncrementTick() != pdFALSE )
 800639e:	f000 f837 	bl	8006410 <xTaskIncrementTick>
 80063a2:	4603      	mov	r3, r0
 80063a4:	2b00      	cmp	r3, #0
 80063a6:	d002      	beq.n	80063ae <xTaskResumeAll+0xd6>
							{
								xYieldPending = pdTRUE;
 80063a8:	4b16      	ldr	r3, [pc, #88]	; (8006404 <xTaskResumeAll+0x12c>)
 80063aa:	2201      	movs	r2, #1
 80063ac:	601a      	str	r2, [r3, #0]
							}
							else
							{
								mtCOVERAGE_TEST_MARKER();
							}
							--uxPendedCounts;
 80063ae:	687b      	ldr	r3, [r7, #4]
 80063b0:	3b01      	subs	r3, #1
 80063b2:	607b      	str	r3, [r7, #4]
						} while( uxPendedCounts > ( UBaseType_t ) 0U );
 80063b4:	687b      	ldr	r3, [r7, #4]
 80063b6:	2b00      	cmp	r3, #0
 80063b8:	d1f1      	bne.n	800639e <xTaskResumeAll+0xc6>

						uxPendedTicks = 0;
 80063ba:	4b13      	ldr	r3, [pc, #76]	; (8006408 <xTaskResumeAll+0x130>)
 80063bc:	2200      	movs	r2, #0
 80063be:	601a      	str	r2, [r3, #0]
					{
						mtCOVERAGE_TEST_MARKER();
					}
				}

				if( xYieldPending != pdFALSE )
 80063c0:	4b10      	ldr	r3, [pc, #64]	; (8006404 <xTaskResumeAll+0x12c>)
 80063c2:	681b      	ldr	r3, [r3, #0]
 80063c4:	2b00      	cmp	r3, #0
 80063c6:	d009      	beq.n	80063dc <xTaskResumeAll+0x104>
				{
					#if( configUSE_PREEMPTION != 0 )
					{
						xAlreadyYielded = pdTRUE;
 80063c8:	2301      	movs	r3, #1
 80063ca:	60bb      	str	r3, [r7, #8]
					}
					#endif
					taskYIELD_IF_USING_PREEMPTION();
 80063cc:	4b0f      	ldr	r3, [pc, #60]	; (800640c <xTaskResumeAll+0x134>)
 80063ce:	f04f 5280 	mov.w	r2, #268435456	; 0x10000000
 80063d2:	601a      	str	r2, [r3, #0]
 80063d4:	f3bf 8f4f 	dsb	sy
 80063d8:	f3bf 8f6f 	isb	sy
		else
		{
			mtCOVERAGE_TEST_MARKER();
		}
	}
	taskEXIT_CRITICAL();
 80063dc:	f7ff f9d4 	bl	8005788 <vPortExitCritical>

	return xAlreadyYielded;
 80063e0:	68bb      	ldr	r3, [r7, #8]
}
 80063e2:	4618      	mov	r0, r3
 80063e4:	3710      	adds	r7, #16
 80063e6:	46bd      	mov	sp, r7
 80063e8:	bd80      	pop	{r7, pc}
 80063ea:	bf00      	nop
 80063ec:	2001105c 	.word	0x2001105c
 80063f0:	20011034 	.word	0x20011034
 80063f4:	20010ff4 	.word	0x20010ff4
 80063f8:	2001103c 	.word	0x2001103c
 80063fc:	20010f38 	.word	0x20010f38
 8006400:	20010f34 	.word	0x20010f34
 8006404:	20011048 	.word	0x20011048
 8006408:	20011044 	.word	0x20011044
 800640c:	e000ed04 	.word	0xe000ed04

08006410 <xTaskIncrementTick>:

#endif /* INCLUDE_xTaskAbortDelay */
/*----------------------------------------------------------*/

BaseType_t xTaskIncrementTick( void )
{
 8006410:	b580      	push	{r7, lr}
 8006412:	b086      	sub	sp, #24
 8006414:	af00      	add	r7, sp, #0
TCB_t * pxTCB;
TickType_t xItemValue;
BaseType_t xSwitchRequired = pdFALSE;
 8006416:	2300      	movs	r3, #0
 8006418:	617b      	str	r3, [r7, #20]

	/* Called by the portable layer each time a tick interrupt occurs.
	Increments the tick then checks to see if the new tick value will cause any
	tasks to be unblocked. */
	traceTASK_INCREMENT_TICK( xTickCount );
	if( uxSchedulerSuspended == ( UBaseType_t ) pdFALSE )
 800641a:	4b50      	ldr	r3, [pc, #320]	; (800655c <xTaskIncrementTick+0x14c>)
 800641c:	681b      	ldr	r3, [r3, #0]
 800641e:	2b00      	cmp	r3, #0
 8006420:	f040 808c 	bne.w	800653c <xTaskIncrementTick+0x12c>
	{
		/* Minor optimisation.  The tick count cannot change in this
		block. */
		const TickType_t xConstTickCount = xTickCount + 1;
 8006424:	4b4e      	ldr	r3, [pc, #312]	; (8006560 <xTaskIncrementTick+0x150>)
 8006426:	681b      	ldr	r3, [r3, #0]
 8006428:	3301      	adds	r3, #1
 800642a:	613b      	str	r3, [r7, #16]

		/* Increment the RTOS tick, switching the delayed and overflowed
		delayed lists if it wraps to 0. */
		xTickCount = xConstTickCount;
 800642c:	4a4c      	ldr	r2, [pc, #304]	; (8006560 <xTaskIncrementTick+0x150>)
 800642e:	693b      	ldr	r3, [r7, #16]
 8006430:	6013      	str	r3, [r2, #0]

		if( xConstTickCount == ( TickType_t ) 0U )
 8006432:	693b      	ldr	r3, [r7, #16]
 8006434:	2b00      	cmp	r3, #0
 8006436:	d11f      	bne.n	8006478 <xTaskIncrementTick+0x68>
		{
			taskSWITCH_DELAYED_LISTS();
 8006438:	4b4a      	ldr	r3, [pc, #296]	; (8006564 <xTaskIncrementTick+0x154>)
 800643a:	681b      	ldr	r3, [r3, #0]
 800643c:	681b      	ldr	r3, [r3, #0]
 800643e:	2b00      	cmp	r3, #0
 8006440:	d009      	beq.n	8006456 <xTaskIncrementTick+0x46>
 8006442:	f04f 0350 	mov.w	r3, #80	; 0x50
 8006446:	f383 8811 	msr	BASEPRI, r3
 800644a:	f3bf 8f6f 	isb	sy
 800644e:	f3bf 8f4f 	dsb	sy
 8006452:	603b      	str	r3, [r7, #0]
 8006454:	e7fe      	b.n	8006454 <xTaskIncrementTick+0x44>
 8006456:	4b43      	ldr	r3, [pc, #268]	; (8006564 <xTaskIncrementTick+0x154>)
 8006458:	681b      	ldr	r3, [r3, #0]
 800645a:	60fb      	str	r3, [r7, #12]
 800645c:	4b42      	ldr	r3, [pc, #264]	; (8006568 <xTaskIncrementTick+0x158>)
 800645e:	681b      	ldr	r3, [r3, #0]
 8006460:	4a40      	ldr	r2, [pc, #256]	; (8006564 <xTaskIncrementTick+0x154>)
 8006462:	6013      	str	r3, [r2, #0]
 8006464:	4a40      	ldr	r2, [pc, #256]	; (8006568 <xTaskIncrementTick+0x158>)
 8006466:	68fb      	ldr	r3, [r7, #12]
 8006468:	6013      	str	r3, [r2, #0]
 800646a:	4b40      	ldr	r3, [pc, #256]	; (800656c <xTaskIncrementTick+0x15c>)
 800646c:	681b      	ldr	r3, [r3, #0]
 800646e:	3301      	adds	r3, #1
 8006470:	4a3e      	ldr	r2, [pc, #248]	; (800656c <xTaskIncrementTick+0x15c>)
 8006472:	6013      	str	r3, [r2, #0]
 8006474:	f000 fab6 	bl	80069e4 <prvResetNextTaskUnblockTime>

		/* See if this tick has made a timeout expire.  Tasks are stored in
		the	queue in the order of their wake time - meaning once one task
		has been found whose block time has not expired there is no need to
		look any further down the list. */
		if( xConstTickCount >= xNextTaskUnblockTime )
 8006478:	4b3d      	ldr	r3, [pc, #244]	; (8006570 <xTaskIncrementTick+0x160>)
 800647a:	681b      	ldr	r3, [r3, #0]
 800647c:	693a      	ldr	r2, [r7, #16]
 800647e:	429a      	cmp	r2, r3
 8006480:	d34d      	bcc.n	800651e <xTaskIncrementTick+0x10e>
		{
			for( ;; )
			{
				if( listLIST_IS_EMPTY( pxDelayedTaskList ) != pdFALSE )
 8006482:	4b38      	ldr	r3, [pc, #224]	; (8006564 <xTaskIncrementTick+0x154>)
 8006484:	681b      	ldr	r3, [r3, #0]
 8006486:	681b      	ldr	r3, [r3, #0]
 8006488:	2b00      	cmp	r3, #0
 800648a:	d101      	bne.n	8006490 <xTaskIncrementTick+0x80>
 800648c:	2301      	movs	r3, #1
 800648e:	e000      	b.n	8006492 <xTaskIncrementTick+0x82>
 8006490:	2300      	movs	r3, #0
 8006492:	2b00      	cmp	r3, #0
 8006494:	d004      	beq.n	80064a0 <xTaskIncrementTick+0x90>
					/* The delayed list is empty.  Set xNextTaskUnblockTime
					to the maximum possible value so it is extremely
					unlikely that the
					if( xTickCount >= xNextTaskUnblockTime ) test will pass
					next time through. */
					xNextTaskUnblockTime = portMAX_DELAY; /*lint !e961 MISRA exception as the casts are only redundant for some ports. */
 8006496:	4b36      	ldr	r3, [pc, #216]	; (8006570 <xTaskIncrementTick+0x160>)
 8006498:	f04f 32ff 	mov.w	r2, #4294967295
 800649c:	601a      	str	r2, [r3, #0]
					break;
 800649e:	e03e      	b.n	800651e <xTaskIncrementTick+0x10e>
				{
					/* The delayed list is not empty, get the value of the
					item at the head of the delayed list.  This is the time
					at which the task at the head of the delayed list must
					be removed from the Blocked state. */
					pxTCB = ( TCB_t * ) listGET_OWNER_OF_HEAD_ENTRY( pxDelayedTaskList );
 80064a0:	4b30      	ldr	r3, [pc, #192]	; (8006564 <xTaskIncrementTick+0x154>)
 80064a2:	681b      	ldr	r3, [r3, #0]
 80064a4:	68db      	ldr	r3, [r3, #12]
 80064a6:	68db      	ldr	r3, [r3, #12]
 80064a8:	60bb      	str	r3, [r7, #8]
					xItemValue = listGET_LIST_ITEM_VALUE( &( pxTCB->xStateListItem ) );
 80064aa:	68bb      	ldr	r3, [r7, #8]
 80064ac:	685b      	ldr	r3, [r3, #4]
 80064ae:	607b      	str	r3, [r7, #4]

					if( xConstTickCount < xItemValue )
 80064b0:	693a      	ldr	r2, [r7, #16]
 80064b2:	687b      	ldr	r3, [r7, #4]
 80064b4:	429a      	cmp	r2, r3
 80064b6:	d203      	bcs.n	80064c0 <xTaskIncrementTick+0xb0>
						/* It is not time to unblock this item yet, but the
						item value is the time at which the task at the head
						of the blocked list must be removed from the Blocked
						state -	so record the item value in
						xNextTaskUnblockTime. */
						xNextTaskUnblockTime = xItemValue;
 80064b8:	4a2d      	ldr	r2, [pc, #180]	; (8006570 <xTaskIncrementTick+0x160>)
 80064ba:	687b      	ldr	r3, [r7, #4]
 80064bc:	6013      	str	r3, [r2, #0]
						break;
 80064be:	e02e      	b.n	800651e <xTaskIncrementTick+0x10e>
					{
						mtCOVERAGE_TEST_MARKER();
					}

					/* It is time to remove the item from the Blocked state. */
					( void ) uxListRemove( &( pxTCB->xStateListItem ) );
 80064c0:	68bb      	ldr	r3, [r7, #8]
 80064c2:	3304      	adds	r3, #4
 80064c4:	4618      	mov	r0, r3
 80064c6:	f7fe ffe5 	bl	8005494 <uxListRemove>

					/* Is the task waiting on an event also?  If so remove
					it from the event list. */
					if( listLIST_ITEM_CONTAINER( &( pxTCB->xEventListItem ) ) != NULL )
 80064ca:	68bb      	ldr	r3, [r7, #8]
 80064cc:	6a9b      	ldr	r3, [r3, #40]	; 0x28
 80064ce:	2b00      	cmp	r3, #0
 80064d0:	d004      	beq.n	80064dc <xTaskIncrementTick+0xcc>
					{
						( void ) uxListRemove( &( pxTCB->xEventListItem ) );
 80064d2:	68bb      	ldr	r3, [r7, #8]
 80064d4:	3318      	adds	r3, #24
 80064d6:	4618      	mov	r0, r3
 80064d8:	f7fe ffdc 	bl	8005494 <uxListRemove>
						mtCOVERAGE_TEST_MARKER();
					}

					/* Place the unblocked task into the appropriate ready
					list. */
					prvAddTaskToReadyList( pxTCB );
 80064dc:	68bb      	ldr	r3, [r7, #8]
 80064de:	6adb      	ldr	r3, [r3, #44]	; 0x2c
 80064e0:	2201      	movs	r2, #1
 80064e2:	409a      	lsls	r2, r3
 80064e4:	4b23      	ldr	r3, [pc, #140]	; (8006574 <xTaskIncrementTick+0x164>)
 80064e6:	681b      	ldr	r3, [r3, #0]
 80064e8:	4313      	orrs	r3, r2
 80064ea:	4a22      	ldr	r2, [pc, #136]	; (8006574 <xTaskIncrementTick+0x164>)
 80064ec:	6013      	str	r3, [r2, #0]
 80064ee:	68bb      	ldr	r3, [r7, #8]
 80064f0:	6ada      	ldr	r2, [r3, #44]	; 0x2c
 80064f2:	4613      	mov	r3, r2
 80064f4:	009b      	lsls	r3, r3, #2
 80064f6:	4413      	add	r3, r2
 80064f8:	009b      	lsls	r3, r3, #2
 80064fa:	4a1f      	ldr	r2, [pc, #124]	; (8006578 <xTaskIncrementTick+0x168>)
 80064fc:	441a      	add	r2, r3
 80064fe:	68bb      	ldr	r3, [r7, #8]
 8006500:	3304      	adds	r3, #4
 8006502:	4619      	mov	r1, r3
 8006504:	4610      	mov	r0, r2
 8006506:	f7fe ffa2 	bl	800544e <vListInsertEnd>
					{
						/* Preemption is on, but a context switch should
						only be performed if the unblocked task has a
						priority that is equal to or higher than the
						currently executing task. */
						if( pxTCB->uxPriority >= pxCurrentTCB->uxPriority )
 800650a:	68bb      	ldr	r3, [r7, #8]
 800650c:	6ada      	ldr	r2, [r3, #44]	; 0x2c
 800650e:	4b1b      	ldr	r3, [pc, #108]	; (800657c <xTaskIncrementTick+0x16c>)
 8006510:	681b      	ldr	r3, [r3, #0]
 8006512:	6adb      	ldr	r3, [r3, #44]	; 0x2c
 8006514:	429a      	cmp	r2, r3
 8006516:	d3b4      	bcc.n	8006482 <xTaskIncrementTick+0x72>
						{
							xSwitchRequired = pdTRUE;
 8006518:	2301      	movs	r3, #1
 800651a:	617b      	str	r3, [r7, #20]
				if( listLIST_IS_EMPTY( pxDelayedTaskList ) != pdFALSE )
 800651c:	e7b1      	b.n	8006482 <xTaskIncrementTick+0x72>
		/* Tasks of equal priority to the currently running task will share
		processing time (time slice) if preemption is on, and the application
		writer has not explicitly turned time slicing off. */
		#if ( ( configUSE_PREEMPTION == 1 ) && ( configUSE_TIME_SLICING == 1 ) )
		{
			if( listCURRENT_LIST_LENGTH( &( pxReadyTasksLists[ pxCurrentTCB->uxPriority ] ) ) > ( UBaseType_t ) 1 )
 800651e:	4b17      	ldr	r3, [pc, #92]	; (800657c <xTaskIncrementTick+0x16c>)
 8006520:	681b      	ldr	r3, [r3, #0]
 8006522:	6ada      	ldr	r2, [r3, #44]	; 0x2c
 8006524:	4914      	ldr	r1, [pc, #80]	; (8006578 <xTaskIncrementTick+0x168>)
 8006526:	4613      	mov	r3, r2
 8006528:	009b      	lsls	r3, r3, #2
 800652a:	4413      	add	r3, r2
 800652c:	009b      	lsls	r3, r3, #2
 800652e:	440b      	add	r3, r1
 8006530:	681b      	ldr	r3, [r3, #0]
 8006532:	2b01      	cmp	r3, #1
 8006534:	d907      	bls.n	8006546 <xTaskIncrementTick+0x136>
			{
				xSwitchRequired = pdTRUE;
 8006536:	2301      	movs	r3, #1
 8006538:	617b      	str	r3, [r7, #20]
 800653a:	e004      	b.n	8006546 <xTaskIncrementTick+0x136>
		}
		#endif /* configUSE_TICK_HOOK */
	}
	else
	{
		++uxPendedTicks;
 800653c:	4b10      	ldr	r3, [pc, #64]	; (8006580 <xTaskIncrementTick+0x170>)
 800653e:	681b      	ldr	r3, [r3, #0]
 8006540:	3301      	adds	r3, #1
 8006542:	4a0f      	ldr	r2, [pc, #60]	; (8006580 <xTaskIncrementTick+0x170>)
 8006544:	6013      	str	r3, [r2, #0]
		#endif
	}

	#if ( configUSE_PREEMPTION == 1 )
	{
		if( xYieldPending != pdFALSE )
 8006546:	4b0f      	ldr	r3, [pc, #60]	; (8006584 <xTaskIncrementTick+0x174>)
 8006548:	681b      	ldr	r3, [r3, #0]
 800654a:	2b00      	cmp	r3, #0
 800654c:	d001      	beq.n	8006552 <xTaskIncrementTick+0x142>
		{
			xSwitchRequired = pdTRUE;
 800654e:	2301      	movs	r3, #1
 8006550:	617b      	str	r3, [r7, #20]
			mtCOVERAGE_TEST_MARKER();
		}
	}
	#endif /* configUSE_PREEMPTION */

	return xSwitchRequired;
 8006552:	697b      	ldr	r3, [r7, #20]
}
 8006554:	4618      	mov	r0, r3
 8006556:	3718      	adds	r7, #24
 8006558:	46bd      	mov	sp, r7
 800655a:	bd80      	pop	{r7, pc}
 800655c:	2001105c 	.word	0x2001105c
 8006560:	20011038 	.word	0x20011038
 8006564:	20010fec 	.word	0x20010fec
 8006568:	20010ff0 	.word	0x20010ff0
 800656c:	2001104c 	.word	0x2001104c
 8006570:	20011054 	.word	0x20011054
 8006574:	2001103c 	.word	0x2001103c
 8006578:	20010f38 	.word	0x20010f38
 800657c:	20010f34 	.word	0x20010f34
 8006580:	20011044 	.word	0x20011044
 8006584:	20011048 	.word	0x20011048

08006588 <vTaskSwitchContext>:

#endif /* configUSE_APPLICATION_TASK_TAG */
/*-----------------------------------------------------------*/

void vTaskSwitchContext( void )
{
 8006588:	b580      	push	{r7, lr}
 800658a:	b086      	sub	sp, #24
 800658c:	af00      	add	r7, sp, #0
	if( uxSchedulerSuspended != ( UBaseType_t ) pdFALSE )
 800658e:	4b32      	ldr	r3, [pc, #200]	; (8006658 <vTaskSwitchContext+0xd0>)
 8006590:	681b      	ldr	r3, [r3, #0]
 8006592:	2b00      	cmp	r3, #0
 8006594:	d003      	beq.n	800659e <vTaskSwitchContext+0x16>
	{
		/* The scheduler is currently suspended - do not allow a context
		switch. */
		xYieldPending = pdTRUE;
 8006596:	4b31      	ldr	r3, [pc, #196]	; (800665c <vTaskSwitchContext+0xd4>)
 8006598:	2201      	movs	r2, #1
 800659a:	601a      	str	r2, [r3, #0]
			structure specific to this task. */
			_impure_ptr = &( pxCurrentTCB->xNewLib_reent );
		}
		#endif /* configUSE_NEWLIB_REENTRANT */
	}
}
 800659c:	e057      	b.n	800664e <vTaskSwitchContext+0xc6>
		xYieldPending = pdFALSE;
 800659e:	4b2f      	ldr	r3, [pc, #188]	; (800665c <vTaskSwitchContext+0xd4>)
 80065a0:	2200      	movs	r2, #0
 80065a2:	601a      	str	r2, [r3, #0]
					ulTotalRunTime = portGET_RUN_TIME_COUNTER_VALUE();
 80065a4:	f7fa fd5c 	bl	8001060 <GetRunTimeStatsValue>
 80065a8:	4602      	mov	r2, r0
 80065aa:	4b2d      	ldr	r3, [pc, #180]	; (8006660 <vTaskSwitchContext+0xd8>)
 80065ac:	601a      	str	r2, [r3, #0]
				if( ulTotalRunTime > ulTaskSwitchedInTime )
 80065ae:	4b2c      	ldr	r3, [pc, #176]	; (8006660 <vTaskSwitchContext+0xd8>)
 80065b0:	681a      	ldr	r2, [r3, #0]
 80065b2:	4b2c      	ldr	r3, [pc, #176]	; (8006664 <vTaskSwitchContext+0xdc>)
 80065b4:	681b      	ldr	r3, [r3, #0]
 80065b6:	429a      	cmp	r2, r3
 80065b8:	d909      	bls.n	80065ce <vTaskSwitchContext+0x46>
					pxCurrentTCB->ulRunTimeCounter += ( ulTotalRunTime - ulTaskSwitchedInTime );
 80065ba:	4b2b      	ldr	r3, [pc, #172]	; (8006668 <vTaskSwitchContext+0xe0>)
 80065bc:	681b      	ldr	r3, [r3, #0]
 80065be:	6d59      	ldr	r1, [r3, #84]	; 0x54
 80065c0:	4a27      	ldr	r2, [pc, #156]	; (8006660 <vTaskSwitchContext+0xd8>)
 80065c2:	6810      	ldr	r0, [r2, #0]
 80065c4:	4a27      	ldr	r2, [pc, #156]	; (8006664 <vTaskSwitchContext+0xdc>)
 80065c6:	6812      	ldr	r2, [r2, #0]
 80065c8:	1a82      	subs	r2, r0, r2
 80065ca:	440a      	add	r2, r1
 80065cc:	655a      	str	r2, [r3, #84]	; 0x54
				ulTaskSwitchedInTime = ulTotalRunTime;
 80065ce:	4b24      	ldr	r3, [pc, #144]	; (8006660 <vTaskSwitchContext+0xd8>)
 80065d0:	681b      	ldr	r3, [r3, #0]
 80065d2:	4a24      	ldr	r2, [pc, #144]	; (8006664 <vTaskSwitchContext+0xdc>)
 80065d4:	6013      	str	r3, [r2, #0]
		taskSELECT_HIGHEST_PRIORITY_TASK();
 80065d6:	4b25      	ldr	r3, [pc, #148]	; (800666c <vTaskSwitchContext+0xe4>)
 80065d8:	681b      	ldr	r3, [r3, #0]
 80065da:	60fb      	str	r3, [r7, #12]
		__asm volatile ( "clz %0, %1" : "=r" ( ucReturn ) : "r" ( ulBitmap ) );
 80065dc:	68fb      	ldr	r3, [r7, #12]
 80065de:	fab3 f383 	clz	r3, r3
 80065e2:	72fb      	strb	r3, [r7, #11]
		return ucReturn;
 80065e4:	7afb      	ldrb	r3, [r7, #11]
 80065e6:	f1c3 031f 	rsb	r3, r3, #31
 80065ea:	617b      	str	r3, [r7, #20]
 80065ec:	4920      	ldr	r1, [pc, #128]	; (8006670 <vTaskSwitchContext+0xe8>)
 80065ee:	697a      	ldr	r2, [r7, #20]
 80065f0:	4613      	mov	r3, r2
 80065f2:	009b      	lsls	r3, r3, #2
 80065f4:	4413      	add	r3, r2
 80065f6:	009b      	lsls	r3, r3, #2
 80065f8:	440b      	add	r3, r1
 80065fa:	681b      	ldr	r3, [r3, #0]
 80065fc:	2b00      	cmp	r3, #0
 80065fe:	d109      	bne.n	8006614 <vTaskSwitchContext+0x8c>
	__asm volatile
 8006600:	f04f 0350 	mov.w	r3, #80	; 0x50
 8006604:	f383 8811 	msr	BASEPRI, r3
 8006608:	f3bf 8f6f 	isb	sy
 800660c:	f3bf 8f4f 	dsb	sy
 8006610:	607b      	str	r3, [r7, #4]
 8006612:	e7fe      	b.n	8006612 <vTaskSwitchContext+0x8a>
 8006614:	697a      	ldr	r2, [r7, #20]
 8006616:	4613      	mov	r3, r2
 8006618:	009b      	lsls	r3, r3, #2
 800661a:	4413      	add	r3, r2
 800661c:	009b      	lsls	r3, r3, #2
 800661e:	4a14      	ldr	r2, [pc, #80]	; (8006670 <vTaskSwitchContext+0xe8>)
 8006620:	4413      	add	r3, r2
 8006622:	613b      	str	r3, [r7, #16]
 8006624:	693b      	ldr	r3, [r7, #16]
 8006626:	685b      	ldr	r3, [r3, #4]
 8006628:	685a      	ldr	r2, [r3, #4]
 800662a:	693b      	ldr	r3, [r7, #16]
 800662c:	605a      	str	r2, [r3, #4]
 800662e:	693b      	ldr	r3, [r7, #16]
 8006630:	685a      	ldr	r2, [r3, #4]
 8006632:	693b      	ldr	r3, [r7, #16]
 8006634:	3308      	adds	r3, #8
 8006636:	429a      	cmp	r2, r3
 8006638:	d104      	bne.n	8006644 <vTaskSwitchContext+0xbc>
 800663a:	693b      	ldr	r3, [r7, #16]
 800663c:	685b      	ldr	r3, [r3, #4]
 800663e:	685a      	ldr	r2, [r3, #4]
 8006640:	693b      	ldr	r3, [r7, #16]
 8006642:	605a      	str	r2, [r3, #4]
 8006644:	693b      	ldr	r3, [r7, #16]
 8006646:	685b      	ldr	r3, [r3, #4]
 8006648:	68db      	ldr	r3, [r3, #12]
 800664a:	4a07      	ldr	r2, [pc, #28]	; (8006668 <vTaskSwitchContext+0xe0>)
 800664c:	6013      	str	r3, [r2, #0]
}
 800664e:	bf00      	nop
 8006650:	3718      	adds	r7, #24
 8006652:	46bd      	mov	sp, r7
 8006654:	bd80      	pop	{r7, pc}
 8006656:	bf00      	nop
 8006658:	2001105c 	.word	0x2001105c
 800665c:	20011048 	.word	0x20011048
 8006660:	20011064 	.word	0x20011064
 8006664:	20011060 	.word	0x20011060
 8006668:	20010f34 	.word	0x20010f34
 800666c:	2001103c 	.word	0x2001103c
 8006670:	20010f38 	.word	0x20010f38

08006674 <vTaskPlaceOnEventList>:
/*-----------------------------------------------------------*/

void vTaskPlaceOnEventList( List_t * const pxEventList, const TickType_t xTicksToWait )
{
 8006674:	b580      	push	{r7, lr}
 8006676:	b084      	sub	sp, #16
 8006678:	af00      	add	r7, sp, #0
 800667a:	6078      	str	r0, [r7, #4]
 800667c:	6039      	str	r1, [r7, #0]
	configASSERT( pxEventList );
 800667e:	687b      	ldr	r3, [r7, #4]
 8006680:	2b00      	cmp	r3, #0
 8006682:	d109      	bne.n	8006698 <vTaskPlaceOnEventList+0x24>
 8006684:	f04f 0350 	mov.w	r3, #80	; 0x50
 8006688:	f383 8811 	msr	BASEPRI, r3
 800668c:	f3bf 8f6f 	isb	sy
 8006690:	f3bf 8f4f 	dsb	sy
 8006694:	60fb      	str	r3, [r7, #12]
 8006696:	e7fe      	b.n	8006696 <vTaskPlaceOnEventList+0x22>

	/* Place the event list item of the TCB in the appropriate event list.
	This is placed in the list in priority order so the highest priority task
	is the first to be woken by the event.  The queue that contains the event
	list is locked, preventing simultaneous access from interrupts. */
	vListInsert( pxEventList, &( pxCurrentTCB->xEventListItem ) );
 8006698:	4b07      	ldr	r3, [pc, #28]	; (80066b8 <vTaskPlaceOnEventList+0x44>)
 800669a:	681b      	ldr	r3, [r3, #0]
 800669c:	3318      	adds	r3, #24
 800669e:	4619      	mov	r1, r3
 80066a0:	6878      	ldr	r0, [r7, #4]
 80066a2:	f7fe fee0 	bl	8005466 <vListInsert>

	prvAddCurrentTaskToDelayedList( xTicksToWait, pdTRUE );
 80066a6:	2101      	movs	r1, #1
 80066a8:	6838      	ldr	r0, [r7, #0]
 80066aa:	f000 faed 	bl	8006c88 <prvAddCurrentTaskToDelayedList>
}
 80066ae:	bf00      	nop
 80066b0:	3710      	adds	r7, #16
 80066b2:	46bd      	mov	sp, r7
 80066b4:	bd80      	pop	{r7, pc}
 80066b6:	bf00      	nop
 80066b8:	20010f34 	.word	0x20010f34

080066bc <xTaskRemoveFromEventList>:

#endif /* configUSE_TIMERS */
/*-----------------------------------------------------------*/

BaseType_t xTaskRemoveFromEventList( const List_t * const pxEventList )
{
 80066bc:	b580      	push	{r7, lr}
 80066be:	b086      	sub	sp, #24
 80066c0:	af00      	add	r7, sp, #0
 80066c2:	6078      	str	r0, [r7, #4]
	get called - the lock count on the queue will get modified instead.  This
	means exclusive access to the event list is guaranteed here.

	This function assumes that a check has already been made to ensure that
	pxEventList is not empty. */
	pxUnblockedTCB = ( TCB_t * ) listGET_OWNER_OF_HEAD_ENTRY( pxEventList );
 80066c4:	687b      	ldr	r3, [r7, #4]
 80066c6:	68db      	ldr	r3, [r3, #12]
 80066c8:	68db      	ldr	r3, [r3, #12]
 80066ca:	613b      	str	r3, [r7, #16]
	configASSERT( pxUnblockedTCB );
 80066cc:	693b      	ldr	r3, [r7, #16]
 80066ce:	2b00      	cmp	r3, #0
 80066d0:	d109      	bne.n	80066e6 <xTaskRemoveFromEventList+0x2a>
 80066d2:	f04f 0350 	mov.w	r3, #80	; 0x50
 80066d6:	f383 8811 	msr	BASEPRI, r3
 80066da:	f3bf 8f6f 	isb	sy
 80066de:	f3bf 8f4f 	dsb	sy
 80066e2:	60fb      	str	r3, [r7, #12]
 80066e4:	e7fe      	b.n	80066e4 <xTaskRemoveFromEventList+0x28>
	( void ) uxListRemove( &( pxUnblockedTCB->xEventListItem ) );
 80066e6:	693b      	ldr	r3, [r7, #16]
 80066e8:	3318      	adds	r3, #24
 80066ea:	4618      	mov	r0, r3
 80066ec:	f7fe fed2 	bl	8005494 <uxListRemove>

	if( uxSchedulerSuspended == ( UBaseType_t ) pdFALSE )
 80066f0:	4b1d      	ldr	r3, [pc, #116]	; (8006768 <xTaskRemoveFromEventList+0xac>)
 80066f2:	681b      	ldr	r3, [r3, #0]
 80066f4:	2b00      	cmp	r3, #0
 80066f6:	d11c      	bne.n	8006732 <xTaskRemoveFromEventList+0x76>
	{
		( void ) uxListRemove( &( pxUnblockedTCB->xStateListItem ) );
 80066f8:	693b      	ldr	r3, [r7, #16]
 80066fa:	3304      	adds	r3, #4
 80066fc:	4618      	mov	r0, r3
 80066fe:	f7fe fec9 	bl	8005494 <uxListRemove>
		prvAddTaskToReadyList( pxUnblockedTCB );
 8006702:	693b      	ldr	r3, [r7, #16]
 8006704:	6adb      	ldr	r3, [r3, #44]	; 0x2c
 8006706:	2201      	movs	r2, #1
 8006708:	409a      	lsls	r2, r3
 800670a:	4b18      	ldr	r3, [pc, #96]	; (800676c <xTaskRemoveFromEventList+0xb0>)
 800670c:	681b      	ldr	r3, [r3, #0]
 800670e:	4313      	orrs	r3, r2
 8006710:	4a16      	ldr	r2, [pc, #88]	; (800676c <xTaskRemoveFromEventList+0xb0>)
 8006712:	6013      	str	r3, [r2, #0]
 8006714:	693b      	ldr	r3, [r7, #16]
 8006716:	6ada      	ldr	r2, [r3, #44]	; 0x2c
 8006718:	4613      	mov	r3, r2
 800671a:	009b      	lsls	r3, r3, #2
 800671c:	4413      	add	r3, r2
 800671e:	009b      	lsls	r3, r3, #2
 8006720:	4a13      	ldr	r2, [pc, #76]	; (8006770 <xTaskRemoveFromEventList+0xb4>)
 8006722:	441a      	add	r2, r3
 8006724:	693b      	ldr	r3, [r7, #16]
 8006726:	3304      	adds	r3, #4
 8006728:	4619      	mov	r1, r3
 800672a:	4610      	mov	r0, r2
 800672c:	f7fe fe8f 	bl	800544e <vListInsertEnd>
 8006730:	e005      	b.n	800673e <xTaskRemoveFromEventList+0x82>
	}
	else
	{
		/* The delayed and ready lists cannot be accessed, so hold this task
		pending until the scheduler is resumed. */
		vListInsertEnd( &( xPendingReadyList ), &( pxUnblockedTCB->xEventListItem ) );
 8006732:	693b      	ldr	r3, [r7, #16]
 8006734:	3318      	adds	r3, #24
 8006736:	4619      	mov	r1, r3
 8006738:	480e      	ldr	r0, [pc, #56]	; (8006774 <xTaskRemoveFromEventList+0xb8>)
 800673a:	f7fe fe88 	bl	800544e <vListInsertEnd>
	}

	if( pxUnblockedTCB->uxPriority > pxCurrentTCB->uxPriority )
 800673e:	693b      	ldr	r3, [r7, #16]
 8006740:	6ada      	ldr	r2, [r3, #44]	; 0x2c
 8006742:	4b0d      	ldr	r3, [pc, #52]	; (8006778 <xTaskRemoveFromEventList+0xbc>)
 8006744:	681b      	ldr	r3, [r3, #0]
 8006746:	6adb      	ldr	r3, [r3, #44]	; 0x2c
 8006748:	429a      	cmp	r2, r3
 800674a:	d905      	bls.n	8006758 <xTaskRemoveFromEventList+0x9c>
	{
		/* Return true if the task removed from the event list has a higher
		priority than the calling task.  This allows the calling task to know if
		it should force a context switch now. */
		xReturn = pdTRUE;
 800674c:	2301      	movs	r3, #1
 800674e:	617b      	str	r3, [r7, #20]

		/* Mark that a yield is pending in case the user is not using the
		"xHigherPriorityTaskWoken" parameter to an ISR safe FreeRTOS function. */
		xYieldPending = pdTRUE;
 8006750:	4b0a      	ldr	r3, [pc, #40]	; (800677c <xTaskRemoveFromEventList+0xc0>)
 8006752:	2201      	movs	r2, #1
 8006754:	601a      	str	r2, [r3, #0]
 8006756:	e001      	b.n	800675c <xTaskRemoveFromEventList+0xa0>
	}
	else
	{
		xReturn = pdFALSE;
 8006758:	2300      	movs	r3, #0
 800675a:	617b      	str	r3, [r7, #20]
		ensure it is updated at the earliest possible time. */
		prvResetNextTaskUnblockTime();
	}
	#endif

	return xReturn;
 800675c:	697b      	ldr	r3, [r7, #20]
}
 800675e:	4618      	mov	r0, r3
 8006760:	3718      	adds	r7, #24
 8006762:	46bd      	mov	sp, r7
 8006764:	bd80      	pop	{r7, pc}
 8006766:	bf00      	nop
 8006768:	2001105c 	.word	0x2001105c
 800676c:	2001103c 	.word	0x2001103c
 8006770:	20010f38 	.word	0x20010f38
 8006774:	20010ff4 	.word	0x20010ff4
 8006778:	20010f34 	.word	0x20010f34
 800677c:	20011048 	.word	0x20011048

08006780 <vTaskSetTimeOutState>:
	return xReturn;
}
/*-----------------------------------------------------------*/

void vTaskSetTimeOutState( TimeOut_t * const pxTimeOut )
{
 8006780:	b480      	push	{r7}
 8006782:	b085      	sub	sp, #20
 8006784:	af00      	add	r7, sp, #0
 8006786:	6078      	str	r0, [r7, #4]
	configASSERT( pxTimeOut );
 8006788:	687b      	ldr	r3, [r7, #4]
 800678a:	2b00      	cmp	r3, #0
 800678c:	d109      	bne.n	80067a2 <vTaskSetTimeOutState+0x22>
 800678e:	f04f 0350 	mov.w	r3, #80	; 0x50
 8006792:	f383 8811 	msr	BASEPRI, r3
 8006796:	f3bf 8f6f 	isb	sy
 800679a:	f3bf 8f4f 	dsb	sy
 800679e:	60fb      	str	r3, [r7, #12]
 80067a0:	e7fe      	b.n	80067a0 <vTaskSetTimeOutState+0x20>
	pxTimeOut->xOverflowCount = xNumOfOverflows;
 80067a2:	4b07      	ldr	r3, [pc, #28]	; (80067c0 <vTaskSetTimeOutState+0x40>)
 80067a4:	681a      	ldr	r2, [r3, #0]
 80067a6:	687b      	ldr	r3, [r7, #4]
 80067a8:	601a      	str	r2, [r3, #0]
	pxTimeOut->xTimeOnEntering = xTickCount;
 80067aa:	4b06      	ldr	r3, [pc, #24]	; (80067c4 <vTaskSetTimeOutState+0x44>)
 80067ac:	681a      	ldr	r2, [r3, #0]
 80067ae:	687b      	ldr	r3, [r7, #4]
 80067b0:	605a      	str	r2, [r3, #4]
}
 80067b2:	bf00      	nop
 80067b4:	3714      	adds	r7, #20
 80067b6:	46bd      	mov	sp, r7
 80067b8:	f85d 7b04 	ldr.w	r7, [sp], #4
 80067bc:	4770      	bx	lr
 80067be:	bf00      	nop
 80067c0:	2001104c 	.word	0x2001104c
 80067c4:	20011038 	.word	0x20011038

080067c8 <xTaskCheckForTimeOut>:
/*-----------------------------------------------------------*/

BaseType_t xTaskCheckForTimeOut( TimeOut_t * const pxTimeOut, TickType_t * const pxTicksToWait )
{
 80067c8:	b580      	push	{r7, lr}
 80067ca:	b086      	sub	sp, #24
 80067cc:	af00      	add	r7, sp, #0
 80067ce:	6078      	str	r0, [r7, #4]
 80067d0:	6039      	str	r1, [r7, #0]
BaseType_t xReturn;

	configASSERT( pxTimeOut );
 80067d2:	687b      	ldr	r3, [r7, #4]
 80067d4:	2b00      	cmp	r3, #0
 80067d6:	d109      	bne.n	80067ec <xTaskCheckForTimeOut+0x24>
 80067d8:	f04f 0350 	mov.w	r3, #80	; 0x50
 80067dc:	f383 8811 	msr	BASEPRI, r3
 80067e0:	f3bf 8f6f 	isb	sy
 80067e4:	f3bf 8f4f 	dsb	sy
 80067e8:	60fb      	str	r3, [r7, #12]
 80067ea:	e7fe      	b.n	80067ea <xTaskCheckForTimeOut+0x22>
	configASSERT( pxTicksToWait );
 80067ec:	683b      	ldr	r3, [r7, #0]
 80067ee:	2b00      	cmp	r3, #0
 80067f0:	d109      	bne.n	8006806 <xTaskCheckForTimeOut+0x3e>
 80067f2:	f04f 0350 	mov.w	r3, #80	; 0x50
 80067f6:	f383 8811 	msr	BASEPRI, r3
 80067fa:	f3bf 8f6f 	isb	sy
 80067fe:	f3bf 8f4f 	dsb	sy
 8006802:	60bb      	str	r3, [r7, #8]
 8006804:	e7fe      	b.n	8006804 <xTaskCheckForTimeOut+0x3c>

	taskENTER_CRITICAL();
 8006806:	f7fe ff9d 	bl	8005744 <vPortEnterCritical>
	{
		/* Minor optimisation.  The tick count cannot change in this block. */
		const TickType_t xConstTickCount = xTickCount;
 800680a:	4b1c      	ldr	r3, [pc, #112]	; (800687c <xTaskCheckForTimeOut+0xb4>)
 800680c:	681b      	ldr	r3, [r3, #0]
 800680e:	613b      	str	r3, [r7, #16]
			}
			else
		#endif

		#if ( INCLUDE_vTaskSuspend == 1 )
			if( *pxTicksToWait == portMAX_DELAY )
 8006810:	683b      	ldr	r3, [r7, #0]
 8006812:	681b      	ldr	r3, [r3, #0]
 8006814:	f1b3 3fff 	cmp.w	r3, #4294967295
 8006818:	d102      	bne.n	8006820 <xTaskCheckForTimeOut+0x58>
			{
				/* If INCLUDE_vTaskSuspend is set to 1 and the block time
				specified is the maximum block time then the task should block
				indefinitely, and therefore never time out. */
				xReturn = pdFALSE;
 800681a:	2300      	movs	r3, #0
 800681c:	617b      	str	r3, [r7, #20]
 800681e:	e026      	b.n	800686e <xTaskCheckForTimeOut+0xa6>
			}
			else
		#endif

		if( ( xNumOfOverflows != pxTimeOut->xOverflowCount ) && ( xConstTickCount >= pxTimeOut->xTimeOnEntering ) ) /*lint !e525 Indentation preferred as is to make code within pre-processor directives clearer. */
 8006820:	687b      	ldr	r3, [r7, #4]
 8006822:	681a      	ldr	r2, [r3, #0]
 8006824:	4b16      	ldr	r3, [pc, #88]	; (8006880 <xTaskCheckForTimeOut+0xb8>)
 8006826:	681b      	ldr	r3, [r3, #0]
 8006828:	429a      	cmp	r2, r3
 800682a:	d007      	beq.n	800683c <xTaskCheckForTimeOut+0x74>
 800682c:	687b      	ldr	r3, [r7, #4]
 800682e:	685a      	ldr	r2, [r3, #4]
 8006830:	693b      	ldr	r3, [r7, #16]
 8006832:	429a      	cmp	r2, r3
 8006834:	d802      	bhi.n	800683c <xTaskCheckForTimeOut+0x74>
			/* The tick count is greater than the time at which
			vTaskSetTimeout() was called, but has also overflowed since
			vTaskSetTimeOut() was called.  It must have wrapped all the way
			around and gone past again. This passed since vTaskSetTimeout()
			was called. */
			xReturn = pdTRUE;
 8006836:	2301      	movs	r3, #1
 8006838:	617b      	str	r3, [r7, #20]
 800683a:	e018      	b.n	800686e <xTaskCheckForTimeOut+0xa6>
		}
		else if( ( ( TickType_t ) ( xConstTickCount - pxTimeOut->xTimeOnEntering ) ) < *pxTicksToWait ) /*lint !e961 Explicit casting is only redundant with some compilers, whereas others require it to prevent integer conversion errors. */
 800683c:	687b      	ldr	r3, [r7, #4]
 800683e:	685b      	ldr	r3, [r3, #4]
 8006840:	693a      	ldr	r2, [r7, #16]
 8006842:	1ad2      	subs	r2, r2, r3
 8006844:	683b      	ldr	r3, [r7, #0]
 8006846:	681b      	ldr	r3, [r3, #0]
 8006848:	429a      	cmp	r2, r3
 800684a:	d20e      	bcs.n	800686a <xTaskCheckForTimeOut+0xa2>
		{
			/* Not a genuine timeout. Adjust parameters for time remaining. */
			*pxTicksToWait -= ( xConstTickCount - pxTimeOut->xTimeOnEntering );
 800684c:	683b      	ldr	r3, [r7, #0]
 800684e:	681a      	ldr	r2, [r3, #0]
 8006850:	687b      	ldr	r3, [r7, #4]
 8006852:	6859      	ldr	r1, [r3, #4]
 8006854:	693b      	ldr	r3, [r7, #16]
 8006856:	1acb      	subs	r3, r1, r3
 8006858:	441a      	add	r2, r3
 800685a:	683b      	ldr	r3, [r7, #0]
 800685c:	601a      	str	r2, [r3, #0]
			vTaskSetTimeOutState( pxTimeOut );
 800685e:	6878      	ldr	r0, [r7, #4]
 8006860:	f7ff ff8e 	bl	8006780 <vTaskSetTimeOutState>
			xReturn = pdFALSE;
 8006864:	2300      	movs	r3, #0
 8006866:	617b      	str	r3, [r7, #20]
 8006868:	e001      	b.n	800686e <xTaskCheckForTimeOut+0xa6>
		}
		else
		{
			xReturn = pdTRUE;
 800686a:	2301      	movs	r3, #1
 800686c:	617b      	str	r3, [r7, #20]
		}
	}
	taskEXIT_CRITICAL();
 800686e:	f7fe ff8b 	bl	8005788 <vPortExitCritical>

	return xReturn;
 8006872:	697b      	ldr	r3, [r7, #20]
}
 8006874:	4618      	mov	r0, r3
 8006876:	3718      	adds	r7, #24
 8006878:	46bd      	mov	sp, r7
 800687a:	bd80      	pop	{r7, pc}
 800687c:	20011038 	.word	0x20011038
 8006880:	2001104c 	.word	0x2001104c

08006884 <vTaskMissedYield>:
/*-----------------------------------------------------------*/

void vTaskMissedYield( void )
{
 8006884:	b480      	push	{r7}
 8006886:	af00      	add	r7, sp, #0
	xYieldPending = pdTRUE;
 8006888:	4b03      	ldr	r3, [pc, #12]	; (8006898 <vTaskMissedYield+0x14>)
 800688a:	2201      	movs	r2, #1
 800688c:	601a      	str	r2, [r3, #0]
}
 800688e:	bf00      	nop
 8006890:	46bd      	mov	sp, r7
 8006892:	f85d 7b04 	ldr.w	r7, [sp], #4
 8006896:	4770      	bx	lr
 8006898:	20011048 	.word	0x20011048

0800689c <prvIdleTask>:
 *
 * void prvIdleTask( void *pvParameters );
 *
 */
static portTASK_FUNCTION( prvIdleTask, pvParameters )
{
 800689c:	b580      	push	{r7, lr}
 800689e:	b082      	sub	sp, #8
 80068a0:	af00      	add	r7, sp, #0
 80068a2:	6078      	str	r0, [r7, #4]

	for( ;; )
	{
		/* See if any tasks have deleted themselves - if so then the idle task
		is responsible for freeing the deleted task's TCB and stack. */
		prvCheckTasksWaitingTermination();
 80068a4:	f000 f852 	bl	800694c <prvCheckTasksWaitingTermination>

			A critical region is not required here as we are just reading from
			the list, and an occasional incorrect value will not matter.  If
			the ready list at the idle priority contains more than one task
			then a task other than the idle task is ready to execute. */
			if( listCURRENT_LIST_LENGTH( &( pxReadyTasksLists[ tskIDLE_PRIORITY ] ) ) > ( UBaseType_t ) 1 )
 80068a8:	4b06      	ldr	r3, [pc, #24]	; (80068c4 <prvIdleTask+0x28>)
 80068aa:	681b      	ldr	r3, [r3, #0]
 80068ac:	2b01      	cmp	r3, #1
 80068ae:	d9f9      	bls.n	80068a4 <prvIdleTask+0x8>
			{
				taskYIELD();
 80068b0:	4b05      	ldr	r3, [pc, #20]	; (80068c8 <prvIdleTask+0x2c>)
 80068b2:	f04f 5280 	mov.w	r2, #268435456	; 0x10000000
 80068b6:	601a      	str	r2, [r3, #0]
 80068b8:	f3bf 8f4f 	dsb	sy
 80068bc:	f3bf 8f6f 	isb	sy
		prvCheckTasksWaitingTermination();
 80068c0:	e7f0      	b.n	80068a4 <prvIdleTask+0x8>
 80068c2:	bf00      	nop
 80068c4:	20010f38 	.word	0x20010f38
 80068c8:	e000ed04 	.word	0xe000ed04

080068cc <prvInitialiseTaskLists>:

#endif /* portUSING_MPU_WRAPPERS */
/*-----------------------------------------------------------*/

static void prvInitialiseTaskLists( void )
{
 80068cc:	b580      	push	{r7, lr}
 80068ce:	b082      	sub	sp, #8
 80068d0:	af00      	add	r7, sp, #0
UBaseType_t uxPriority;

	for( uxPriority = ( UBaseType_t ) 0U; uxPriority < ( UBaseType_t ) configMAX_PRIORITIES; uxPriority++ )
 80068d2:	2300      	movs	r3, #0
 80068d4:	607b      	str	r3, [r7, #4]
 80068d6:	e00c      	b.n	80068f2 <prvInitialiseTaskLists+0x26>
	{
		vListInitialise( &( pxReadyTasksLists[ uxPriority ] ) );
 80068d8:	687a      	ldr	r2, [r7, #4]
 80068da:	4613      	mov	r3, r2
 80068dc:	009b      	lsls	r3, r3, #2
 80068de:	4413      	add	r3, r2
 80068e0:	009b      	lsls	r3, r3, #2
 80068e2:	4a12      	ldr	r2, [pc, #72]	; (800692c <prvInitialiseTaskLists+0x60>)
 80068e4:	4413      	add	r3, r2
 80068e6:	4618      	mov	r0, r3
 80068e8:	f7fe fda3 	bl	8005432 <vListInitialise>
	for( uxPriority = ( UBaseType_t ) 0U; uxPriority < ( UBaseType_t ) configMAX_PRIORITIES; uxPriority++ )
 80068ec:	687b      	ldr	r3, [r7, #4]
 80068ee:	3301      	adds	r3, #1
 80068f0:	607b      	str	r3, [r7, #4]
 80068f2:	687b      	ldr	r3, [r7, #4]
 80068f4:	2b06      	cmp	r3, #6
 80068f6:	d9ef      	bls.n	80068d8 <prvInitialiseTaskLists+0xc>
	}

	vListInitialise( &xDelayedTaskList1 );
 80068f8:	480d      	ldr	r0, [pc, #52]	; (8006930 <prvInitialiseTaskLists+0x64>)
 80068fa:	f7fe fd9a 	bl	8005432 <vListInitialise>
	vListInitialise( &xDelayedTaskList2 );
 80068fe:	480d      	ldr	r0, [pc, #52]	; (8006934 <prvInitialiseTaskLists+0x68>)
 8006900:	f7fe fd97 	bl	8005432 <vListInitialise>
	vListInitialise( &xPendingReadyList );
 8006904:	480c      	ldr	r0, [pc, #48]	; (8006938 <prvInitialiseTaskLists+0x6c>)
 8006906:	f7fe fd94 	bl	8005432 <vListInitialise>

	#if ( INCLUDE_vTaskDelete == 1 )
	{
		vListInitialise( &xTasksWaitingTermination );
 800690a:	480c      	ldr	r0, [pc, #48]	; (800693c <prvInitialiseTaskLists+0x70>)
 800690c:	f7fe fd91 	bl	8005432 <vListInitialise>
	}
	#endif /* INCLUDE_vTaskDelete */

	#if ( INCLUDE_vTaskSuspend == 1 )
	{
		vListInitialise( &xSuspendedTaskList );
 8006910:	480b      	ldr	r0, [pc, #44]	; (8006940 <prvInitialiseTaskLists+0x74>)
 8006912:	f7fe fd8e 	bl	8005432 <vListInitialise>
	}
	#endif /* INCLUDE_vTaskSuspend */

	/* Start with pxDelayedTaskList using list1 and the pxOverflowDelayedTaskList
	using list2. */
	pxDelayedTaskList = &xDelayedTaskList1;
 8006916:	4b0b      	ldr	r3, [pc, #44]	; (8006944 <prvInitialiseTaskLists+0x78>)
 8006918:	4a05      	ldr	r2, [pc, #20]	; (8006930 <prvInitialiseTaskLists+0x64>)
 800691a:	601a      	str	r2, [r3, #0]
	pxOverflowDelayedTaskList = &xDelayedTaskList2;
 800691c:	4b0a      	ldr	r3, [pc, #40]	; (8006948 <prvInitialiseTaskLists+0x7c>)
 800691e:	4a05      	ldr	r2, [pc, #20]	; (8006934 <prvInitialiseTaskLists+0x68>)
 8006920:	601a      	str	r2, [r3, #0]
}
 8006922:	bf00      	nop
 8006924:	3708      	adds	r7, #8
 8006926:	46bd      	mov	sp, r7
 8006928:	bd80      	pop	{r7, pc}
 800692a:	bf00      	nop
 800692c:	20010f38 	.word	0x20010f38
 8006930:	20010fc4 	.word	0x20010fc4
 8006934:	20010fd8 	.word	0x20010fd8
 8006938:	20010ff4 	.word	0x20010ff4
 800693c:	20011008 	.word	0x20011008
 8006940:	20011020 	.word	0x20011020
 8006944:	20010fec 	.word	0x20010fec
 8006948:	20010ff0 	.word	0x20010ff0

0800694c <prvCheckTasksWaitingTermination>:
/*-----------------------------------------------------------*/

static void prvCheckTasksWaitingTermination( void )
{
 800694c:	b580      	push	{r7, lr}
 800694e:	b082      	sub	sp, #8
 8006950:	af00      	add	r7, sp, #0
	{
		BaseType_t xListIsEmpty;

		/* ucTasksDeleted is used to prevent vTaskSuspendAll() being called
		too often in the idle task. */
		while( uxDeletedTasksWaitingCleanUp > ( UBaseType_t ) 0U )
 8006952:	e028      	b.n	80069a6 <prvCheckTasksWaitingTermination+0x5a>
		{
			vTaskSuspendAll();
 8006954:	f7ff fcb2 	bl	80062bc <vTaskSuspendAll>
			{
				xListIsEmpty = listLIST_IS_EMPTY( &xTasksWaitingTermination );
 8006958:	4b17      	ldr	r3, [pc, #92]	; (80069b8 <prvCheckTasksWaitingTermination+0x6c>)
 800695a:	681b      	ldr	r3, [r3, #0]
 800695c:	2b00      	cmp	r3, #0
 800695e:	bf0c      	ite	eq
 8006960:	2301      	moveq	r3, #1
 8006962:	2300      	movne	r3, #0
 8006964:	b2db      	uxtb	r3, r3
 8006966:	607b      	str	r3, [r7, #4]
			}
			( void ) xTaskResumeAll();
 8006968:	f7ff fcb6 	bl	80062d8 <xTaskResumeAll>

			if( xListIsEmpty == pdFALSE )
 800696c:	687b      	ldr	r3, [r7, #4]
 800696e:	2b00      	cmp	r3, #0
 8006970:	d119      	bne.n	80069a6 <prvCheckTasksWaitingTermination+0x5a>
			{
				TCB_t *pxTCB;

				taskENTER_CRITICAL();
 8006972:	f7fe fee7 	bl	8005744 <vPortEnterCritical>
				{
					pxTCB = ( TCB_t * ) listGET_OWNER_OF_HEAD_ENTRY( ( &xTasksWaitingTermination ) );
 8006976:	4b10      	ldr	r3, [pc, #64]	; (80069b8 <prvCheckTasksWaitingTermination+0x6c>)
 8006978:	68db      	ldr	r3, [r3, #12]
 800697a:	68db      	ldr	r3, [r3, #12]
 800697c:	603b      	str	r3, [r7, #0]
					( void ) uxListRemove( &( pxTCB->xStateListItem ) );
 800697e:	683b      	ldr	r3, [r7, #0]
 8006980:	3304      	adds	r3, #4
 8006982:	4618      	mov	r0, r3
 8006984:	f7fe fd86 	bl	8005494 <uxListRemove>
					--uxCurrentNumberOfTasks;
 8006988:	4b0c      	ldr	r3, [pc, #48]	; (80069bc <prvCheckTasksWaitingTermination+0x70>)
 800698a:	681b      	ldr	r3, [r3, #0]
 800698c:	3b01      	subs	r3, #1
 800698e:	4a0b      	ldr	r2, [pc, #44]	; (80069bc <prvCheckTasksWaitingTermination+0x70>)
 8006990:	6013      	str	r3, [r2, #0]
					--uxDeletedTasksWaitingCleanUp;
 8006992:	4b0b      	ldr	r3, [pc, #44]	; (80069c0 <prvCheckTasksWaitingTermination+0x74>)
 8006994:	681b      	ldr	r3, [r3, #0]
 8006996:	3b01      	subs	r3, #1
 8006998:	4a09      	ldr	r2, [pc, #36]	; (80069c0 <prvCheckTasksWaitingTermination+0x74>)
 800699a:	6013      	str	r3, [r2, #0]
				}
				taskEXIT_CRITICAL();
 800699c:	f7fe fef4 	bl	8005788 <vPortExitCritical>

				prvDeleteTCB( pxTCB );
 80069a0:	6838      	ldr	r0, [r7, #0]
 80069a2:	f000 f80f 	bl	80069c4 <prvDeleteTCB>
		while( uxDeletedTasksWaitingCleanUp > ( UBaseType_t ) 0U )
 80069a6:	4b06      	ldr	r3, [pc, #24]	; (80069c0 <prvCheckTasksWaitingTermination+0x74>)
 80069a8:	681b      	ldr	r3, [r3, #0]
 80069aa:	2b00      	cmp	r3, #0
 80069ac:	d1d2      	bne.n	8006954 <prvCheckTasksWaitingTermination+0x8>
				mtCOVERAGE_TEST_MARKER();
			}
		}
	}
	#endif /* INCLUDE_vTaskDelete */
}
 80069ae:	bf00      	nop
 80069b0:	3708      	adds	r7, #8
 80069b2:	46bd      	mov	sp, r7
 80069b4:	bd80      	pop	{r7, pc}
 80069b6:	bf00      	nop
 80069b8:	20011008 	.word	0x20011008
 80069bc:	20011034 	.word	0x20011034
 80069c0:	2001101c 	.word	0x2001101c

080069c4 <prvDeleteTCB>:
/*-----------------------------------------------------------*/

#if ( INCLUDE_vTaskDelete == 1 )

	static void prvDeleteTCB( TCB_t *pxTCB )
	{
 80069c4:	b580      	push	{r7, lr}
 80069c6:	b082      	sub	sp, #8
 80069c8:	af00      	add	r7, sp, #0
 80069ca:	6078      	str	r0, [r7, #4]

		#if( ( configSUPPORT_DYNAMIC_ALLOCATION == 1 ) && ( configSUPPORT_STATIC_ALLOCATION == 0 ) && ( portUSING_MPU_WRAPPERS == 0 ) )
		{
			/* The task can only have been allocated dynamically - free both
			the stack and TCB. */
			vPortFree( pxTCB->pxStack );
 80069cc:	687b      	ldr	r3, [r7, #4]
 80069ce:	6b1b      	ldr	r3, [r3, #48]	; 0x30
 80069d0:	4618      	mov	r0, r3
 80069d2:	f7fe fe21 	bl	8005618 <vPortFree>
			vPortFree( pxTCB );
 80069d6:	6878      	ldr	r0, [r7, #4]
 80069d8:	f7fe fe1e 	bl	8005618 <vPortFree>
				configASSERT( pxTCB->ucStaticallyAllocated == tskSTATICALLY_ALLOCATED_STACK_AND_TCB	)
				mtCOVERAGE_TEST_MARKER();
			}
		}
		#endif /* configSUPPORT_DYNAMIC_ALLOCATION */
	}
 80069dc:	bf00      	nop
 80069de:	3708      	adds	r7, #8
 80069e0:	46bd      	mov	sp, r7
 80069e2:	bd80      	pop	{r7, pc}

080069e4 <prvResetNextTaskUnblockTime>:

#endif /* INCLUDE_vTaskDelete */
/*-----------------------------------------------------------*/

static void prvResetNextTaskUnblockTime( void )
{
 80069e4:	b480      	push	{r7}
 80069e6:	b083      	sub	sp, #12
 80069e8:	af00      	add	r7, sp, #0
TCB_t *pxTCB;

	if( listLIST_IS_EMPTY( pxDelayedTaskList ) != pdFALSE )
 80069ea:	4b0f      	ldr	r3, [pc, #60]	; (8006a28 <prvResetNextTaskUnblockTime+0x44>)
 80069ec:	681b      	ldr	r3, [r3, #0]
 80069ee:	681b      	ldr	r3, [r3, #0]
 80069f0:	2b00      	cmp	r3, #0
 80069f2:	d101      	bne.n	80069f8 <prvResetNextTaskUnblockTime+0x14>
 80069f4:	2301      	movs	r3, #1
 80069f6:	e000      	b.n	80069fa <prvResetNextTaskUnblockTime+0x16>
 80069f8:	2300      	movs	r3, #0
 80069fa:	2b00      	cmp	r3, #0
 80069fc:	d004      	beq.n	8006a08 <prvResetNextTaskUnblockTime+0x24>
	{
		/* The new current delayed list is empty.  Set xNextTaskUnblockTime to
		the maximum possible value so it is	extremely unlikely that the
		if( xTickCount >= xNextTaskUnblockTime ) test will pass until
		there is an item in the delayed list. */
		xNextTaskUnblockTime = portMAX_DELAY;
 80069fe:	4b0b      	ldr	r3, [pc, #44]	; (8006a2c <prvResetNextTaskUnblockTime+0x48>)
 8006a00:	f04f 32ff 	mov.w	r2, #4294967295
 8006a04:	601a      	str	r2, [r3, #0]
		which the task at the head of the delayed list should be removed
		from the Blocked state. */
		( pxTCB ) = ( TCB_t * ) listGET_OWNER_OF_HEAD_ENTRY( pxDelayedTaskList );
		xNextTaskUnblockTime = listGET_LIST_ITEM_VALUE( &( ( pxTCB )->xStateListItem ) );
	}
}
 8006a06:	e008      	b.n	8006a1a <prvResetNextTaskUnblockTime+0x36>
		( pxTCB ) = ( TCB_t * ) listGET_OWNER_OF_HEAD_ENTRY( pxDelayedTaskList );
 8006a08:	4b07      	ldr	r3, [pc, #28]	; (8006a28 <prvResetNextTaskUnblockTime+0x44>)
 8006a0a:	681b      	ldr	r3, [r3, #0]
 8006a0c:	68db      	ldr	r3, [r3, #12]
 8006a0e:	68db      	ldr	r3, [r3, #12]
 8006a10:	607b      	str	r3, [r7, #4]
		xNextTaskUnblockTime = listGET_LIST_ITEM_VALUE( &( ( pxTCB )->xStateListItem ) );
 8006a12:	687b      	ldr	r3, [r7, #4]
 8006a14:	685b      	ldr	r3, [r3, #4]
 8006a16:	4a05      	ldr	r2, [pc, #20]	; (8006a2c <prvResetNextTaskUnblockTime+0x48>)
 8006a18:	6013      	str	r3, [r2, #0]
}
 8006a1a:	bf00      	nop
 8006a1c:	370c      	adds	r7, #12
 8006a1e:	46bd      	mov	sp, r7
 8006a20:	f85d 7b04 	ldr.w	r7, [sp], #4
 8006a24:	4770      	bx	lr
 8006a26:	bf00      	nop
 8006a28:	20010fec 	.word	0x20010fec
 8006a2c:	20011054 	.word	0x20011054

08006a30 <xTaskGetSchedulerState>:
/*-----------------------------------------------------------*/

#if ( ( INCLUDE_xTaskGetSchedulerState == 1 ) || ( configUSE_TIMERS == 1 ) )

	BaseType_t xTaskGetSchedulerState( void )
	{
 8006a30:	b480      	push	{r7}
 8006a32:	b083      	sub	sp, #12
 8006a34:	af00      	add	r7, sp, #0
	BaseType_t xReturn;

		if( xSchedulerRunning == pdFALSE )
 8006a36:	4b0b      	ldr	r3, [pc, #44]	; (8006a64 <xTaskGetSchedulerState+0x34>)
 8006a38:	681b      	ldr	r3, [r3, #0]
 8006a3a:	2b00      	cmp	r3, #0
 8006a3c:	d102      	bne.n	8006a44 <xTaskGetSchedulerState+0x14>
		{
			xReturn = taskSCHEDULER_NOT_STARTED;
 8006a3e:	2301      	movs	r3, #1
 8006a40:	607b      	str	r3, [r7, #4]
 8006a42:	e008      	b.n	8006a56 <xTaskGetSchedulerState+0x26>
		}
		else
		{
			if( uxSchedulerSuspended == ( UBaseType_t ) pdFALSE )
 8006a44:	4b08      	ldr	r3, [pc, #32]	; (8006a68 <xTaskGetSchedulerState+0x38>)
 8006a46:	681b      	ldr	r3, [r3, #0]
 8006a48:	2b00      	cmp	r3, #0
 8006a4a:	d102      	bne.n	8006a52 <xTaskGetSchedulerState+0x22>
			{
				xReturn = taskSCHEDULER_RUNNING;
 8006a4c:	2302      	movs	r3, #2
 8006a4e:	607b      	str	r3, [r7, #4]
 8006a50:	e001      	b.n	8006a56 <xTaskGetSchedulerState+0x26>
			}
			else
			{
				xReturn = taskSCHEDULER_SUSPENDED;
 8006a52:	2300      	movs	r3, #0
 8006a54:	607b      	str	r3, [r7, #4]
			}
		}

		return xReturn;
 8006a56:	687b      	ldr	r3, [r7, #4]
	}
 8006a58:	4618      	mov	r0, r3
 8006a5a:	370c      	adds	r7, #12
 8006a5c:	46bd      	mov	sp, r7
 8006a5e:	f85d 7b04 	ldr.w	r7, [sp], #4
 8006a62:	4770      	bx	lr
 8006a64:	20011040 	.word	0x20011040
 8006a68:	2001105c 	.word	0x2001105c

08006a6c <vTaskPriorityInherit>:
/*-----------------------------------------------------------*/

#if ( configUSE_MUTEXES == 1 )

	void vTaskPriorityInherit( TaskHandle_t const pxMutexHolder )
	{
 8006a6c:	b580      	push	{r7, lr}
 8006a6e:	b084      	sub	sp, #16
 8006a70:	af00      	add	r7, sp, #0
 8006a72:	6078      	str	r0, [r7, #4]
	TCB_t * const pxTCB = ( TCB_t * ) pxMutexHolder;
 8006a74:	687b      	ldr	r3, [r7, #4]
 8006a76:	60fb      	str	r3, [r7, #12]

		/* If the mutex was given back by an interrupt while the queue was
		locked then the mutex holder might now be NULL. */
		if( pxMutexHolder != NULL )
 8006a78:	687b      	ldr	r3, [r7, #4]
 8006a7a:	2b00      	cmp	r3, #0
 8006a7c:	d062      	beq.n	8006b44 <vTaskPriorityInherit+0xd8>
		{
			/* If the holder of the mutex has a priority below the priority of
			the task attempting to obtain the mutex then it will temporarily
			inherit the priority of the task attempting to obtain the mutex. */
			if( pxTCB->uxPriority < pxCurrentTCB->uxPriority )
 8006a7e:	68fb      	ldr	r3, [r7, #12]
 8006a80:	6ada      	ldr	r2, [r3, #44]	; 0x2c
 8006a82:	4b32      	ldr	r3, [pc, #200]	; (8006b4c <vTaskPriorityInherit+0xe0>)
 8006a84:	681b      	ldr	r3, [r3, #0]
 8006a86:	6adb      	ldr	r3, [r3, #44]	; 0x2c
 8006a88:	429a      	cmp	r2, r3
 8006a8a:	d25b      	bcs.n	8006b44 <vTaskPriorityInherit+0xd8>
			{
				/* Adjust the mutex holder state to account for its new
				priority.  Only reset the event list item value if the value is
				not	being used for anything else. */
				if( ( listGET_LIST_ITEM_VALUE( &( pxTCB->xEventListItem ) ) & taskEVENT_LIST_ITEM_VALUE_IN_USE ) == 0UL )
 8006a8c:	68fb      	ldr	r3, [r7, #12]
 8006a8e:	699b      	ldr	r3, [r3, #24]
 8006a90:	2b00      	cmp	r3, #0
 8006a92:	db06      	blt.n	8006aa2 <vTaskPriorityInherit+0x36>
				{
					listSET_LIST_ITEM_VALUE( &( pxTCB->xEventListItem ), ( TickType_t ) configMAX_PRIORITIES - ( TickType_t ) pxCurrentTCB->uxPriority ); /*lint !e961 MISRA exception as the casts are only redundant for some ports. */
 8006a94:	4b2d      	ldr	r3, [pc, #180]	; (8006b4c <vTaskPriorityInherit+0xe0>)
 8006a96:	681b      	ldr	r3, [r3, #0]
 8006a98:	6adb      	ldr	r3, [r3, #44]	; 0x2c
 8006a9a:	f1c3 0207 	rsb	r2, r3, #7
 8006a9e:	68fb      	ldr	r3, [r7, #12]
 8006aa0:	619a      	str	r2, [r3, #24]
					mtCOVERAGE_TEST_MARKER();
				}

				/* If the task being modified is in the ready state it will need
				to be moved into a new list. */
				if( listIS_CONTAINED_WITHIN( &( pxReadyTasksLists[ pxTCB->uxPriority ] ), &( pxTCB->xStateListItem ) ) != pdFALSE )
 8006aa2:	68fb      	ldr	r3, [r7, #12]
 8006aa4:	6959      	ldr	r1, [r3, #20]
 8006aa6:	68fb      	ldr	r3, [r7, #12]
 8006aa8:	6ada      	ldr	r2, [r3, #44]	; 0x2c
 8006aaa:	4613      	mov	r3, r2
 8006aac:	009b      	lsls	r3, r3, #2
 8006aae:	4413      	add	r3, r2
 8006ab0:	009b      	lsls	r3, r3, #2
 8006ab2:	4a27      	ldr	r2, [pc, #156]	; (8006b50 <vTaskPriorityInherit+0xe4>)
 8006ab4:	4413      	add	r3, r2
 8006ab6:	4299      	cmp	r1, r3
 8006ab8:	d101      	bne.n	8006abe <vTaskPriorityInherit+0x52>
 8006aba:	2301      	movs	r3, #1
 8006abc:	e000      	b.n	8006ac0 <vTaskPriorityInherit+0x54>
 8006abe:	2300      	movs	r3, #0
 8006ac0:	2b00      	cmp	r3, #0
 8006ac2:	d03a      	beq.n	8006b3a <vTaskPriorityInherit+0xce>
				{
					if( uxListRemove( &( pxTCB->xStateListItem ) ) == ( UBaseType_t ) 0 )
 8006ac4:	68fb      	ldr	r3, [r7, #12]
 8006ac6:	3304      	adds	r3, #4
 8006ac8:	4618      	mov	r0, r3
 8006aca:	f7fe fce3 	bl	8005494 <uxListRemove>
 8006ace:	4603      	mov	r3, r0
 8006ad0:	2b00      	cmp	r3, #0
 8006ad2:	d115      	bne.n	8006b00 <vTaskPriorityInherit+0x94>
					{
						taskRESET_READY_PRIORITY( pxTCB->uxPriority );
 8006ad4:	68fb      	ldr	r3, [r7, #12]
 8006ad6:	6ada      	ldr	r2, [r3, #44]	; 0x2c
 8006ad8:	491d      	ldr	r1, [pc, #116]	; (8006b50 <vTaskPriorityInherit+0xe4>)
 8006ada:	4613      	mov	r3, r2
 8006adc:	009b      	lsls	r3, r3, #2
 8006ade:	4413      	add	r3, r2
 8006ae0:	009b      	lsls	r3, r3, #2
 8006ae2:	440b      	add	r3, r1
 8006ae4:	681b      	ldr	r3, [r3, #0]
 8006ae6:	2b00      	cmp	r3, #0
 8006ae8:	d10a      	bne.n	8006b00 <vTaskPriorityInherit+0x94>
 8006aea:	68fb      	ldr	r3, [r7, #12]
 8006aec:	6adb      	ldr	r3, [r3, #44]	; 0x2c
 8006aee:	2201      	movs	r2, #1
 8006af0:	fa02 f303 	lsl.w	r3, r2, r3
 8006af4:	43da      	mvns	r2, r3
 8006af6:	4b17      	ldr	r3, [pc, #92]	; (8006b54 <vTaskPriorityInherit+0xe8>)
 8006af8:	681b      	ldr	r3, [r3, #0]
 8006afa:	4013      	ands	r3, r2
 8006afc:	4a15      	ldr	r2, [pc, #84]	; (8006b54 <vTaskPriorityInherit+0xe8>)
 8006afe:	6013      	str	r3, [r2, #0]
					{
						mtCOVERAGE_TEST_MARKER();
					}

					/* Inherit the priority before being moved into the new list. */
					pxTCB->uxPriority = pxCurrentTCB->uxPriority;
 8006b00:	4b12      	ldr	r3, [pc, #72]	; (8006b4c <vTaskPriorityInherit+0xe0>)
 8006b02:	681b      	ldr	r3, [r3, #0]
 8006b04:	6ada      	ldr	r2, [r3, #44]	; 0x2c
 8006b06:	68fb      	ldr	r3, [r7, #12]
 8006b08:	62da      	str	r2, [r3, #44]	; 0x2c
					prvAddTaskToReadyList( pxTCB );
 8006b0a:	68fb      	ldr	r3, [r7, #12]
 8006b0c:	6adb      	ldr	r3, [r3, #44]	; 0x2c
 8006b0e:	2201      	movs	r2, #1
 8006b10:	409a      	lsls	r2, r3
 8006b12:	4b10      	ldr	r3, [pc, #64]	; (8006b54 <vTaskPriorityInherit+0xe8>)
 8006b14:	681b      	ldr	r3, [r3, #0]
 8006b16:	4313      	orrs	r3, r2
 8006b18:	4a0e      	ldr	r2, [pc, #56]	; (8006b54 <vTaskPriorityInherit+0xe8>)
 8006b1a:	6013      	str	r3, [r2, #0]
 8006b1c:	68fb      	ldr	r3, [r7, #12]
 8006b1e:	6ada      	ldr	r2, [r3, #44]	; 0x2c
 8006b20:	4613      	mov	r3, r2
 8006b22:	009b      	lsls	r3, r3, #2
 8006b24:	4413      	add	r3, r2
 8006b26:	009b      	lsls	r3, r3, #2
 8006b28:	4a09      	ldr	r2, [pc, #36]	; (8006b50 <vTaskPriorityInherit+0xe4>)
 8006b2a:	441a      	add	r2, r3
 8006b2c:	68fb      	ldr	r3, [r7, #12]
 8006b2e:	3304      	adds	r3, #4
 8006b30:	4619      	mov	r1, r3
 8006b32:	4610      	mov	r0, r2
 8006b34:	f7fe fc8b 	bl	800544e <vListInsertEnd>
		}
		else
		{
			mtCOVERAGE_TEST_MARKER();
		}
	}
 8006b38:	e004      	b.n	8006b44 <vTaskPriorityInherit+0xd8>
					pxTCB->uxPriority = pxCurrentTCB->uxPriority;
 8006b3a:	4b04      	ldr	r3, [pc, #16]	; (8006b4c <vTaskPriorityInherit+0xe0>)
 8006b3c:	681b      	ldr	r3, [r3, #0]
 8006b3e:	6ada      	ldr	r2, [r3, #44]	; 0x2c
 8006b40:	68fb      	ldr	r3, [r7, #12]
 8006b42:	62da      	str	r2, [r3, #44]	; 0x2c
	}
 8006b44:	bf00      	nop
 8006b46:	3710      	adds	r7, #16
 8006b48:	46bd      	mov	sp, r7
 8006b4a:	bd80      	pop	{r7, pc}
 8006b4c:	20010f34 	.word	0x20010f34
 8006b50:	20010f38 	.word	0x20010f38
 8006b54:	2001103c 	.word	0x2001103c

08006b58 <xTaskPriorityDisinherit>:
/*-----------------------------------------------------------*/

#if ( configUSE_MUTEXES == 1 )

	BaseType_t xTaskPriorityDisinherit( TaskHandle_t const pxMutexHolder )
	{
 8006b58:	b580      	push	{r7, lr}
 8006b5a:	b086      	sub	sp, #24
 8006b5c:	af00      	add	r7, sp, #0
 8006b5e:	6078      	str	r0, [r7, #4]
	TCB_t * const pxTCB = ( TCB_t * ) pxMutexHolder;
 8006b60:	687b      	ldr	r3, [r7, #4]
 8006b62:	613b      	str	r3, [r7, #16]
	BaseType_t xReturn = pdFALSE;
 8006b64:	2300      	movs	r3, #0
 8006b66:	617b      	str	r3, [r7, #20]

		if( pxMutexHolder != NULL )
 8006b68:	687b      	ldr	r3, [r7, #4]
 8006b6a:	2b00      	cmp	r3, #0
 8006b6c:	d06c      	beq.n	8006c48 <xTaskPriorityDisinherit+0xf0>
		{
			/* A task can only have an inherited priority if it holds the mutex.
			If the mutex is held by a task then it cannot be given from an
			interrupt, and if a mutex is given by the holding task then it must
			be the running state task. */
			configASSERT( pxTCB == pxCurrentTCB );
 8006b6e:	4b39      	ldr	r3, [pc, #228]	; (8006c54 <xTaskPriorityDisinherit+0xfc>)
 8006b70:	681b      	ldr	r3, [r3, #0]
 8006b72:	693a      	ldr	r2, [r7, #16]
 8006b74:	429a      	cmp	r2, r3
 8006b76:	d009      	beq.n	8006b8c <xTaskPriorityDisinherit+0x34>
 8006b78:	f04f 0350 	mov.w	r3, #80	; 0x50
 8006b7c:	f383 8811 	msr	BASEPRI, r3
 8006b80:	f3bf 8f6f 	isb	sy
 8006b84:	f3bf 8f4f 	dsb	sy
 8006b88:	60fb      	str	r3, [r7, #12]
 8006b8a:	e7fe      	b.n	8006b8a <xTaskPriorityDisinherit+0x32>

			configASSERT( pxTCB->uxMutexesHeld );
 8006b8c:	693b      	ldr	r3, [r7, #16]
 8006b8e:	6d1b      	ldr	r3, [r3, #80]	; 0x50
 8006b90:	2b00      	cmp	r3, #0
 8006b92:	d109      	bne.n	8006ba8 <xTaskPriorityDisinherit+0x50>
 8006b94:	f04f 0350 	mov.w	r3, #80	; 0x50
 8006b98:	f383 8811 	msr	BASEPRI, r3
 8006b9c:	f3bf 8f6f 	isb	sy
 8006ba0:	f3bf 8f4f 	dsb	sy
 8006ba4:	60bb      	str	r3, [r7, #8]
 8006ba6:	e7fe      	b.n	8006ba6 <xTaskPriorityDisinherit+0x4e>
			( pxTCB->uxMutexesHeld )--;
 8006ba8:	693b      	ldr	r3, [r7, #16]
 8006baa:	6d1b      	ldr	r3, [r3, #80]	; 0x50
 8006bac:	1e5a      	subs	r2, r3, #1
 8006bae:	693b      	ldr	r3, [r7, #16]
 8006bb0:	651a      	str	r2, [r3, #80]	; 0x50

			/* Has the holder of the mutex inherited the priority of another
			task? */
			if( pxTCB->uxPriority != pxTCB->uxBasePriority )
 8006bb2:	693b      	ldr	r3, [r7, #16]
 8006bb4:	6ada      	ldr	r2, [r3, #44]	; 0x2c
 8006bb6:	693b      	ldr	r3, [r7, #16]
 8006bb8:	6cdb      	ldr	r3, [r3, #76]	; 0x4c
 8006bba:	429a      	cmp	r2, r3
 8006bbc:	d044      	beq.n	8006c48 <xTaskPriorityDisinherit+0xf0>
			{
				/* Only disinherit if no other mutexes are held. */
				if( pxTCB->uxMutexesHeld == ( UBaseType_t ) 0 )
 8006bbe:	693b      	ldr	r3, [r7, #16]
 8006bc0:	6d1b      	ldr	r3, [r3, #80]	; 0x50
 8006bc2:	2b00      	cmp	r3, #0
 8006bc4:	d140      	bne.n	8006c48 <xTaskPriorityDisinherit+0xf0>
					/* A task can only have an inherited priority if it holds
					the mutex.  If the mutex is held by a task then it cannot be
					given from an interrupt, and if a mutex is given by the
					holding	task then it must be the running state task.  Remove
					the	holding task from the ready	list. */
					if( uxListRemove( &( pxTCB->xStateListItem ) ) == ( UBaseType_t ) 0 )
 8006bc6:	693b      	ldr	r3, [r7, #16]
 8006bc8:	3304      	adds	r3, #4
 8006bca:	4618      	mov	r0, r3
 8006bcc:	f7fe fc62 	bl	8005494 <uxListRemove>
 8006bd0:	4603      	mov	r3, r0
 8006bd2:	2b00      	cmp	r3, #0
 8006bd4:	d115      	bne.n	8006c02 <xTaskPriorityDisinherit+0xaa>
					{
						taskRESET_READY_PRIORITY( pxTCB->uxPriority );
 8006bd6:	693b      	ldr	r3, [r7, #16]
 8006bd8:	6ada      	ldr	r2, [r3, #44]	; 0x2c
 8006bda:	491f      	ldr	r1, [pc, #124]	; (8006c58 <xTaskPriorityDisinherit+0x100>)
 8006bdc:	4613      	mov	r3, r2
 8006bde:	009b      	lsls	r3, r3, #2
 8006be0:	4413      	add	r3, r2
 8006be2:	009b      	lsls	r3, r3, #2
 8006be4:	440b      	add	r3, r1
 8006be6:	681b      	ldr	r3, [r3, #0]
 8006be8:	2b00      	cmp	r3, #0
 8006bea:	d10a      	bne.n	8006c02 <xTaskPriorityDisinherit+0xaa>
 8006bec:	693b      	ldr	r3, [r7, #16]
 8006bee:	6adb      	ldr	r3, [r3, #44]	; 0x2c
 8006bf0:	2201      	movs	r2, #1
 8006bf2:	fa02 f303 	lsl.w	r3, r2, r3
 8006bf6:	43da      	mvns	r2, r3
 8006bf8:	4b18      	ldr	r3, [pc, #96]	; (8006c5c <xTaskPriorityDisinherit+0x104>)
 8006bfa:	681b      	ldr	r3, [r3, #0]
 8006bfc:	4013      	ands	r3, r2
 8006bfe:	4a17      	ldr	r2, [pc, #92]	; (8006c5c <xTaskPriorityDisinherit+0x104>)
 8006c00:	6013      	str	r3, [r2, #0]
					}

					/* Disinherit the priority before adding the task into the
					new	ready list. */
					traceTASK_PRIORITY_DISINHERIT( pxTCB, pxTCB->uxBasePriority );
					pxTCB->uxPriority = pxTCB->uxBasePriority;
 8006c02:	693b      	ldr	r3, [r7, #16]
 8006c04:	6cda      	ldr	r2, [r3, #76]	; 0x4c
 8006c06:	693b      	ldr	r3, [r7, #16]
 8006c08:	62da      	str	r2, [r3, #44]	; 0x2c

					/* Reset the event list item value.  It cannot be in use for
					any other purpose if this task is running, and it must be
					running to give back the mutex. */
					listSET_LIST_ITEM_VALUE( &( pxTCB->xEventListItem ), ( TickType_t ) configMAX_PRIORITIES - ( TickType_t ) pxTCB->uxPriority ); /*lint !e961 MISRA exception as the casts are only redundant for some ports. */
 8006c0a:	693b      	ldr	r3, [r7, #16]
 8006c0c:	6adb      	ldr	r3, [r3, #44]	; 0x2c
 8006c0e:	f1c3 0207 	rsb	r2, r3, #7
 8006c12:	693b      	ldr	r3, [r7, #16]
 8006c14:	619a      	str	r2, [r3, #24]
					prvAddTaskToReadyList( pxTCB );
 8006c16:	693b      	ldr	r3, [r7, #16]
 8006c18:	6adb      	ldr	r3, [r3, #44]	; 0x2c
 8006c1a:	2201      	movs	r2, #1
 8006c1c:	409a      	lsls	r2, r3
 8006c1e:	4b0f      	ldr	r3, [pc, #60]	; (8006c5c <xTaskPriorityDisinherit+0x104>)
 8006c20:	681b      	ldr	r3, [r3, #0]
 8006c22:	4313      	orrs	r3, r2
 8006c24:	4a0d      	ldr	r2, [pc, #52]	; (8006c5c <xTaskPriorityDisinherit+0x104>)
 8006c26:	6013      	str	r3, [r2, #0]
 8006c28:	693b      	ldr	r3, [r7, #16]
 8006c2a:	6ada      	ldr	r2, [r3, #44]	; 0x2c
 8006c2c:	4613      	mov	r3, r2
 8006c2e:	009b      	lsls	r3, r3, #2
 8006c30:	4413      	add	r3, r2
 8006c32:	009b      	lsls	r3, r3, #2
 8006c34:	4a08      	ldr	r2, [pc, #32]	; (8006c58 <xTaskPriorityDisinherit+0x100>)
 8006c36:	441a      	add	r2, r3
 8006c38:	693b      	ldr	r3, [r7, #16]
 8006c3a:	3304      	adds	r3, #4
 8006c3c:	4619      	mov	r1, r3
 8006c3e:	4610      	mov	r0, r2
 8006c40:	f7fe fc05 	bl	800544e <vListInsertEnd>
					in an order different to that in which they were taken.
					If a context switch did not occur when the first mutex was
					returned, even if a task was waiting on it, then a context
					switch should occur when the last mutex is returned whether
					a task is waiting on it or not. */
					xReturn = pdTRUE;
 8006c44:	2301      	movs	r3, #1
 8006c46:	617b      	str	r3, [r7, #20]
		else
		{
			mtCOVERAGE_TEST_MARKER();
		}

		return xReturn;
 8006c48:	697b      	ldr	r3, [r7, #20]
	}
 8006c4a:	4618      	mov	r0, r3
 8006c4c:	3718      	adds	r7, #24
 8006c4e:	46bd      	mov	sp, r7
 8006c50:	bd80      	pop	{r7, pc}
 8006c52:	bf00      	nop
 8006c54:	20010f34 	.word	0x20010f34
 8006c58:	20010f38 	.word	0x20010f38
 8006c5c:	2001103c 	.word	0x2001103c

08006c60 <pvTaskIncrementMutexHeldCount>:
/*-----------------------------------------------------------*/

#if ( configUSE_MUTEXES == 1 )

	void *pvTaskIncrementMutexHeldCount( void )
	{
 8006c60:	b480      	push	{r7}
 8006c62:	af00      	add	r7, sp, #0
		/* If xSemaphoreCreateMutex() is called before any tasks have been created
		then pxCurrentTCB will be NULL. */
		if( pxCurrentTCB != NULL )
 8006c64:	4b07      	ldr	r3, [pc, #28]	; (8006c84 <pvTaskIncrementMutexHeldCount+0x24>)
 8006c66:	681b      	ldr	r3, [r3, #0]
 8006c68:	2b00      	cmp	r3, #0
 8006c6a:	d004      	beq.n	8006c76 <pvTaskIncrementMutexHeldCount+0x16>
		{
			( pxCurrentTCB->uxMutexesHeld )++;
 8006c6c:	4b05      	ldr	r3, [pc, #20]	; (8006c84 <pvTaskIncrementMutexHeldCount+0x24>)
 8006c6e:	681b      	ldr	r3, [r3, #0]
 8006c70:	6d1a      	ldr	r2, [r3, #80]	; 0x50
 8006c72:	3201      	adds	r2, #1
 8006c74:	651a      	str	r2, [r3, #80]	; 0x50
		}

		return pxCurrentTCB;
 8006c76:	4b03      	ldr	r3, [pc, #12]	; (8006c84 <pvTaskIncrementMutexHeldCount+0x24>)
 8006c78:	681b      	ldr	r3, [r3, #0]
	}
 8006c7a:	4618      	mov	r0, r3
 8006c7c:	46bd      	mov	sp, r7
 8006c7e:	f85d 7b04 	ldr.w	r7, [sp], #4
 8006c82:	4770      	bx	lr
 8006c84:	20010f34 	.word	0x20010f34

08006c88 <prvAddCurrentTaskToDelayedList>:
#endif /* configUSE_TASK_NOTIFICATIONS */
/*-----------------------------------------------------------*/


static void prvAddCurrentTaskToDelayedList( TickType_t xTicksToWait, const BaseType_t xCanBlockIndefinitely )
{
 8006c88:	b580      	push	{r7, lr}
 8006c8a:	b084      	sub	sp, #16
 8006c8c:	af00      	add	r7, sp, #0
 8006c8e:	6078      	str	r0, [r7, #4]
 8006c90:	6039      	str	r1, [r7, #0]
TickType_t xTimeToWake;
const TickType_t xConstTickCount = xTickCount;
 8006c92:	4b29      	ldr	r3, [pc, #164]	; (8006d38 <prvAddCurrentTaskToDelayedList+0xb0>)
 8006c94:	681b      	ldr	r3, [r3, #0]
 8006c96:	60fb      	str	r3, [r7, #12]
	}
	#endif

	/* Remove the task from the ready list before adding it to the blocked list
	as the same list item is used for both lists. */
	if( uxListRemove( &( pxCurrentTCB->xStateListItem ) ) == ( UBaseType_t ) 0 )
 8006c98:	4b28      	ldr	r3, [pc, #160]	; (8006d3c <prvAddCurrentTaskToDelayedList+0xb4>)
 8006c9a:	681b      	ldr	r3, [r3, #0]
 8006c9c:	3304      	adds	r3, #4
 8006c9e:	4618      	mov	r0, r3
 8006ca0:	f7fe fbf8 	bl	8005494 <uxListRemove>
 8006ca4:	4603      	mov	r3, r0
 8006ca6:	2b00      	cmp	r3, #0
 8006ca8:	d10b      	bne.n	8006cc2 <prvAddCurrentTaskToDelayedList+0x3a>
	{
		/* The current task must be in a ready list, so there is no need to
		check, and the port reset macro can be called directly. */
		portRESET_READY_PRIORITY( pxCurrentTCB->uxPriority, uxTopReadyPriority );
 8006caa:	4b24      	ldr	r3, [pc, #144]	; (8006d3c <prvAddCurrentTaskToDelayedList+0xb4>)
 8006cac:	681b      	ldr	r3, [r3, #0]
 8006cae:	6adb      	ldr	r3, [r3, #44]	; 0x2c
 8006cb0:	2201      	movs	r2, #1
 8006cb2:	fa02 f303 	lsl.w	r3, r2, r3
 8006cb6:	43da      	mvns	r2, r3
 8006cb8:	4b21      	ldr	r3, [pc, #132]	; (8006d40 <prvAddCurrentTaskToDelayedList+0xb8>)
 8006cba:	681b      	ldr	r3, [r3, #0]
 8006cbc:	4013      	ands	r3, r2
 8006cbe:	4a20      	ldr	r2, [pc, #128]	; (8006d40 <prvAddCurrentTaskToDelayedList+0xb8>)
 8006cc0:	6013      	str	r3, [r2, #0]
		mtCOVERAGE_TEST_MARKER();
	}

	#if ( INCLUDE_vTaskSuspend == 1 )
	{
		if( ( xTicksToWait == portMAX_DELAY ) && ( xCanBlockIndefinitely != pdFALSE ) )
 8006cc2:	687b      	ldr	r3, [r7, #4]
 8006cc4:	f1b3 3fff 	cmp.w	r3, #4294967295
 8006cc8:	d10a      	bne.n	8006ce0 <prvAddCurrentTaskToDelayedList+0x58>
 8006cca:	683b      	ldr	r3, [r7, #0]
 8006ccc:	2b00      	cmp	r3, #0
 8006cce:	d007      	beq.n	8006ce0 <prvAddCurrentTaskToDelayedList+0x58>
		{
			/* Add the task to the suspended task list instead of a delayed task
			list to ensure it is not woken by a timing event.  It will block
			indefinitely. */
			vListInsertEnd( &xSuspendedTaskList, &( pxCurrentTCB->xStateListItem ) );
 8006cd0:	4b1a      	ldr	r3, [pc, #104]	; (8006d3c <prvAddCurrentTaskToDelayedList+0xb4>)
 8006cd2:	681b      	ldr	r3, [r3, #0]
 8006cd4:	3304      	adds	r3, #4
 8006cd6:	4619      	mov	r1, r3
 8006cd8:	481a      	ldr	r0, [pc, #104]	; (8006d44 <prvAddCurrentTaskToDelayedList+0xbc>)
 8006cda:	f7fe fbb8 	bl	800544e <vListInsertEnd>

		/* Avoid compiler warning when INCLUDE_vTaskSuspend is not 1. */
		( void ) xCanBlockIndefinitely;
	}
	#endif /* INCLUDE_vTaskSuspend */
}
 8006cde:	e026      	b.n	8006d2e <prvAddCurrentTaskToDelayedList+0xa6>
			xTimeToWake = xConstTickCount + xTicksToWait;
 8006ce0:	68fa      	ldr	r2, [r7, #12]
 8006ce2:	687b      	ldr	r3, [r7, #4]
 8006ce4:	4413      	add	r3, r2
 8006ce6:	60bb      	str	r3, [r7, #8]
			listSET_LIST_ITEM_VALUE( &( pxCurrentTCB->xStateListItem ), xTimeToWake );
 8006ce8:	4b14      	ldr	r3, [pc, #80]	; (8006d3c <prvAddCurrentTaskToDelayedList+0xb4>)
 8006cea:	681b      	ldr	r3, [r3, #0]
 8006cec:	68ba      	ldr	r2, [r7, #8]
 8006cee:	605a      	str	r2, [r3, #4]
			if( xTimeToWake < xConstTickCount )
 8006cf0:	68ba      	ldr	r2, [r7, #8]
 8006cf2:	68fb      	ldr	r3, [r7, #12]
 8006cf4:	429a      	cmp	r2, r3
 8006cf6:	d209      	bcs.n	8006d0c <prvAddCurrentTaskToDelayedList+0x84>
				vListInsert( pxOverflowDelayedTaskList, &( pxCurrentTCB->xStateListItem ) );
 8006cf8:	4b13      	ldr	r3, [pc, #76]	; (8006d48 <prvAddCurrentTaskToDelayedList+0xc0>)
 8006cfa:	681a      	ldr	r2, [r3, #0]
 8006cfc:	4b0f      	ldr	r3, [pc, #60]	; (8006d3c <prvAddCurrentTaskToDelayedList+0xb4>)
 8006cfe:	681b      	ldr	r3, [r3, #0]
 8006d00:	3304      	adds	r3, #4
 8006d02:	4619      	mov	r1, r3
 8006d04:	4610      	mov	r0, r2
 8006d06:	f7fe fbae 	bl	8005466 <vListInsert>
}
 8006d0a:	e010      	b.n	8006d2e <prvAddCurrentTaskToDelayedList+0xa6>
				vListInsert( pxDelayedTaskList, &( pxCurrentTCB->xStateListItem ) );
 8006d0c:	4b0f      	ldr	r3, [pc, #60]	; (8006d4c <prvAddCurrentTaskToDelayedList+0xc4>)
 8006d0e:	681a      	ldr	r2, [r3, #0]
 8006d10:	4b0a      	ldr	r3, [pc, #40]	; (8006d3c <prvAddCurrentTaskToDelayedList+0xb4>)
 8006d12:	681b      	ldr	r3, [r3, #0]
 8006d14:	3304      	adds	r3, #4
 8006d16:	4619      	mov	r1, r3
 8006d18:	4610      	mov	r0, r2
 8006d1a:	f7fe fba4 	bl	8005466 <vListInsert>
				if( xTimeToWake < xNextTaskUnblockTime )
 8006d1e:	4b0c      	ldr	r3, [pc, #48]	; (8006d50 <prvAddCurrentTaskToDelayedList+0xc8>)
 8006d20:	681b      	ldr	r3, [r3, #0]
 8006d22:	68ba      	ldr	r2, [r7, #8]
 8006d24:	429a      	cmp	r2, r3
 8006d26:	d202      	bcs.n	8006d2e <prvAddCurrentTaskToDelayedList+0xa6>
					xNextTaskUnblockTime = xTimeToWake;
 8006d28:	4a09      	ldr	r2, [pc, #36]	; (8006d50 <prvAddCurrentTaskToDelayedList+0xc8>)
 8006d2a:	68bb      	ldr	r3, [r7, #8]
 8006d2c:	6013      	str	r3, [r2, #0]
}
 8006d2e:	bf00      	nop
 8006d30:	3710      	adds	r7, #16
 8006d32:	46bd      	mov	sp, r7
 8006d34:	bd80      	pop	{r7, pc}
 8006d36:	bf00      	nop
 8006d38:	20011038 	.word	0x20011038
 8006d3c:	20010f34 	.word	0x20010f34
 8006d40:	2001103c 	.word	0x2001103c
 8006d44:	20011020 	.word	0x20011020
 8006d48:	20010ff0 	.word	0x20010ff0
 8006d4c:	20010fec 	.word	0x20010fec
 8006d50:	20011054 	.word	0x20011054

08006d54 <Reset_Handler>:

    .section  .text.Reset_Handler
  .weak  Reset_Handler
  .type  Reset_Handler, %function
Reset_Handler: 
  ldr   sp, =_estack       /* set stack pointer */
 8006d54:	f8df d034 	ldr.w	sp, [pc, #52]	; 8006d8c <LoopFillZerobss+0x14>
 
/* Copy the data segment initializers from flash to SRAM */  
  movs  r1, #0
 8006d58:	2100      	movs	r1, #0
  b  LoopCopyDataInit
 8006d5a:	e003      	b.n	8006d64 <LoopCopyDataInit>

08006d5c <CopyDataInit>:

CopyDataInit:
  ldr  r3, =_sidata
 8006d5c:	4b0c      	ldr	r3, [pc, #48]	; (8006d90 <LoopFillZerobss+0x18>)
  ldr  r3, [r3, r1]
 8006d5e:	585b      	ldr	r3, [r3, r1]
  str  r3, [r0, r1]
 8006d60:	5043      	str	r3, [r0, r1]
  adds  r1, r1, #4
 8006d62:	3104      	adds	r1, #4

08006d64 <LoopCopyDataInit>:
    
LoopCopyDataInit:
  ldr  r0, =_sdata
 8006d64:	480b      	ldr	r0, [pc, #44]	; (8006d94 <LoopFillZerobss+0x1c>)
  ldr  r3, =_edata
 8006d66:	4b0c      	ldr	r3, [pc, #48]	; (8006d98 <LoopFillZerobss+0x20>)
  adds  r2, r0, r1
 8006d68:	1842      	adds	r2, r0, r1
  cmp  r2, r3
 8006d6a:	429a      	cmp	r2, r3
  bcc  CopyDataInit
 8006d6c:	d3f6      	bcc.n	8006d5c <CopyDataInit>
  ldr  r2, =_sbss
 8006d6e:	4a0b      	ldr	r2, [pc, #44]	; (8006d9c <LoopFillZerobss+0x24>)
  b  LoopFillZerobss
 8006d70:	e002      	b.n	8006d78 <LoopFillZerobss>

08006d72 <FillZerobss>:
/* Zero fill the bss segment. */  
FillZerobss:
  movs  r3, #0
 8006d72:	2300      	movs	r3, #0
  str  r3, [r2], #4
 8006d74:	f842 3b04 	str.w	r3, [r2], #4

08006d78 <LoopFillZerobss>:
    
LoopFillZerobss:
  ldr  r3, = _ebss
 8006d78:	4b09      	ldr	r3, [pc, #36]	; (8006da0 <LoopFillZerobss+0x28>)
  cmp  r2, r3
 8006d7a:	429a      	cmp	r2, r3
  bcc  FillZerobss
 8006d7c:	d3f9      	bcc.n	8006d72 <FillZerobss>

/* Call the clock system intitialization function.*/
  bl  SystemInit   
 8006d7e:	f7fa fdd9 	bl	8001934 <SystemInit>
/* Call static constructors */
    bl __libc_init_array
 8006d82:	f000 f811 	bl	8006da8 <__libc_init_array>
/* Call the application's entry point.*/
  bl  main
 8006d86:	f7fa f92b 	bl	8000fe0 <main>
  bx  lr    
 8006d8a:	4770      	bx	lr
  ldr   sp, =_estack       /* set stack pointer */
 8006d8c:	20030000 	.word	0x20030000
  ldr  r3, =_sidata
 8006d90:	08007788 	.word	0x08007788
  ldr  r0, =_sdata
 8006d94:	20000000 	.word	0x20000000
  ldr  r3, =_edata
 8006d98:	200001c8 	.word	0x200001c8
  ldr  r2, =_sbss
 8006d9c:	200001c8 	.word	0x200001c8
  ldr  r3, = _ebss
 8006da0:	20011f74 	.word	0x20011f74

08006da4 <CAN1_RX0_IRQHandler>:
 * @retval None       
*/
    .section  .text.Default_Handler,"ax",%progbits
Default_Handler:
Infinite_Loop:
  b  Infinite_Loop
 8006da4:	e7fe      	b.n	8006da4 <CAN1_RX0_IRQHandler>
	...

08006da8 <__libc_init_array>:
 8006da8:	b570      	push	{r4, r5, r6, lr}
 8006daa:	4e0d      	ldr	r6, [pc, #52]	; (8006de0 <__libc_init_array+0x38>)
 8006dac:	4c0d      	ldr	r4, [pc, #52]	; (8006de4 <__libc_init_array+0x3c>)
 8006dae:	1ba4      	subs	r4, r4, r6
 8006db0:	10a4      	asrs	r4, r4, #2
 8006db2:	2500      	movs	r5, #0
 8006db4:	42a5      	cmp	r5, r4
 8006db6:	d109      	bne.n	8006dcc <__libc_init_array+0x24>
 8006db8:	4e0b      	ldr	r6, [pc, #44]	; (8006de8 <__libc_init_array+0x40>)
 8006dba:	4c0c      	ldr	r4, [pc, #48]	; (8006dec <__libc_init_array+0x44>)
 8006dbc:	f000 fc00 	bl	80075c0 <_init>
 8006dc0:	1ba4      	subs	r4, r4, r6
 8006dc2:	10a4      	asrs	r4, r4, #2
 8006dc4:	2500      	movs	r5, #0
 8006dc6:	42a5      	cmp	r5, r4
 8006dc8:	d105      	bne.n	8006dd6 <__libc_init_array+0x2e>
 8006dca:	bd70      	pop	{r4, r5, r6, pc}
 8006dcc:	f856 3025 	ldr.w	r3, [r6, r5, lsl #2]
 8006dd0:	4798      	blx	r3
 8006dd2:	3501      	adds	r5, #1
 8006dd4:	e7ee      	b.n	8006db4 <__libc_init_array+0xc>
 8006dd6:	f856 3025 	ldr.w	r3, [r6, r5, lsl #2]
 8006dda:	4798      	blx	r3
 8006ddc:	3501      	adds	r5, #1
 8006dde:	e7f2      	b.n	8006dc6 <__libc_init_array+0x1e>
 8006de0:	08007780 	.word	0x08007780
 8006de4:	08007780 	.word	0x08007780
 8006de8:	08007780 	.word	0x08007780
 8006dec:	08007784 	.word	0x08007784

08006df0 <malloc>:
 8006df0:	4b02      	ldr	r3, [pc, #8]	; (8006dfc <malloc+0xc>)
 8006df2:	4601      	mov	r1, r0
 8006df4:	6818      	ldr	r0, [r3, #0]
 8006df6:	f000 b86d 	b.w	8006ed4 <_malloc_r>
 8006dfa:	bf00      	nop
 8006dfc:	20000160 	.word	0x20000160

08006e00 <free>:
 8006e00:	4b02      	ldr	r3, [pc, #8]	; (8006e0c <free+0xc>)
 8006e02:	4601      	mov	r1, r0
 8006e04:	6818      	ldr	r0, [r3, #0]
 8006e06:	f000 b817 	b.w	8006e38 <_free_r>
 8006e0a:	bf00      	nop
 8006e0c:	20000160 	.word	0x20000160

08006e10 <memcpy>:
 8006e10:	b510      	push	{r4, lr}
 8006e12:	1e43      	subs	r3, r0, #1
 8006e14:	440a      	add	r2, r1
 8006e16:	4291      	cmp	r1, r2
 8006e18:	d100      	bne.n	8006e1c <memcpy+0xc>
 8006e1a:	bd10      	pop	{r4, pc}
 8006e1c:	f811 4b01 	ldrb.w	r4, [r1], #1
 8006e20:	f803 4f01 	strb.w	r4, [r3, #1]!
 8006e24:	e7f7      	b.n	8006e16 <memcpy+0x6>

08006e26 <memset>:
 8006e26:	4402      	add	r2, r0
 8006e28:	4603      	mov	r3, r0
 8006e2a:	4293      	cmp	r3, r2
 8006e2c:	d100      	bne.n	8006e30 <memset+0xa>
 8006e2e:	4770      	bx	lr
 8006e30:	f803 1b01 	strb.w	r1, [r3], #1
 8006e34:	e7f9      	b.n	8006e2a <memset+0x4>
	...

08006e38 <_free_r>:
 8006e38:	b538      	push	{r3, r4, r5, lr}
 8006e3a:	4605      	mov	r5, r0
 8006e3c:	2900      	cmp	r1, #0
 8006e3e:	d045      	beq.n	8006ecc <_free_r+0x94>
 8006e40:	f851 3c04 	ldr.w	r3, [r1, #-4]
 8006e44:	1f0c      	subs	r4, r1, #4
 8006e46:	2b00      	cmp	r3, #0
 8006e48:	bfb8      	it	lt
 8006e4a:	18e4      	addlt	r4, r4, r3
 8006e4c:	f000 f8b0 	bl	8006fb0 <__malloc_lock>
 8006e50:	4a1f      	ldr	r2, [pc, #124]	; (8006ed0 <_free_r+0x98>)
 8006e52:	6813      	ldr	r3, [r2, #0]
 8006e54:	4610      	mov	r0, r2
 8006e56:	b933      	cbnz	r3, 8006e66 <_free_r+0x2e>
 8006e58:	6063      	str	r3, [r4, #4]
 8006e5a:	6014      	str	r4, [r2, #0]
 8006e5c:	4628      	mov	r0, r5
 8006e5e:	e8bd 4038 	ldmia.w	sp!, {r3, r4, r5, lr}
 8006e62:	f000 b8a6 	b.w	8006fb2 <__malloc_unlock>
 8006e66:	42a3      	cmp	r3, r4
 8006e68:	d90c      	bls.n	8006e84 <_free_r+0x4c>
 8006e6a:	6821      	ldr	r1, [r4, #0]
 8006e6c:	1862      	adds	r2, r4, r1
 8006e6e:	4293      	cmp	r3, r2
 8006e70:	bf04      	itt	eq
 8006e72:	681a      	ldreq	r2, [r3, #0]
 8006e74:	685b      	ldreq	r3, [r3, #4]
 8006e76:	6063      	str	r3, [r4, #4]
 8006e78:	bf04      	itt	eq
 8006e7a:	1852      	addeq	r2, r2, r1
 8006e7c:	6022      	streq	r2, [r4, #0]
 8006e7e:	6004      	str	r4, [r0, #0]
 8006e80:	e7ec      	b.n	8006e5c <_free_r+0x24>
 8006e82:	4613      	mov	r3, r2
 8006e84:	685a      	ldr	r2, [r3, #4]
 8006e86:	b10a      	cbz	r2, 8006e8c <_free_r+0x54>
 8006e88:	42a2      	cmp	r2, r4
 8006e8a:	d9fa      	bls.n	8006e82 <_free_r+0x4a>
 8006e8c:	6819      	ldr	r1, [r3, #0]
 8006e8e:	1858      	adds	r0, r3, r1
 8006e90:	42a0      	cmp	r0, r4
 8006e92:	d10b      	bne.n	8006eac <_free_r+0x74>
 8006e94:	6820      	ldr	r0, [r4, #0]
 8006e96:	4401      	add	r1, r0
 8006e98:	1858      	adds	r0, r3, r1
 8006e9a:	4282      	cmp	r2, r0
 8006e9c:	6019      	str	r1, [r3, #0]
 8006e9e:	d1dd      	bne.n	8006e5c <_free_r+0x24>
 8006ea0:	6810      	ldr	r0, [r2, #0]
 8006ea2:	6852      	ldr	r2, [r2, #4]
 8006ea4:	605a      	str	r2, [r3, #4]
 8006ea6:	4401      	add	r1, r0
 8006ea8:	6019      	str	r1, [r3, #0]
 8006eaa:	e7d7      	b.n	8006e5c <_free_r+0x24>
 8006eac:	d902      	bls.n	8006eb4 <_free_r+0x7c>
 8006eae:	230c      	movs	r3, #12
 8006eb0:	602b      	str	r3, [r5, #0]
 8006eb2:	e7d3      	b.n	8006e5c <_free_r+0x24>
 8006eb4:	6820      	ldr	r0, [r4, #0]
 8006eb6:	1821      	adds	r1, r4, r0
 8006eb8:	428a      	cmp	r2, r1
 8006eba:	bf04      	itt	eq
 8006ebc:	6811      	ldreq	r1, [r2, #0]
 8006ebe:	6852      	ldreq	r2, [r2, #4]
 8006ec0:	6062      	str	r2, [r4, #4]
 8006ec2:	bf04      	itt	eq
 8006ec4:	1809      	addeq	r1, r1, r0
 8006ec6:	6021      	streq	r1, [r4, #0]
 8006ec8:	605c      	str	r4, [r3, #4]
 8006eca:	e7c7      	b.n	8006e5c <_free_r+0x24>
 8006ecc:	bd38      	pop	{r3, r4, r5, pc}
 8006ece:	bf00      	nop
 8006ed0:	20011068 	.word	0x20011068

08006ed4 <_malloc_r>:
 8006ed4:	b570      	push	{r4, r5, r6, lr}
 8006ed6:	1ccd      	adds	r5, r1, #3
 8006ed8:	f025 0503 	bic.w	r5, r5, #3
 8006edc:	3508      	adds	r5, #8
 8006ede:	2d0c      	cmp	r5, #12
 8006ee0:	bf38      	it	cc
 8006ee2:	250c      	movcc	r5, #12
 8006ee4:	2d00      	cmp	r5, #0
 8006ee6:	4606      	mov	r6, r0
 8006ee8:	db01      	blt.n	8006eee <_malloc_r+0x1a>
 8006eea:	42a9      	cmp	r1, r5
 8006eec:	d903      	bls.n	8006ef6 <_malloc_r+0x22>
 8006eee:	230c      	movs	r3, #12
 8006ef0:	6033      	str	r3, [r6, #0]
 8006ef2:	2000      	movs	r0, #0
 8006ef4:	bd70      	pop	{r4, r5, r6, pc}
 8006ef6:	f000 f85b 	bl	8006fb0 <__malloc_lock>
 8006efa:	4a23      	ldr	r2, [pc, #140]	; (8006f88 <_malloc_r+0xb4>)
 8006efc:	6814      	ldr	r4, [r2, #0]
 8006efe:	4621      	mov	r1, r4
 8006f00:	b991      	cbnz	r1, 8006f28 <_malloc_r+0x54>
 8006f02:	4c22      	ldr	r4, [pc, #136]	; (8006f8c <_malloc_r+0xb8>)
 8006f04:	6823      	ldr	r3, [r4, #0]
 8006f06:	b91b      	cbnz	r3, 8006f10 <_malloc_r+0x3c>
 8006f08:	4630      	mov	r0, r6
 8006f0a:	f000 f841 	bl	8006f90 <_sbrk_r>
 8006f0e:	6020      	str	r0, [r4, #0]
 8006f10:	4629      	mov	r1, r5
 8006f12:	4630      	mov	r0, r6
 8006f14:	f000 f83c 	bl	8006f90 <_sbrk_r>
 8006f18:	1c43      	adds	r3, r0, #1
 8006f1a:	d126      	bne.n	8006f6a <_malloc_r+0x96>
 8006f1c:	230c      	movs	r3, #12
 8006f1e:	6033      	str	r3, [r6, #0]
 8006f20:	4630      	mov	r0, r6
 8006f22:	f000 f846 	bl	8006fb2 <__malloc_unlock>
 8006f26:	e7e4      	b.n	8006ef2 <_malloc_r+0x1e>
 8006f28:	680b      	ldr	r3, [r1, #0]
 8006f2a:	1b5b      	subs	r3, r3, r5
 8006f2c:	d41a      	bmi.n	8006f64 <_malloc_r+0x90>
 8006f2e:	2b0b      	cmp	r3, #11
 8006f30:	d90f      	bls.n	8006f52 <_malloc_r+0x7e>
 8006f32:	600b      	str	r3, [r1, #0]
 8006f34:	50cd      	str	r5, [r1, r3]
 8006f36:	18cc      	adds	r4, r1, r3
 8006f38:	4630      	mov	r0, r6
 8006f3a:	f000 f83a 	bl	8006fb2 <__malloc_unlock>
 8006f3e:	f104 000b 	add.w	r0, r4, #11
 8006f42:	1d23      	adds	r3, r4, #4
 8006f44:	f020 0007 	bic.w	r0, r0, #7
 8006f48:	1ac3      	subs	r3, r0, r3
 8006f4a:	d01b      	beq.n	8006f84 <_malloc_r+0xb0>
 8006f4c:	425a      	negs	r2, r3
 8006f4e:	50e2      	str	r2, [r4, r3]
 8006f50:	bd70      	pop	{r4, r5, r6, pc}
 8006f52:	428c      	cmp	r4, r1
 8006f54:	bf0d      	iteet	eq
 8006f56:	6863      	ldreq	r3, [r4, #4]
 8006f58:	684b      	ldrne	r3, [r1, #4]
 8006f5a:	6063      	strne	r3, [r4, #4]
 8006f5c:	6013      	streq	r3, [r2, #0]
 8006f5e:	bf18      	it	ne
 8006f60:	460c      	movne	r4, r1
 8006f62:	e7e9      	b.n	8006f38 <_malloc_r+0x64>
 8006f64:	460c      	mov	r4, r1
 8006f66:	6849      	ldr	r1, [r1, #4]
 8006f68:	e7ca      	b.n	8006f00 <_malloc_r+0x2c>
 8006f6a:	1cc4      	adds	r4, r0, #3
 8006f6c:	f024 0403 	bic.w	r4, r4, #3
 8006f70:	42a0      	cmp	r0, r4
 8006f72:	d005      	beq.n	8006f80 <_malloc_r+0xac>
 8006f74:	1a21      	subs	r1, r4, r0
 8006f76:	4630      	mov	r0, r6
 8006f78:	f000 f80a 	bl	8006f90 <_sbrk_r>
 8006f7c:	3001      	adds	r0, #1
 8006f7e:	d0cd      	beq.n	8006f1c <_malloc_r+0x48>
 8006f80:	6025      	str	r5, [r4, #0]
 8006f82:	e7d9      	b.n	8006f38 <_malloc_r+0x64>
 8006f84:	bd70      	pop	{r4, r5, r6, pc}
 8006f86:	bf00      	nop
 8006f88:	20011068 	.word	0x20011068
 8006f8c:	2001106c 	.word	0x2001106c

08006f90 <_sbrk_r>:
 8006f90:	b538      	push	{r3, r4, r5, lr}
 8006f92:	4c06      	ldr	r4, [pc, #24]	; (8006fac <_sbrk_r+0x1c>)
 8006f94:	2300      	movs	r3, #0
 8006f96:	4605      	mov	r5, r0
 8006f98:	4608      	mov	r0, r1
 8006f9a:	6023      	str	r3, [r4, #0]
 8006f9c:	f000 fb02 	bl	80075a4 <_sbrk>
 8006fa0:	1c43      	adds	r3, r0, #1
 8006fa2:	d102      	bne.n	8006faa <_sbrk_r+0x1a>
 8006fa4:	6823      	ldr	r3, [r4, #0]
 8006fa6:	b103      	cbz	r3, 8006faa <_sbrk_r+0x1a>
 8006fa8:	602b      	str	r3, [r5, #0]
 8006faa:	bd38      	pop	{r3, r4, r5, pc}
 8006fac:	20011f70 	.word	0x20011f70

08006fb0 <__malloc_lock>:
 8006fb0:	4770      	bx	lr

08006fb2 <__malloc_unlock>:
 8006fb2:	4770      	bx	lr

08006fb4 <log10>:
 8006fb4:	b5f0      	push	{r4, r5, r6, r7, lr}
 8006fb6:	ed2d 8b02 	vpush	{d8}
 8006fba:	b08b      	sub	sp, #44	; 0x2c
 8006fbc:	ec55 4b10 	vmov	r4, r5, d0
 8006fc0:	f000 f87a 	bl	80070b8 <__ieee754_log10>
 8006fc4:	4b36      	ldr	r3, [pc, #216]	; (80070a0 <log10+0xec>)
 8006fc6:	eeb0 8a40 	vmov.f32	s16, s0
 8006fca:	eef0 8a60 	vmov.f32	s17, s1
 8006fce:	f993 6000 	ldrsb.w	r6, [r3]
 8006fd2:	1c73      	adds	r3, r6, #1
 8006fd4:	d05c      	beq.n	8007090 <log10+0xdc>
 8006fd6:	4622      	mov	r2, r4
 8006fd8:	462b      	mov	r3, r5
 8006fda:	4620      	mov	r0, r4
 8006fdc:	4629      	mov	r1, r5
 8006fde:	f7f9 fd59 	bl	8000a94 <__aeabi_dcmpun>
 8006fe2:	4607      	mov	r7, r0
 8006fe4:	2800      	cmp	r0, #0
 8006fe6:	d153      	bne.n	8007090 <log10+0xdc>
 8006fe8:	2200      	movs	r2, #0
 8006fea:	2300      	movs	r3, #0
 8006fec:	4620      	mov	r0, r4
 8006fee:	4629      	mov	r1, r5
 8006ff0:	f7f9 fd32 	bl	8000a58 <__aeabi_dcmple>
 8006ff4:	2800      	cmp	r0, #0
 8006ff6:	d04b      	beq.n	8007090 <log10+0xdc>
 8006ff8:	4b2a      	ldr	r3, [pc, #168]	; (80070a4 <log10+0xf0>)
 8006ffa:	9301      	str	r3, [sp, #4]
 8006ffc:	9708      	str	r7, [sp, #32]
 8006ffe:	e9cd 4502 	strd	r4, r5, [sp, #8]
 8007002:	e9cd 4504 	strd	r4, r5, [sp, #16]
 8007006:	b9a6      	cbnz	r6, 8007032 <log10+0x7e>
 8007008:	4b27      	ldr	r3, [pc, #156]	; (80070a8 <log10+0xf4>)
 800700a:	f04f 4260 	mov.w	r2, #3758096384	; 0xe0000000
 800700e:	e9cd 2306 	strd	r2, r3, [sp, #24]
 8007012:	4620      	mov	r0, r4
 8007014:	2200      	movs	r2, #0
 8007016:	2300      	movs	r3, #0
 8007018:	4629      	mov	r1, r5
 800701a:	f7f9 fd09 	bl	8000a30 <__aeabi_dcmpeq>
 800701e:	bb40      	cbnz	r0, 8007072 <log10+0xbe>
 8007020:	2301      	movs	r3, #1
 8007022:	2e02      	cmp	r6, #2
 8007024:	9300      	str	r3, [sp, #0]
 8007026:	d119      	bne.n	800705c <log10+0xa8>
 8007028:	f000 fab6 	bl	8007598 <__errno>
 800702c:	2321      	movs	r3, #33	; 0x21
 800702e:	6003      	str	r3, [r0, #0]
 8007030:	e019      	b.n	8007066 <log10+0xb2>
 8007032:	4b1e      	ldr	r3, [pc, #120]	; (80070ac <log10+0xf8>)
 8007034:	2200      	movs	r2, #0
 8007036:	e9cd 2306 	strd	r2, r3, [sp, #24]
 800703a:	4620      	mov	r0, r4
 800703c:	2200      	movs	r2, #0
 800703e:	2300      	movs	r3, #0
 8007040:	4629      	mov	r1, r5
 8007042:	f7f9 fcf5 	bl	8000a30 <__aeabi_dcmpeq>
 8007046:	2800      	cmp	r0, #0
 8007048:	d0ea      	beq.n	8007020 <log10+0x6c>
 800704a:	2302      	movs	r3, #2
 800704c:	429e      	cmp	r6, r3
 800704e:	9300      	str	r3, [sp, #0]
 8007050:	d111      	bne.n	8007076 <log10+0xc2>
 8007052:	f000 faa1 	bl	8007598 <__errno>
 8007056:	2322      	movs	r3, #34	; 0x22
 8007058:	6003      	str	r3, [r0, #0]
 800705a:	e011      	b.n	8007080 <log10+0xcc>
 800705c:	4668      	mov	r0, sp
 800705e:	f000 f8b9 	bl	80071d4 <matherr>
 8007062:	2800      	cmp	r0, #0
 8007064:	d0e0      	beq.n	8007028 <log10+0x74>
 8007066:	4812      	ldr	r0, [pc, #72]	; (80070b0 <log10+0xfc>)
 8007068:	f000 f8b6 	bl	80071d8 <nan>
 800706c:	ed8d 0b06 	vstr	d0, [sp, #24]
 8007070:	e006      	b.n	8007080 <log10+0xcc>
 8007072:	2302      	movs	r3, #2
 8007074:	9300      	str	r3, [sp, #0]
 8007076:	4668      	mov	r0, sp
 8007078:	f000 f8ac 	bl	80071d4 <matherr>
 800707c:	2800      	cmp	r0, #0
 800707e:	d0e8      	beq.n	8007052 <log10+0x9e>
 8007080:	9b08      	ldr	r3, [sp, #32]
 8007082:	b11b      	cbz	r3, 800708c <log10+0xd8>
 8007084:	f000 fa88 	bl	8007598 <__errno>
 8007088:	9b08      	ldr	r3, [sp, #32]
 800708a:	6003      	str	r3, [r0, #0]
 800708c:	ed9d 8b06 	vldr	d8, [sp, #24]
 8007090:	eeb0 0a48 	vmov.f32	s0, s16
 8007094:	eef0 0a68 	vmov.f32	s1, s17
 8007098:	b00b      	add	sp, #44	; 0x2c
 800709a:	ecbd 8b02 	vpop	{d8}
 800709e:	bdf0      	pop	{r4, r5, r6, r7, pc}
 80070a0:	200001c4 	.word	0x200001c4
 80070a4:	0800776f 	.word	0x0800776f
 80070a8:	c7efffff 	.word	0xc7efffff
 80070ac:	fff00000 	.word	0xfff00000
 80070b0:	08007774 	.word	0x08007774
 80070b4:	00000000 	.word	0x00000000

080070b8 <__ieee754_log10>:
 80070b8:	e92d 43f7 	stmdb	sp!, {r0, r1, r2, r4, r5, r6, r7, r8, r9, lr}
 80070bc:	ec55 4b10 	vmov	r4, r5, d0
 80070c0:	f5b5 1f80 	cmp.w	r5, #1048576	; 0x100000
 80070c4:	ee10 2a10 	vmov	r2, s0
 80070c8:	462b      	mov	r3, r5
 80070ca:	da30      	bge.n	800712e <__ieee754_log10+0x76>
 80070cc:	f025 4100 	bic.w	r1, r5, #2147483648	; 0x80000000
 80070d0:	430a      	orrs	r2, r1
 80070d2:	d10a      	bne.n	80070ea <__ieee754_log10+0x32>
 80070d4:	493c      	ldr	r1, [pc, #240]	; (80071c8 <__ieee754_log10+0x110>)
 80070d6:	2200      	movs	r2, #0
 80070d8:	2300      	movs	r3, #0
 80070da:	2000      	movs	r0, #0
 80070dc:	f7f9 fb6a 	bl	80007b4 <__aeabi_ddiv>
 80070e0:	ec41 0b10 	vmov	d0, r0, r1
 80070e4:	b003      	add	sp, #12
 80070e6:	e8bd 83f0 	ldmia.w	sp!, {r4, r5, r6, r7, r8, r9, pc}
 80070ea:	2d00      	cmp	r5, #0
 80070ec:	da09      	bge.n	8007102 <__ieee754_log10+0x4a>
 80070ee:	ee10 2a10 	vmov	r2, s0
 80070f2:	462b      	mov	r3, r5
 80070f4:	4620      	mov	r0, r4
 80070f6:	4629      	mov	r1, r5
 80070f8:	f7f9 f87e 	bl	80001f8 <__aeabi_dsub>
 80070fc:	2200      	movs	r2, #0
 80070fe:	2300      	movs	r3, #0
 8007100:	e7ec      	b.n	80070dc <__ieee754_log10+0x24>
 8007102:	2200      	movs	r2, #0
 8007104:	4b31      	ldr	r3, [pc, #196]	; (80071cc <__ieee754_log10+0x114>)
 8007106:	4629      	mov	r1, r5
 8007108:	ee10 0a10 	vmov	r0, s0
 800710c:	f7f9 fa28 	bl	8000560 <__aeabi_dmul>
 8007110:	f06f 0235 	mvn.w	r2, #53	; 0x35
 8007114:	4604      	mov	r4, r0
 8007116:	460d      	mov	r5, r1
 8007118:	460b      	mov	r3, r1
 800711a:	492d      	ldr	r1, [pc, #180]	; (80071d0 <__ieee754_log10+0x118>)
 800711c:	428b      	cmp	r3, r1
 800711e:	dd08      	ble.n	8007132 <__ieee754_log10+0x7a>
 8007120:	4622      	mov	r2, r4
 8007122:	462b      	mov	r3, r5
 8007124:	4620      	mov	r0, r4
 8007126:	4629      	mov	r1, r5
 8007128:	f7f9 f868 	bl	80001fc <__adddf3>
 800712c:	e7d8      	b.n	80070e0 <__ieee754_log10+0x28>
 800712e:	2200      	movs	r2, #0
 8007130:	e7f3      	b.n	800711a <__ieee754_log10+0x62>
 8007132:	1518      	asrs	r0, r3, #20
 8007134:	f2a0 30ff 	subw	r0, r0, #1023	; 0x3ff
 8007138:	4410      	add	r0, r2
 800713a:	ea4f 79d0 	mov.w	r9, r0, lsr #31
 800713e:	4448      	add	r0, r9
 8007140:	f3c3 0813 	ubfx	r8, r3, #0, #20
 8007144:	f7f9 f9a6 	bl	8000494 <__aeabi_i2d>
 8007148:	f5c9 737f 	rsb	r3, r9, #1020	; 0x3fc
 800714c:	3303      	adds	r3, #3
 800714e:	ea48 5503 	orr.w	r5, r8, r3, lsl #20
 8007152:	ec45 4b10 	vmov	d0, r4, r5
 8007156:	4606      	mov	r6, r0
 8007158:	460f      	mov	r7, r1
 800715a:	f000 f845 	bl	80071e8 <__ieee754_log>
 800715e:	a314      	add	r3, pc, #80	; (adr r3, 80071b0 <__ieee754_log10+0xf8>)
 8007160:	e9d3 2300 	ldrd	r2, r3, [r3]
 8007164:	4630      	mov	r0, r6
 8007166:	4639      	mov	r1, r7
 8007168:	ed8d 0b00 	vstr	d0, [sp]
 800716c:	f7f9 f9f8 	bl	8000560 <__aeabi_dmul>
 8007170:	ed9d 0b00 	vldr	d0, [sp]
 8007174:	4604      	mov	r4, r0
 8007176:	460d      	mov	r5, r1
 8007178:	a30f      	add	r3, pc, #60	; (adr r3, 80071b8 <__ieee754_log10+0x100>)
 800717a:	e9d3 2300 	ldrd	r2, r3, [r3]
 800717e:	ec51 0b10 	vmov	r0, r1, d0
 8007182:	f7f9 f9ed 	bl	8000560 <__aeabi_dmul>
 8007186:	4602      	mov	r2, r0
 8007188:	460b      	mov	r3, r1
 800718a:	4620      	mov	r0, r4
 800718c:	4629      	mov	r1, r5
 800718e:	f7f9 f835 	bl	80001fc <__adddf3>
 8007192:	a30b      	add	r3, pc, #44	; (adr r3, 80071c0 <__ieee754_log10+0x108>)
 8007194:	e9d3 2300 	ldrd	r2, r3, [r3]
 8007198:	4604      	mov	r4, r0
 800719a:	460d      	mov	r5, r1
 800719c:	4630      	mov	r0, r6
 800719e:	4639      	mov	r1, r7
 80071a0:	f7f9 f9de 	bl	8000560 <__aeabi_dmul>
 80071a4:	4602      	mov	r2, r0
 80071a6:	460b      	mov	r3, r1
 80071a8:	4620      	mov	r0, r4
 80071aa:	4629      	mov	r1, r5
 80071ac:	e7bc      	b.n	8007128 <__ieee754_log10+0x70>
 80071ae:	bf00      	nop
 80071b0:	11f12b36 	.word	0x11f12b36
 80071b4:	3d59fef3 	.word	0x3d59fef3
 80071b8:	1526e50e 	.word	0x1526e50e
 80071bc:	3fdbcb7b 	.word	0x3fdbcb7b
 80071c0:	509f6000 	.word	0x509f6000
 80071c4:	3fd34413 	.word	0x3fd34413
 80071c8:	c3500000 	.word	0xc3500000
 80071cc:	43500000 	.word	0x43500000
 80071d0:	7fefffff 	.word	0x7fefffff

080071d4 <matherr>:
 80071d4:	2000      	movs	r0, #0
 80071d6:	4770      	bx	lr

080071d8 <nan>:
 80071d8:	ed9f 0b01 	vldr	d0, [pc, #4]	; 80071e0 <nan+0x8>
 80071dc:	4770      	bx	lr
 80071de:	bf00      	nop
 80071e0:	00000000 	.word	0x00000000
 80071e4:	7ff80000 	.word	0x7ff80000

080071e8 <__ieee754_log>:
 80071e8:	e92d 4ff0 	stmdb	sp!, {r4, r5, r6, r7, r8, r9, sl, fp, lr}
 80071ec:	ec51 0b10 	vmov	r0, r1, d0
 80071f0:	f5b1 1f80 	cmp.w	r1, #1048576	; 0x100000
 80071f4:	b087      	sub	sp, #28
 80071f6:	ee10 3a10 	vmov	r3, s0
 80071fa:	460d      	mov	r5, r1
 80071fc:	da27      	bge.n	800724e <__ieee754_log+0x66>
 80071fe:	f021 4200 	bic.w	r2, r1, #2147483648	; 0x80000000
 8007202:	4313      	orrs	r3, r2
 8007204:	d10a      	bne.n	800721c <__ieee754_log+0x34>
 8007206:	49cc      	ldr	r1, [pc, #816]	; (8007538 <__ieee754_log+0x350>)
 8007208:	2200      	movs	r2, #0
 800720a:	2300      	movs	r3, #0
 800720c:	2000      	movs	r0, #0
 800720e:	f7f9 fad1 	bl	80007b4 <__aeabi_ddiv>
 8007212:	ec41 0b10 	vmov	d0, r0, r1
 8007216:	b007      	add	sp, #28
 8007218:	e8bd 8ff0 	ldmia.w	sp!, {r4, r5, r6, r7, r8, r9, sl, fp, pc}
 800721c:	2900      	cmp	r1, #0
 800721e:	da07      	bge.n	8007230 <__ieee754_log+0x48>
 8007220:	ee10 2a10 	vmov	r2, s0
 8007224:	460b      	mov	r3, r1
 8007226:	f7f8 ffe7 	bl	80001f8 <__aeabi_dsub>
 800722a:	2200      	movs	r2, #0
 800722c:	2300      	movs	r3, #0
 800722e:	e7ee      	b.n	800720e <__ieee754_log+0x26>
 8007230:	4bc2      	ldr	r3, [pc, #776]	; (800753c <__ieee754_log+0x354>)
 8007232:	2200      	movs	r2, #0
 8007234:	f7f9 f994 	bl	8000560 <__aeabi_dmul>
 8007238:	f06f 0335 	mvn.w	r3, #53	; 0x35
 800723c:	460d      	mov	r5, r1
 800723e:	4ac0      	ldr	r2, [pc, #768]	; (8007540 <__ieee754_log+0x358>)
 8007240:	4295      	cmp	r5, r2
 8007242:	dd06      	ble.n	8007252 <__ieee754_log+0x6a>
 8007244:	4602      	mov	r2, r0
 8007246:	460b      	mov	r3, r1
 8007248:	f7f8 ffd8 	bl	80001fc <__adddf3>
 800724c:	e7e1      	b.n	8007212 <__ieee754_log+0x2a>
 800724e:	2300      	movs	r3, #0
 8007250:	e7f5      	b.n	800723e <__ieee754_log+0x56>
 8007252:	152c      	asrs	r4, r5, #20
 8007254:	f2a4 34ff 	subw	r4, r4, #1023	; 0x3ff
 8007258:	f3c5 0513 	ubfx	r5, r5, #0, #20
 800725c:	441c      	add	r4, r3
 800725e:	f505 2315 	add.w	r3, r5, #610304	; 0x95000
 8007262:	f603 7364 	addw	r3, r3, #3940	; 0xf64
 8007266:	f403 1380 	and.w	r3, r3, #1048576	; 0x100000
 800726a:	f083 527f 	eor.w	r2, r3, #1069547520	; 0x3fc00000
 800726e:	f482 1240 	eor.w	r2, r2, #3145728	; 0x300000
 8007272:	ea42 0105 	orr.w	r1, r2, r5
 8007276:	eb04 5413 	add.w	r4, r4, r3, lsr #20
 800727a:	2200      	movs	r2, #0
 800727c:	4bb1      	ldr	r3, [pc, #708]	; (8007544 <__ieee754_log+0x35c>)
 800727e:	f7f8 ffbb 	bl	80001f8 <__aeabi_dsub>
 8007282:	1cab      	adds	r3, r5, #2
 8007284:	f3c3 0313 	ubfx	r3, r3, #0, #20
 8007288:	2b02      	cmp	r3, #2
 800728a:	4682      	mov	sl, r0
 800728c:	468b      	mov	fp, r1
 800728e:	f04f 0200 	mov.w	r2, #0
 8007292:	dc5b      	bgt.n	800734c <__ieee754_log+0x164>
 8007294:	2300      	movs	r3, #0
 8007296:	f7f9 fbcb 	bl	8000a30 <__aeabi_dcmpeq>
 800729a:	b1d0      	cbz	r0, 80072d2 <__ieee754_log+0xea>
 800729c:	2c00      	cmp	r4, #0
 800729e:	f000 8170 	beq.w	8007582 <__ieee754_log+0x39a>
 80072a2:	4620      	mov	r0, r4
 80072a4:	f7f9 f8f6 	bl	8000494 <__aeabi_i2d>
 80072a8:	a38f      	add	r3, pc, #572	; (adr r3, 80074e8 <__ieee754_log+0x300>)
 80072aa:	e9d3 2300 	ldrd	r2, r3, [r3]
 80072ae:	4606      	mov	r6, r0
 80072b0:	460f      	mov	r7, r1
 80072b2:	f7f9 f955 	bl	8000560 <__aeabi_dmul>
 80072b6:	a38e      	add	r3, pc, #568	; (adr r3, 80074f0 <__ieee754_log+0x308>)
 80072b8:	e9d3 2300 	ldrd	r2, r3, [r3]
 80072bc:	4604      	mov	r4, r0
 80072be:	460d      	mov	r5, r1
 80072c0:	4630      	mov	r0, r6
 80072c2:	4639      	mov	r1, r7
 80072c4:	f7f9 f94c 	bl	8000560 <__aeabi_dmul>
 80072c8:	4602      	mov	r2, r0
 80072ca:	460b      	mov	r3, r1
 80072cc:	4620      	mov	r0, r4
 80072ce:	4629      	mov	r1, r5
 80072d0:	e7ba      	b.n	8007248 <__ieee754_log+0x60>
 80072d2:	a389      	add	r3, pc, #548	; (adr r3, 80074f8 <__ieee754_log+0x310>)
 80072d4:	e9d3 2300 	ldrd	r2, r3, [r3]
 80072d8:	4650      	mov	r0, sl
 80072da:	4659      	mov	r1, fp
 80072dc:	f7f9 f940 	bl	8000560 <__aeabi_dmul>
 80072e0:	4602      	mov	r2, r0
 80072e2:	460b      	mov	r3, r1
 80072e4:	2000      	movs	r0, #0
 80072e6:	4998      	ldr	r1, [pc, #608]	; (8007548 <__ieee754_log+0x360>)
 80072e8:	f7f8 ff86 	bl	80001f8 <__aeabi_dsub>
 80072ec:	4652      	mov	r2, sl
 80072ee:	4606      	mov	r6, r0
 80072f0:	460f      	mov	r7, r1
 80072f2:	465b      	mov	r3, fp
 80072f4:	4650      	mov	r0, sl
 80072f6:	4659      	mov	r1, fp
 80072f8:	f7f9 f932 	bl	8000560 <__aeabi_dmul>
 80072fc:	4602      	mov	r2, r0
 80072fe:	460b      	mov	r3, r1
 8007300:	4630      	mov	r0, r6
 8007302:	4639      	mov	r1, r7
 8007304:	f7f9 f92c 	bl	8000560 <__aeabi_dmul>
 8007308:	4606      	mov	r6, r0
 800730a:	460f      	mov	r7, r1
 800730c:	b934      	cbnz	r4, 800731c <__ieee754_log+0x134>
 800730e:	4602      	mov	r2, r0
 8007310:	460b      	mov	r3, r1
 8007312:	4650      	mov	r0, sl
 8007314:	4659      	mov	r1, fp
 8007316:	f7f8 ff6f 	bl	80001f8 <__aeabi_dsub>
 800731a:	e77a      	b.n	8007212 <__ieee754_log+0x2a>
 800731c:	4620      	mov	r0, r4
 800731e:	f7f9 f8b9 	bl	8000494 <__aeabi_i2d>
 8007322:	a371      	add	r3, pc, #452	; (adr r3, 80074e8 <__ieee754_log+0x300>)
 8007324:	e9d3 2300 	ldrd	r2, r3, [r3]
 8007328:	4680      	mov	r8, r0
 800732a:	4689      	mov	r9, r1
 800732c:	f7f9 f918 	bl	8000560 <__aeabi_dmul>
 8007330:	a36f      	add	r3, pc, #444	; (adr r3, 80074f0 <__ieee754_log+0x308>)
 8007332:	e9d3 2300 	ldrd	r2, r3, [r3]
 8007336:	4604      	mov	r4, r0
 8007338:	460d      	mov	r5, r1
 800733a:	4640      	mov	r0, r8
 800733c:	4649      	mov	r1, r9
 800733e:	f7f9 f90f 	bl	8000560 <__aeabi_dmul>
 8007342:	4602      	mov	r2, r0
 8007344:	460b      	mov	r3, r1
 8007346:	4630      	mov	r0, r6
 8007348:	4639      	mov	r1, r7
 800734a:	e0b2      	b.n	80074b2 <__ieee754_log+0x2ca>
 800734c:	f04f 4380 	mov.w	r3, #1073741824	; 0x40000000
 8007350:	f7f8 ff54 	bl	80001fc <__adddf3>
 8007354:	4602      	mov	r2, r0
 8007356:	460b      	mov	r3, r1
 8007358:	4650      	mov	r0, sl
 800735a:	4659      	mov	r1, fp
 800735c:	f7f9 fa2a 	bl	80007b4 <__aeabi_ddiv>
 8007360:	e9cd 0100 	strd	r0, r1, [sp]
 8007364:	4620      	mov	r0, r4
 8007366:	f7f9 f895 	bl	8000494 <__aeabi_i2d>
 800736a:	e9dd 2300 	ldrd	r2, r3, [sp]
 800736e:	e9cd 0102 	strd	r0, r1, [sp, #8]
 8007372:	4610      	mov	r0, r2
 8007374:	4619      	mov	r1, r3
 8007376:	f7f9 f8f3 	bl	8000560 <__aeabi_dmul>
 800737a:	4602      	mov	r2, r0
 800737c:	460b      	mov	r3, r1
 800737e:	e9cd 0104 	strd	r0, r1, [sp, #16]
 8007382:	f7f9 f8ed 	bl	8000560 <__aeabi_dmul>
 8007386:	a35e      	add	r3, pc, #376	; (adr r3, 8007500 <__ieee754_log+0x318>)
 8007388:	e9d3 2300 	ldrd	r2, r3, [r3]
 800738c:	4606      	mov	r6, r0
 800738e:	460f      	mov	r7, r1
 8007390:	f7f9 f8e6 	bl	8000560 <__aeabi_dmul>
 8007394:	a35c      	add	r3, pc, #368	; (adr r3, 8007508 <__ieee754_log+0x320>)
 8007396:	e9d3 2300 	ldrd	r2, r3, [r3]
 800739a:	f7f8 ff2f 	bl	80001fc <__adddf3>
 800739e:	4632      	mov	r2, r6
 80073a0:	463b      	mov	r3, r7
 80073a2:	f7f9 f8dd 	bl	8000560 <__aeabi_dmul>
 80073a6:	a35a      	add	r3, pc, #360	; (adr r3, 8007510 <__ieee754_log+0x328>)
 80073a8:	e9d3 2300 	ldrd	r2, r3, [r3]
 80073ac:	f7f8 ff26 	bl	80001fc <__adddf3>
 80073b0:	4632      	mov	r2, r6
 80073b2:	463b      	mov	r3, r7
 80073b4:	f7f9 f8d4 	bl	8000560 <__aeabi_dmul>
 80073b8:	a357      	add	r3, pc, #348	; (adr r3, 8007518 <__ieee754_log+0x330>)
 80073ba:	e9d3 2300 	ldrd	r2, r3, [r3]
 80073be:	f7f8 ff1d 	bl	80001fc <__adddf3>
 80073c2:	e9dd 2304 	ldrd	r2, r3, [sp, #16]
 80073c6:	f7f9 f8cb 	bl	8000560 <__aeabi_dmul>
 80073ca:	a355      	add	r3, pc, #340	; (adr r3, 8007520 <__ieee754_log+0x338>)
 80073cc:	e9d3 2300 	ldrd	r2, r3, [r3]
 80073d0:	e9cd 0104 	strd	r0, r1, [sp, #16]
 80073d4:	4630      	mov	r0, r6
 80073d6:	4639      	mov	r1, r7
 80073d8:	f7f9 f8c2 	bl	8000560 <__aeabi_dmul>
 80073dc:	a352      	add	r3, pc, #328	; (adr r3, 8007528 <__ieee754_log+0x340>)
 80073de:	e9d3 2300 	ldrd	r2, r3, [r3]
 80073e2:	f7f8 ff0b 	bl	80001fc <__adddf3>
 80073e6:	4632      	mov	r2, r6
 80073e8:	463b      	mov	r3, r7
 80073ea:	f7f9 f8b9 	bl	8000560 <__aeabi_dmul>
 80073ee:	a350      	add	r3, pc, #320	; (adr r3, 8007530 <__ieee754_log+0x348>)
 80073f0:	e9d3 2300 	ldrd	r2, r3, [r3]
 80073f4:	f7f8 ff02 	bl	80001fc <__adddf3>
 80073f8:	4632      	mov	r2, r6
 80073fa:	463b      	mov	r3, r7
 80073fc:	f7f9 f8b0 	bl	8000560 <__aeabi_dmul>
 8007400:	f5a5 28c2 	sub.w	r8, r5, #397312	; 0x61000
 8007404:	4602      	mov	r2, r0
 8007406:	460b      	mov	r3, r1
 8007408:	f5c5 25d7 	rsb	r5, r5, #440320	; 0x6b800
 800740c:	e9dd 0104 	ldrd	r0, r1, [sp, #16]
 8007410:	f7f8 fef4 	bl	80001fc <__adddf3>
 8007414:	f2a8 487a 	subw	r8, r8, #1146	; 0x47a
 8007418:	3551      	adds	r5, #81	; 0x51
 800741a:	ea45 0508 	orr.w	r5, r5, r8
 800741e:	2d00      	cmp	r5, #0
 8007420:	4606      	mov	r6, r0
 8007422:	460f      	mov	r7, r1
 8007424:	dd50      	ble.n	80074c8 <__ieee754_log+0x2e0>
 8007426:	2200      	movs	r2, #0
 8007428:	4b47      	ldr	r3, [pc, #284]	; (8007548 <__ieee754_log+0x360>)
 800742a:	4650      	mov	r0, sl
 800742c:	4659      	mov	r1, fp
 800742e:	f7f9 f897 	bl	8000560 <__aeabi_dmul>
 8007432:	4652      	mov	r2, sl
 8007434:	465b      	mov	r3, fp
 8007436:	f7f9 f893 	bl	8000560 <__aeabi_dmul>
 800743a:	4680      	mov	r8, r0
 800743c:	4689      	mov	r9, r1
 800743e:	b994      	cbnz	r4, 8007466 <__ieee754_log+0x27e>
 8007440:	4602      	mov	r2, r0
 8007442:	460b      	mov	r3, r1
 8007444:	4630      	mov	r0, r6
 8007446:	4639      	mov	r1, r7
 8007448:	f7f8 fed8 	bl	80001fc <__adddf3>
 800744c:	e9dd 2300 	ldrd	r2, r3, [sp]
 8007450:	f7f9 f886 	bl	8000560 <__aeabi_dmul>
 8007454:	4602      	mov	r2, r0
 8007456:	460b      	mov	r3, r1
 8007458:	4640      	mov	r0, r8
 800745a:	4649      	mov	r1, r9
 800745c:	f7f8 fecc 	bl	80001f8 <__aeabi_dsub>
 8007460:	4602      	mov	r2, r0
 8007462:	460b      	mov	r3, r1
 8007464:	e755      	b.n	8007312 <__ieee754_log+0x12a>
 8007466:	a320      	add	r3, pc, #128	; (adr r3, 80074e8 <__ieee754_log+0x300>)
 8007468:	e9d3 2300 	ldrd	r2, r3, [r3]
 800746c:	e9dd 0102 	ldrd	r0, r1, [sp, #8]
 8007470:	f7f9 f876 	bl	8000560 <__aeabi_dmul>
 8007474:	4642      	mov	r2, r8
 8007476:	464b      	mov	r3, r9
 8007478:	4604      	mov	r4, r0
 800747a:	460d      	mov	r5, r1
 800747c:	4630      	mov	r0, r6
 800747e:	4639      	mov	r1, r7
 8007480:	f7f8 febc 	bl	80001fc <__adddf3>
 8007484:	e9dd 2300 	ldrd	r2, r3, [sp]
 8007488:	f7f9 f86a 	bl	8000560 <__aeabi_dmul>
 800748c:	a318      	add	r3, pc, #96	; (adr r3, 80074f0 <__ieee754_log+0x308>)
 800748e:	e9d3 2300 	ldrd	r2, r3, [r3]
 8007492:	4606      	mov	r6, r0
 8007494:	460f      	mov	r7, r1
 8007496:	e9dd 0102 	ldrd	r0, r1, [sp, #8]
 800749a:	f7f9 f861 	bl	8000560 <__aeabi_dmul>
 800749e:	4602      	mov	r2, r0
 80074a0:	460b      	mov	r3, r1
 80074a2:	4630      	mov	r0, r6
 80074a4:	4639      	mov	r1, r7
 80074a6:	f7f8 fea9 	bl	80001fc <__adddf3>
 80074aa:	4602      	mov	r2, r0
 80074ac:	460b      	mov	r3, r1
 80074ae:	4640      	mov	r0, r8
 80074b0:	4649      	mov	r1, r9
 80074b2:	f7f8 fea1 	bl	80001f8 <__aeabi_dsub>
 80074b6:	4652      	mov	r2, sl
 80074b8:	465b      	mov	r3, fp
 80074ba:	f7f8 fe9d 	bl	80001f8 <__aeabi_dsub>
 80074be:	4602      	mov	r2, r0
 80074c0:	460b      	mov	r3, r1
 80074c2:	4620      	mov	r0, r4
 80074c4:	4629      	mov	r1, r5
 80074c6:	e726      	b.n	8007316 <__ieee754_log+0x12e>
 80074c8:	2c00      	cmp	r4, #0
 80074ca:	d13f      	bne.n	800754c <__ieee754_log+0x364>
 80074cc:	4602      	mov	r2, r0
 80074ce:	460b      	mov	r3, r1
 80074d0:	4650      	mov	r0, sl
 80074d2:	4659      	mov	r1, fp
 80074d4:	f7f8 fe90 	bl	80001f8 <__aeabi_dsub>
 80074d8:	e9dd 2300 	ldrd	r2, r3, [sp]
 80074dc:	f7f9 f840 	bl	8000560 <__aeabi_dmul>
 80074e0:	e7be      	b.n	8007460 <__ieee754_log+0x278>
 80074e2:	bf00      	nop
 80074e4:	f3af 8000 	nop.w
 80074e8:	fee00000 	.word	0xfee00000
 80074ec:	3fe62e42 	.word	0x3fe62e42
 80074f0:	35793c76 	.word	0x35793c76
 80074f4:	3dea39ef 	.word	0x3dea39ef
 80074f8:	55555555 	.word	0x55555555
 80074fc:	3fd55555 	.word	0x3fd55555
 8007500:	df3e5244 	.word	0xdf3e5244
 8007504:	3fc2f112 	.word	0x3fc2f112
 8007508:	96cb03de 	.word	0x96cb03de
 800750c:	3fc74664 	.word	0x3fc74664
 8007510:	94229359 	.word	0x94229359
 8007514:	3fd24924 	.word	0x3fd24924
 8007518:	55555593 	.word	0x55555593
 800751c:	3fe55555 	.word	0x3fe55555
 8007520:	d078c69f 	.word	0xd078c69f
 8007524:	3fc39a09 	.word	0x3fc39a09
 8007528:	1d8e78af 	.word	0x1d8e78af
 800752c:	3fcc71c5 	.word	0x3fcc71c5
 8007530:	9997fa04 	.word	0x9997fa04
 8007534:	3fd99999 	.word	0x3fd99999
 8007538:	c3500000 	.word	0xc3500000
 800753c:	43500000 	.word	0x43500000
 8007540:	7fefffff 	.word	0x7fefffff
 8007544:	3ff00000 	.word	0x3ff00000
 8007548:	3fe00000 	.word	0x3fe00000
 800754c:	a30e      	add	r3, pc, #56	; (adr r3, 8007588 <__ieee754_log+0x3a0>)
 800754e:	e9d3 2300 	ldrd	r2, r3, [r3]
 8007552:	e9dd 0102 	ldrd	r0, r1, [sp, #8]
 8007556:	f7f9 f803 	bl	8000560 <__aeabi_dmul>
 800755a:	4632      	mov	r2, r6
 800755c:	463b      	mov	r3, r7
 800755e:	4604      	mov	r4, r0
 8007560:	460d      	mov	r5, r1
 8007562:	4650      	mov	r0, sl
 8007564:	4659      	mov	r1, fp
 8007566:	f7f8 fe47 	bl	80001f8 <__aeabi_dsub>
 800756a:	e9dd 2300 	ldrd	r2, r3, [sp]
 800756e:	f7f8 fff7 	bl	8000560 <__aeabi_dmul>
 8007572:	a307      	add	r3, pc, #28	; (adr r3, 8007590 <__ieee754_log+0x3a8>)
 8007574:	e9d3 2300 	ldrd	r2, r3, [r3]
 8007578:	4606      	mov	r6, r0
 800757a:	460f      	mov	r7, r1
 800757c:	e9dd 0102 	ldrd	r0, r1, [sp, #8]
 8007580:	e6dd      	b.n	800733e <__ieee754_log+0x156>
 8007582:	2000      	movs	r0, #0
 8007584:	2100      	movs	r1, #0
 8007586:	e644      	b.n	8007212 <__ieee754_log+0x2a>
 8007588:	fee00000 	.word	0xfee00000
 800758c:	3fe62e42 	.word	0x3fe62e42
 8007590:	35793c76 	.word	0x35793c76
 8007594:	3dea39ef 	.word	0x3dea39ef

08007598 <__errno>:
 8007598:	4b01      	ldr	r3, [pc, #4]	; (80075a0 <__errno+0x8>)
 800759a:	6818      	ldr	r0, [r3, #0]
 800759c:	4770      	bx	lr
 800759e:	bf00      	nop
 80075a0:	20000160 	.word	0x20000160

080075a4 <_sbrk>:
 80075a4:	4b04      	ldr	r3, [pc, #16]	; (80075b8 <_sbrk+0x14>)
 80075a6:	6819      	ldr	r1, [r3, #0]
 80075a8:	4602      	mov	r2, r0
 80075aa:	b909      	cbnz	r1, 80075b0 <_sbrk+0xc>
 80075ac:	4903      	ldr	r1, [pc, #12]	; (80075bc <_sbrk+0x18>)
 80075ae:	6019      	str	r1, [r3, #0]
 80075b0:	6818      	ldr	r0, [r3, #0]
 80075b2:	4402      	add	r2, r0
 80075b4:	601a      	str	r2, [r3, #0]
 80075b6:	4770      	bx	lr
 80075b8:	20011070 	.word	0x20011070
 80075bc:	20011f74 	.word	0x20011f74

080075c0 <_init>:
 80075c0:	b5f8      	push	{r3, r4, r5, r6, r7, lr}
 80075c2:	bf00      	nop
 80075c4:	bcf8      	pop	{r3, r4, r5, r6, r7}
 80075c6:	bc08      	pop	{r3}
 80075c8:	469e      	mov	lr, r3
 80075ca:	4770      	bx	lr

080075cc <_fini>:
 80075cc:	b5f8      	push	{r3, r4, r5, r6, r7, lr}
 80075ce:	bf00      	nop
 80075d0:	bcf8      	pop	{r3, r4, r5, r6, r7}
 80075d2:	bc08      	pop	{r3}
 80075d4:	469e      	mov	lr, r3
 80075d6:	4770      	bx	lr
